# SymbolsHelper-Confirmed: 1.1.0 amd64
libCnoidBase.so.1.1 libcnoid1 #MINVER#
 _Z19qInitResources_Basev@Base 1.1.0
 _Z22qCleanupResources_Basev@Base 1.1.0
 _ZGVZN5boost11filesystem212initial_pathINS0_10basic_pathISsNS0_11path_traitsEEEEERKT_vE9init_path@Base 1.1.0
 _ZN10QByteArray6detachEv@Base 1.1.0
 _ZN10QByteArrayD1Ev@Base 1.1.0
 _ZN10QByteArrayD2Ev@Base 1.1.0
 _ZN12QRadioButtonD0Ev@Base 1.1.0
 _ZN12QRadioButtonD1Ev@Base 1.1.0
 _ZN12QRadioButtonD2Ev@Base 1.1.0
 _ZN36qCleanupResources_Base__dest_class__D1Ev@Base 1.1.0
 _ZN36qCleanupResources_Base__dest_class__D2Ev@Base 1.1.0
 _ZN3osg10BufferDataC1ERKS0_RKNS_6CopyOpE@Base 1.1.0
 _ZN3osg10BufferDataC2ERKS0_RKNS_6CopyOpE@Base 1.1.0
 _ZN3osg10IndexArrayD0Ev@Base 1.1.0
 _ZN3osg10IndexArrayD1Ev@Base 1.1.0
 _ZN3osg10IndexArrayD2Ev@Base 1.1.0
 (optional=templinst)_ZN3osg11MixinVectorINS_5Vec3fEED0Ev@Base 1.1.0
 (optional=templinst)_ZN3osg11MixinVectorINS_5Vec3fEED1Ev@Base 1.1.0
 (optional=templinst)_ZN3osg11MixinVectorINS_5Vec3fEED2Ev@Base 1.1.0
 (optional=templinst)_ZN3osg11MixinVectorINS_5Vec4fEED0Ev@Base 1.1.0
 (optional=templinst)_ZN3osg11MixinVectorINS_5Vec4fEED1Ev@Base 1.1.0
 (optional=templinst)_ZN3osg11MixinVectorINS_5Vec4fEED2Ev@Base 1.1.0
 (optional=templinst)_ZN3osg11MixinVectorIiED0Ev@Base 1.1.0
 (optional=templinst)_ZN3osg11MixinVectorIiED1Ev@Base 1.1.0
 (optional=templinst)_ZN3osg11MixinVectorIiED2Ev@Base 1.1.0
 (optional=templinst)_ZN3osg11MixinVectorIjED0Ev@Base 1.1.0
 (optional=templinst)_ZN3osg11MixinVectorIjED1Ev@Base 1.1.0
 (optional=templinst)_ZN3osg11MixinVectorIjED2Ev@Base 1.1.0
 (optional=templinst)_ZN3osg11MixinVectorItED0Ev@Base 1.1.0
 (optional=templinst)_ZN3osg11MixinVectorItED1Ev@Base 1.1.0
 (optional=templinst)_ZN3osg11MixinVectorItED2Ev@Base 1.1.0
 _ZN3osg11NodeVisitor5resetEv@Base 1.1.0
 _ZN3osg12DrawElements15getDrawElementsEv@Base 1.1.0
 _ZN3osg12DrawElementsD0Ev@Base 1.1.0
 _ZN3osg12DrawElementsD1Ev@Base 1.1.0
 _ZN3osg12DrawElementsD2Ev@Base 1.1.0
 _ZN3osg12NodeCallbackD0Ev@Base 1.1.0
 _ZN3osg12NodeCallbackD1Ev@Base 1.1.0
 _ZN3osg12NodeCallbackclEPNS_4NodeEPNS_11NodeVisitorE@Base 1.1.0
 (optional=templinst)_ZN3osg12observer_ptrINS_15GraphicsContextEEaSEPS1_@Base 1.1.0
 (optional=templinst)_ZN3osg13TemplateArrayINS_5Vec3fELNS_5Array4TypeE10ELi3ELi5126EE4trimEv@Base 1.1.0
 (optional=templinst)_ZN3osg13TemplateArrayINS_5Vec3fELNS_5Array4TypeE10ELi3ELi5126EE6acceptERNS_12ArrayVisitorE@Base 1.1.0
 (optional=templinst)_ZN3osg13TemplateArrayINS_5Vec3fELNS_5Array4TypeE10ELi3ELi5126EE6acceptEjRNS_12ValueVisitorE@Base 1.1.0
 (optional=templinst)_ZN3osg13TemplateArrayINS_5Vec3fELNS_5Array4TypeE10ELi3ELi5126EEC1ERKS4_RKNS_6CopyOpE@Base 1.1.0
 (optional=templinst)_ZN3osg13TemplateArrayINS_5Vec3fELNS_5Array4TypeE10ELi3ELi5126EEC2ERKS4_RKNS_6CopyOpE@Base 1.1.0
 (optional=templinst)_ZN3osg13TemplateArrayINS_5Vec3fELNS_5Array4TypeE10ELi3ELi5126EED0Ev@Base 1.1.0
 (optional=templinst)_ZN3osg13TemplateArrayINS_5Vec3fELNS_5Array4TypeE10ELi3ELi5126EED1Ev@Base 1.1.0
 (optional=templinst)_ZN3osg13TemplateArrayINS_5Vec3fELNS_5Array4TypeE10ELi3ELi5126EED2Ev@Base 1.1.0
 (optional=templinst)_ZN3osg13TemplateArrayINS_5Vec4fELNS_5Array4TypeE11ELi4ELi5126EE4trimEv@Base 1.1.0
 (optional=templinst)_ZN3osg13TemplateArrayINS_5Vec4fELNS_5Array4TypeE11ELi4ELi5126EE6acceptERNS_12ArrayVisitorE@Base 1.1.0
 (optional=templinst)_ZN3osg13TemplateArrayINS_5Vec4fELNS_5Array4TypeE11ELi4ELi5126EE6acceptEjRNS_12ValueVisitorE@Base 1.1.0
 (optional=templinst)_ZN3osg13TemplateArrayINS_5Vec4fELNS_5Array4TypeE11ELi4ELi5126EED0Ev@Base 1.1.0
 (optional=templinst)_ZN3osg13TemplateArrayINS_5Vec4fELNS_5Array4TypeE11ELi4ELi5126EED1Ev@Base 1.1.0
 (optional=templinst)_ZN3osg13TemplateArrayINS_5Vec4fELNS_5Array4TypeE11ELi4ELi5126EED2Ev@Base 1.1.0
 _ZN3osg15MatrixTransform17asMatrixTransformEv@Base 1.1.0
 _ZN3osg15MatrixTransform6acceptERNS_11NodeVisitorE@Base 1.1.0
 (optional=templinst)_ZN3osg18BoundingSphereImplINS_5Vec3fEE8expandByERKS2_@Base 1.1.0
 (optional=templinst)_ZN3osg18TemplateIndexArrayIiLNS_5Array4TypeE3ELi1ELi5124EE4trimEv@Base 1.1.0
 (optional=templinst)_ZN3osg18TemplateIndexArrayIiLNS_5Array4TypeE3ELi1ELi5124EE6acceptERNS_12ArrayVisitorE@Base 1.1.0
 (optional=templinst)_ZN3osg18TemplateIndexArrayIiLNS_5Array4TypeE3ELi1ELi5124EE6acceptEjRNS_12ValueVisitorE@Base 1.1.0
 (optional=templinst)_ZN3osg18TemplateIndexArrayIiLNS_5Array4TypeE3ELi1ELi5124EED0Ev@Base 1.1.0
 (optional=templinst)_ZN3osg18TemplateIndexArrayIiLNS_5Array4TypeE3ELi1ELi5124EED1Ev@Base 1.1.0
 (optional=templinst)_ZN3osg18TemplateIndexArrayIiLNS_5Array4TypeE3ELi1ELi5124EED2Ev@Base 1.1.0
 (optional=templinst)_ZN3osg18TemplateIndexArrayIjLNS_5Array4TypeE6ELi1ELi5125EE4trimEv@Base 1.1.0
 (optional=templinst)_ZN3osg18TemplateIndexArrayIjLNS_5Array4TypeE6ELi1ELi5125EE6acceptERNS_12ArrayVisitorE@Base 1.1.0
 (optional=templinst)_ZN3osg18TemplateIndexArrayIjLNS_5Array4TypeE6ELi1ELi5125EE6acceptEjRNS_12ValueVisitorE@Base 1.1.0
 (optional=templinst)_ZN3osg18TemplateIndexArrayIjLNS_5Array4TypeE6ELi1ELi5125EED0Ev@Base 1.1.0
 (optional=templinst)_ZN3osg18TemplateIndexArrayIjLNS_5Array4TypeE6ELi1ELi5125EED1Ev@Base 1.1.0
 (optional=templinst)_ZN3osg18TemplateIndexArrayIjLNS_5Array4TypeE6ELi1ELi5125EED2Ev@Base 1.1.0
 _ZN3osg4Node11asTransformEv@Base 1.1.0
 _ZN3osg4Node7asGeodeEv@Base 1.1.0
 _ZN3osg4Node7asGroupEv@Base 1.1.0
 _ZN3osg4Node8asSwitchEv@Base 1.1.0
 _ZN3osg4Node8traverseERNS_11NodeVisitorE@Base 1.1.0
 _ZN3osg4Node9asTerrainEv@Base 1.1.0
 _ZN3osg4View14createRendererEPNS_6CameraE@Base 1.1.0
 _ZN3osg5Array4trimEv@Base 1.1.0
 _ZN3osg5Geode6acceptERNS_11NodeVisitorE@Base 1.1.0
 _ZN3osg5Geode7asGeodeEv@Base 1.1.0
 _ZN3osg5Group11removeChildEPNS_4NodeE@Base 1.1.0
 _ZN3osg5Group12childRemovedEjj@Base 1.1.0
 _ZN3osg5Group13childInsertedEj@Base 1.1.0
 _ZN3osg5Group6acceptERNS_11NodeVisitorE@Base 1.1.0
 _ZN3osg5Group7asGroupEv@Base 1.1.0
 _ZN3osg5Vec3d9normalizeEv@Base 1.1.0
 _ZN3osg6Object19computeDataVarianceEv@Base 1.1.0
 _ZN3osg6Object21resizeGLObjectBuffersEj@Base 1.1.0
 _ZN3osg6Object7setNameERKSs@Base 1.1.0
 _ZN3osg7Matrixd12transform3x3ERKNS_5Vec3fERKS0_@Base 1.1.0
 _ZN3osg7Matrixd12transform3x3ERKS0_RKNS_5Vec3fE@Base 1.1.0
 _ZN3osg7Matrixd16preMultTranslateERKNS_5Vec3dE@Base 1.1.0
 _ZN3osg7Matrixd6invertERKS0_@Base 1.1.0
 (optional=templinst)_ZN3osg7ref_ptrIN5cnoid15SceneGLDrawableEED1Ev@Base 1.1.0
 (optional=templinst)_ZN3osg7ref_ptrIN5cnoid15SceneGLDrawableEED2Ev@Base 1.1.0
 (optional=templinst)_ZN3osg7ref_ptrIN5osgFX6ScribeEED1Ev@Base 1.1.0
 (optional=templinst)_ZN3osg7ref_ptrIN5osgFX6ScribeEED2Ev@Base 1.1.0
 (optional=templinst)_ZN3osg7ref_ptrIN5osgFX6ScribeEEaSEPS2_@Base 1.1.0
 (optional=templinst)_ZN3osg7ref_ptrIN5osgFX7CartoonEED1Ev@Base 1.1.0
 (optional=templinst)_ZN3osg7ref_ptrIN5osgFX7CartoonEED2Ev@Base 1.1.0
 (optional=templinst)_ZN3osg7ref_ptrIN5osgFX7CartoonEEaSEPS2_@Base 1.1.0
 (optional=templinst)_ZN3osg7ref_ptrIN5osgFX9TechniqueEED1Ev@Base 1.1.0
 (optional=templinst)_ZN3osg7ref_ptrIN5osgFX9TechniqueEED2Ev@Base 1.1.0
 (optional=templinst)_ZN3osg7ref_ptrIN5osgGA10EventQueueEED1Ev@Base 1.1.0
 (optional=templinst)_ZN3osg7ref_ptrIN5osgGA10EventQueueEED2Ev@Base 1.1.0
 (optional=templinst)_ZN3osg7ref_ptrIN5osgGA12EventVisitorEED1Ev@Base 1.1.0
 (optional=templinst)_ZN3osg7ref_ptrIN5osgGA12EventVisitorEED2Ev@Base 1.1.0
 (optional=templinst)_ZN3osg7ref_ptrIN7osgUtil13UpdateVisitorEED1Ev@Base 1.1.0
 (optional=templinst)_ZN3osg7ref_ptrIN7osgUtil13UpdateVisitorEED2Ev@Base 1.1.0
 (optional=templinst)_ZN3osg7ref_ptrIN7osgUtil27IncrementalCompileOperationEED1Ev@Base 1.1.0
 (optional=templinst)_ZN3osg7ref_ptrIN7osgUtil27IncrementalCompileOperationEED2Ev@Base 1.1.0
 (optional=templinst)_ZN3osg7ref_ptrIN9osgShadow13ShadowedSceneEED1Ev@Base 1.1.0
 (optional=templinst)_ZN3osg7ref_ptrIN9osgShadow13ShadowedSceneEED2Ev@Base 1.1.0
 (optional=templinst)_ZN3osg7ref_ptrIN9osgShadow13ShadowedSceneEEaSEPS2_@Base 1.1.0
 (optional=templinst)_ZN3osg7ref_ptrIN9osgShadow9ShadowMapEED1Ev@Base 1.1.0
 (optional=templinst)_ZN3osg7ref_ptrIN9osgShadow9ShadowMapEED2Ev@Base 1.1.0
 (optional=templinst)_ZN3osg7ref_ptrIN9osgViewer22GraphicsWindowEmbeddedEED1Ev@Base 1.1.0
 (optional=templinst)_ZN3osg7ref_ptrIN9osgViewer22GraphicsWindowEmbeddedEED2Ev@Base 1.1.0
 (optional=templinst)_ZN3osg7ref_ptrINS_11LightSourceEED1Ev@Base 1.1.0
 (optional=templinst)_ZN3osg7ref_ptrINS_11LightSourceEED2Ev@Base 1.1.0
 (optional=templinst)_ZN3osg7ref_ptrINS_11PolygonModeEED1Ev@Base 1.1.0
 (optional=templinst)_ZN3osg7ref_ptrINS_11PolygonModeEED2Ev@Base 1.1.0
 (optional=templinst)_ZN3osg7ref_ptrINS_13TemplateArrayINS_5Vec3fELNS_5Array4TypeE10ELi3ELi5126EEEED1Ev@Base 1.1.0
 (optional=templinst)_ZN3osg7ref_ptrINS_13TemplateArrayINS_5Vec3fELNS_5Array4TypeE10ELi3ELi5126EEEED2Ev@Base 1.1.0
 (optional=templinst)_ZN3osg7ref_ptrINS_14OperationQueueEED1Ev@Base 1.1.0
 (optional=templinst)_ZN3osg7ref_ptrINS_14OperationQueueEED2Ev@Base 1.1.0
 (optional=templinst)_ZN3osg7ref_ptrINS_16BarrierOperationEED1Ev@Base 1.1.0
 (optional=templinst)_ZN3osg7ref_ptrINS_16BarrierOperationEED2Ev@Base 1.1.0
 (optional=templinst)_ZN3osg7ref_ptrINS_21EndOfDynamicDrawBlockEED1Ev@Base 1.1.0
 (optional=templinst)_ZN3osg7ref_ptrINS_21EndOfDynamicDrawBlockEED2Ev@Base 1.1.0
 (optional=templinst)_ZN3osg7ref_ptrINS_25PositionAttitudeTransformEED1Ev@Base 1.1.0
 (optional=templinst)_ZN3osg7ref_ptrINS_25PositionAttitudeTransformEED2Ev@Base 1.1.0
 (optional=templinst)_ZN3osg7ref_ptrINS_5GeodeEED1Ev@Base 1.1.0
 (optional=templinst)_ZN3osg7ref_ptrINS_5GeodeEED2Ev@Base 1.1.0
 (optional=templinst)_ZN3osg7ref_ptrINS_5GroupEED1Ev@Base 1.1.0
 (optional=templinst)_ZN3osg7ref_ptrINS_5GroupEED2Ev@Base 1.1.0
 (optional=templinst)_ZN3osg7ref_ptrINS_5ImageEED1Ev@Base 1.1.0
 (optional=templinst)_ZN3osg7ref_ptrINS_5ImageEED2Ev@Base 1.1.0
 (optional=templinst)_ZN3osg7ref_ptrINS_5LightEED1Ev@Base 1.1.0
 (optional=templinst)_ZN3osg7ref_ptrINS_5LightEED2Ev@Base 1.1.0
 (optional=templinst)_ZN3osg7ref_ptrINS_5StateEEaSEPS1_@Base 1.1.0
 (optional=templinst)_ZN3osg7ref_ptrINS_6CameraEE6assignIS1_EEvRKNS0_IT_EE@Base 1.1.0
 (optional=templinst)_ZN3osg7ref_ptrINS_6CameraEED1Ev@Base 1.1.0
 (optional=templinst)_ZN3osg7ref_ptrINS_6CameraEED2Ev@Base 1.1.0
 (optional=templinst)_ZN3osg7ref_ptrINS_6SphereEED1Ev@Base 1.1.0
 (optional=templinst)_ZN3osg7ref_ptrINS_6SphereEED2Ev@Base 1.1.0
 (optional=templinst)_ZN3osg7ref_ptrINS_6SwitchEED1Ev@Base 1.1.0
 (optional=templinst)_ZN3osg7ref_ptrINS_6SwitchEED2Ev@Base 1.1.0
 (optional=templinst)_ZN3osg7ref_ptrINS_8DrawableEED1Ev@Base 1.1.0
 (optional=templinst)_ZN3osg7ref_ptrINS_8DrawableEED2Ev@Base 1.1.0
 (optional=templinst)_ZN3osg7ref_ptrINS_8StateSetEED1Ev@Base 1.1.0
 (optional=templinst)_ZN3osg7ref_ptrINS_8StateSetEED2Ev@Base 1.1.0
 (optional=templinst)_ZN3osg7ref_ptrINS_9OperationEED1Ev@Base 1.1.0
 (optional=templinst)_ZN3osg7ref_ptrINS_9OperationEED2Ev@Base 1.1.0
 _ZN3osg8Drawable10asGeometryEv@Base 1.1.0
 _ZN3osg8Drawable13EventCallback5eventEPNS_11NodeVisitorEPS0_@Base 1.1.0
 _ZN3osg8Drawable13EventCallbackD0Ev@Base 1.1.0
 _ZN3osg8Drawable13EventCallbackD1Ev@Base 1.1.0
 _ZN3osg8Drawable15setCullCallbackEPNS0_12CullCallbackE@Base 1.1.0
 _ZN3osg8Drawable15setDrawCallbackEPNS0_12DrawCallbackE@Base 1.1.0
 _ZN3osg8Drawable6acceptERNS0_16AttributeFunctorE@Base 1.1.0
 _ZN3osg9Transform11asTransformEv@Base 1.1.0
 _ZN3osg9Transform27asPositionAttitudeTransformEv@Base 1.1.0
 (optional=templinst)_ZN5Eigen6MatrixIdLi3ELi1ELi0ELi3ELi1EEaSINS_12CwiseUnaryOpINS_8internal18scalar_opposite_opIdEEKS1_EEEERS1_RKNS_10MatrixBaseIT_EE@Base 1.1.0
 _ZN5Eigen8internal19throw_std_bad_allocEv@Base 1.1.0
 (optional=templinst)_ZN5QListI7QStringE13detach_helperEi@Base 1.1.0
 (optional=templinst)_ZN5QListI7QStringE18detach_helper_growEii@Base 1.1.0
 (optional=templinst)_ZN5QListI7QStringE6appendERKS0_@Base 1.1.0
 (optional=templinst)_ZN5QListI7QStringED1Ev@Base 1.1.0
 (optional=templinst)_ZN5QListI7QStringED2Ev@Base 1.1.0
 (optional=templinst)_ZN5QListI7QStringEixEi@Base 1.1.0
 (optional=templinst)_ZN5QListIP15QTreeWidgetItemED1Ev@Base 1.1.0
 (optional=templinst)_ZN5QListIP15QTreeWidgetItemED2Ev@Base 1.1.0
 (optional=templinst)_ZN5QListIP7QActionE13detach_helperEv@Base 1.1.0
 (optional=templinst)_ZN5QListIP7QActionED1Ev@Base 1.1.0
 (optional=templinst)_ZN5QListIP7QActionED2Ev@Base 1.1.0
 (optional=templinst)_ZN5QListIiE13detach_helperEi@Base 1.1.0
 (optional=templinst)_ZN5QListIiE18detach_helper_growEii@Base 1.1.0
 (optional=templinst)_ZN5QListIiE6appendERKi@Base 1.1.0
 (optional=templinst)_ZN5QListIiED1Ev@Base 1.1.0
 (optional=templinst)_ZN5QListIiED2Ev@Base 1.1.0
 (optional=templinst)_ZN5boost10scoped_ptrIN5cnoid11ItemManagerEED1Ev@Base 1.1.0
 (optional=templinst)_ZN5boost10scoped_ptrIN5cnoid11ItemManagerEED2Ev@Base 1.1.0
 (optional=templinst)_ZN5boost10scoped_ptrIN5cnoid25TimeSyncItemEngineManagerEED1Ev@Base 1.1.0
 (optional=templinst)_ZN5boost10scoped_ptrIN5cnoid25TimeSyncItemEngineManagerEED2Ev@Base 1.1.0
 (optional=templinst)_ZN5boost10shared_ptrIN5cnoid10YamlReaderEED1Ev@Base 1.1.0
 (optional=templinst)_ZN5boost10shared_ptrIN5cnoid10YamlReaderEED2Ev@Base 1.1.0
 (optional=templinst)_ZN5boost10shared_ptrIN5cnoid11ItemManager16FileFunctionBaseEED1Ev@Base 1.1.0
 (optional=templinst)_ZN5boost10shared_ptrIN5cnoid11ItemManager16FileFunctionBaseEED2Ev@Base 1.1.0
 (optional=templinst)_ZN5boost10shared_ptrIN5cnoid11ItemManager16FileFunctionBaseEEaSERKS4_@Base 1.1.0
 (optional=templinst)_ZN5boost10shared_ptrIN5cnoid12MultiSeqBaseEED1Ev@Base 1.1.0
 (optional=templinst)_ZN5boost10shared_ptrIN5cnoid12MultiSeqBaseEED2Ev@Base 1.1.0
 (optional=templinst)_ZN5boost10shared_ptrIN5cnoid15ItemManagerImpl5SaverEED1Ev@Base 1.1.0
 (optional=templinst)_ZN5boost10shared_ptrIN5cnoid15ItemManagerImpl5SaverEED2Ev@Base 1.1.0
 (optional=templinst)_ZN5boost10shared_ptrIN5cnoid15ItemManagerImpl5SaverEEaSERKS4_@Base 1.1.0
 (optional=templinst)_ZN5boost10shared_ptrIN5cnoid15ItemManagerImpl6LoaderEED1Ev@Base 1.1.0
 (optional=templinst)_ZN5boost10shared_ptrIN5cnoid15ItemManagerImpl6LoaderEED2Ev@Base 1.1.0
 (optional=templinst)_ZN5boost10shared_ptrIN5cnoid15ItemManagerImpl6LoaderEEaSERKS4_@Base 1.1.0
 (optional=templinst)_ZN5boost10shared_ptrIN5cnoid15ItemManagerImpl9ClassInfoEED1Ev@Base 1.1.0
 (optional=templinst)_ZN5boost10shared_ptrIN5cnoid15ItemManagerImpl9ClassInfoEED2Ev@Base 1.1.0
 (optional=templinst)_ZN5boost10shared_ptrIN5cnoid16GraphDataHandlerEED1Ev@Base 1.1.0
 (optional=templinst)_ZN5boost10shared_ptrIN5cnoid16GraphDataHandlerEED2Ev@Base 1.1.0
 (optional=templinst)_ZN5boost10shared_ptrIN5cnoid17PluginManagerImpl10PluginInfoEED1Ev@Base 1.1.0
 (optional=templinst)_ZN5boost10shared_ptrIN5cnoid17PluginManagerImpl10PluginInfoEED2Ev@Base 1.1.0
 (optional=templinst)_ZN5boost10shared_ptrIN5cnoid17PluginManagerImpl10PluginInfoEEaSERKS4_@Base 1.1.0
 (optional=templinst)_ZN5boost10shared_ptrINS_11filesystem222basic_filesystem_errorINS1_10basic_pathISsNS1_11path_traitsEEEE5m_impEE5resetEv@Base 1.1.0
 (optional=templinst)_ZN5boost10shared_ptrINS_11filesystem222basic_filesystem_errorINS1_10basic_pathISsNS1_11path_traitsEEEE5m_impEE5resetIS7_EEvPT_@Base 1.1.0
 (optional=templinst)_ZN5boost10shared_ptrINS_11filesystem222basic_filesystem_errorINS1_10basic_pathISsNS1_11path_traitsEEEE5m_impEED1Ev@Base 1.1.0
 (optional=templinst)_ZN5boost10shared_ptrINS_11filesystem222basic_filesystem_errorINS1_10basic_pathISsNS1_11path_traitsEEEE5m_impEED2Ev@Base 1.1.0
 (optional=templinst)_ZN5boost10shared_ptrINS_11filesystem26detail11dir_itr_impINS1_10basic_pathISsNS1_11path_traitsEEEEEE5resetEv@Base 1.1.0
 (optional=templinst)_ZN5boost10shared_ptrINS_11filesystem26detail11dir_itr_impINS1_10basic_pathISsNS1_11path_traitsEEEEEED1Ev@Base 1.1.0
 (optional=templinst)_ZN5boost10shared_ptrINS_11filesystem26detail11dir_itr_impINS1_10basic_pathISsNS1_11path_traitsEEEEEED2Ev@Base 1.1.0
 (optional=templinst)_ZN5boost10shared_ptrINS_7signals6detail9slot_base6data_tEE5resetIS4_EEvPT_@Base 1.1.0
 (optional=templinst)_ZN5boost10shared_ptrIvED1Ev@Base 1.1.0
 (optional=templinst)_ZN5boost10shared_ptrIvED2Ev@Base 1.1.0
 (optional=templinst)_ZN5boost11filesystem210basic_pathISsNS0_11path_traitsEE15remove_filenameEv@Base 1.1.0
 (optional=templinst)_ZN5boost11filesystem210basic_pathISsNS0_11path_traitsEE28m_append_separator_if_neededEv@Base 1.1.0
 (optional=templinst)_ZN5boost11filesystem210basic_pathISsNS0_11path_traitsEE8iteratorD1Ev@Base 1.1.0
 (optional=templinst)_ZN5boost11filesystem210basic_pathISsNS0_11path_traitsEE8iteratorD2Ev@Base 1.1.0
 (optional=templinst)_ZN5boost11filesystem210basic_pathISsNS0_11path_traitsEEC1ERKSs@Base 1.1.0
 (optional=templinst)_ZN5boost11filesystem210basic_pathISsNS0_11path_traitsEEC2ERKSs@Base 1.1.0
 (optional=templinst)_ZN5boost11filesystem210basic_pathISsNS0_11path_traitsEED1Ev@Base 1.1.0
 (optional=templinst)_ZN5boost11filesystem210basic_pathISsNS0_11path_traitsEED2Ev@Base 1.1.0
 (optional=templinst)_ZN5boost11filesystem210basic_pathISsNS0_11path_traitsEEdVEPKc@Base 1.1.0
 (optional=templinst)_ZN5boost11filesystem212current_pathINS0_10basic_pathISsNS0_11path_traitsEEEEET_v@Base 1.1.0
 (optional=templinst)_ZN5boost11filesystem212initial_pathINS0_10basic_pathISsNS0_11path_traitsEEEEERKT_v@Base 1.1.0
 (optional=templinst)_ZN5boost11filesystem212is_directoryINS0_10basic_pathISsNS0_11path_traitsEEEEENS_9enable_ifINS0_13is_basic_pathIT_EEbE4typeERKS7_@Base 1.1.0
 (optional=templinst)_ZN5boost11filesystem215last_write_timeINS0_10basic_pathISsNS0_11path_traitsEEEEENS_9enable_ifINS0_13is_basic_pathIT_EElE4typeERKS7_@Base 1.1.0
 (optional=templinst)_ZN5boost11filesystem216create_directoryINS0_10basic_pathISsNS0_11path_traitsEEEEENS_9enable_ifINS0_13is_basic_pathIT_EEbE4typeERKS7_@Base 1.1.0
 (optional=templinst)_ZN5boost11filesystem218create_directoriesINS0_10basic_pathISsNS0_11path_traitsEEEEENS_9enable_ifINS0_13is_basic_pathIT_EEbE4typeERKS7_@Base 1.1.0
 (optional=templinst)_ZN5boost11filesystem221basic_directory_entryINS0_10basic_pathISsNS0_11path_traitsEEEE6assignERKS4_NS0_11file_statusES8_@Base 1.1.0
 (optional=templinst)_ZN5boost11filesystem221basic_directory_entryINS0_10basic_pathISsNS0_11path_traitsEEEED1Ev@Base 1.1.0
 (optional=templinst)_ZN5boost11filesystem221basic_directory_entryINS0_10basic_pathISsNS0_11path_traitsEEEED2Ev@Base 1.1.0
 (optional=templinst)_ZN5boost11filesystem222basic_filesystem_errorINS0_10basic_pathISsNS0_11path_traitsEEEE5m_impD1Ev@Base 1.1.0
 (optional=templinst)_ZN5boost11filesystem222basic_filesystem_errorINS0_10basic_pathISsNS0_11path_traitsEEEE5m_impD2Ev@Base 1.1.0
 (optional=templinst)_ZN5boost11filesystem222basic_filesystem_errorINS0_10basic_pathISsNS0_11path_traitsEEEEC1ERKSsNS_6system10error_codeE@Base 1.1.0
 (optional=templinst)_ZN5boost11filesystem222basic_filesystem_errorINS0_10basic_pathISsNS0_11path_traitsEEEEC1ERKSsRKS4_NS_6system10error_codeE@Base 1.1.0
 (optional=templinst)_ZN5boost11filesystem222basic_filesystem_errorINS0_10basic_pathISsNS0_11path_traitsEEEEC2ERKSsNS_6system10error_codeE@Base 1.1.0
 (optional=templinst)_ZN5boost11filesystem222basic_filesystem_errorINS0_10basic_pathISsNS0_11path_traitsEEEEC2ERKSsRKS4_NS_6system10error_codeE@Base 1.1.0
 (optional=templinst)_ZN5boost11filesystem222basic_filesystem_errorINS0_10basic_pathISsNS0_11path_traitsEEEED0Ev@Base 1.1.0
 (optional=templinst)_ZN5boost11filesystem222basic_filesystem_errorINS0_10basic_pathISsNS0_11path_traitsEEEED1Ev@Base 1.1.0
 (optional=templinst)_ZN5boost11filesystem222basic_filesystem_errorINS0_10basic_pathISsNS0_11path_traitsEEEED2Ev@Base 1.1.0
 (optional=templinst)_ZN5boost11filesystem224basic_directory_iteratorINS0_10basic_pathISsNS0_11path_traitsEEEE6m_initERKS4_@Base 1.1.0
 (optional=templinst)_ZN5boost11filesystem224basic_directory_iteratorINS0_10basic_pathISsNS0_11path_traitsEEEE9incrementEv@Base 1.1.0
 (optional=templinst)_ZN5boost11filesystem224basic_directory_iteratorINS0_10basic_pathISsNS0_11path_traitsEEEEC1ERKS4_@Base 1.1.0
 (optional=templinst)_ZN5boost11filesystem224basic_directory_iteratorINS0_10basic_pathISsNS0_11path_traitsEEEEC2ERKS4_@Base 1.1.0
 (optional=templinst)_ZN5boost11filesystem224basic_directory_iteratorINS0_10basic_pathISsNS0_11path_traitsEEEED1Ev@Base 1.1.0
 (optional=templinst)_ZN5boost11filesystem224basic_directory_iteratorINS0_10basic_pathISsNS0_11path_traitsEEEED2Ev@Base 1.1.0
 (optional=templinst)_ZN5boost11filesystem26detail11dir_itr_impINS0_10basic_pathISsNS0_11path_traitsEEEED1Ev@Base 1.1.0
 (optional=templinst)_ZN5boost11filesystem26detail11dir_itr_impINS0_10basic_pathISsNS0_11path_traitsEEEED2Ev@Base 1.1.0
 (optional=templinst)_ZN5boost11filesystem26detail12filename_posISsNS0_11path_traitsEEENT_9size_typeERKS4_S5_@Base 1.1.0
 (optional=templinst)_ZN5boost11filesystem26detail17is_non_root_slashISsNS0_11path_traitsEEEbRKT_NS4_9size_typeE@Base 1.1.0
 (optional=templinst)_ZN5boost11filesystem26detail20root_directory_startISsNS0_11path_traitsEEENT_9size_typeERKS4_S5_@Base 1.1.0
 _ZN5boost11filesystem26detail4whatEPKcRKNS0_10basic_pathISsNS0_11path_traitsEEES8_RSs@Base 1.1.0
 (optional=templinst)_ZN5boost11filesystem26existsINS0_10basic_pathISsNS0_11path_traitsEEEEENS_9enable_ifINS0_13is_basic_pathIT_EEbE4typeERKS7_@Base 1.1.0
 (optional=templinst)_ZN5boost11filesystem26statusINS0_10basic_pathISsNS0_11path_traitsEEEEENS_9enable_ifINS0_13is_basic_pathIT_EENS0_11file_statusEE4typeERKS7_@Base 1.1.0
 (optional=templinst)_ZN5boost11filesystem28basenameINS0_10basic_pathISsNS0_11path_traitsEEEEENS_9enable_ifINS0_13is_basic_pathIT_EENS7_11string_typeEE4typeERKS7_@Base 1.1.0
 (optional=templinst)_ZN5boost11filesystem28completeINS0_10basic_pathISsNS0_11path_traitsEEEEENS_9enable_ifINS0_13is_basic_pathIT_EES7_E4typeERKS7_SC_@Base 1.1.0
 (optional=templinst)_ZN5boost11filesystem29extensionINS0_10basic_pathISsNS0_11path_traitsEEEEENS_9enable_ifINS0_13is_basic_pathIT_EENS7_11string_typeEE4typeERKS7_@Base 1.1.0
 (optional=templinst)_ZN5boost11filesystem2dvISsNS0_11path_traitsEEENS0_10basic_pathIT_T0_EERKS6_RKS4_@Base 1.1.0
 _ZN5boost12bad_any_castD0Ev@Base 1.1.0
 _ZN5boost12bad_any_castD1Ev@Base 1.1.0
 _ZN5boost12bad_any_castD2Ev@Base 1.1.0
 (optional=templinst)_ZN5boost12basic_formatIcSt11char_traitsIcESaIcEE18make_or_reuse_dataEm@Base 1.1.0
 (optional=templinst)_ZN5boost12basic_formatIcSt11char_traitsIcESaIcEE5clearEv@Base 1.1.0
 (optional=templinst)_ZN5boost12basic_formatIcSt11char_traitsIcESaIcEE5parseERKSs@Base 1.1.0
 (optional=templinst)_ZN5boost12basic_formatIcSt11char_traitsIcESaIcEEC1EPKc@Base 1.1.0
 (optional=templinst)_ZN5boost12basic_formatIcSt11char_traitsIcESaIcEEC2EPKc@Base 1.1.0
 (optional=templinst)_ZN5boost12basic_formatIcSt11char_traitsIcESaIcEED1Ev@Base 1.1.0
 (optional=templinst)_ZN5boost12basic_formatIcSt11char_traitsIcESaIcEED2Ev@Base 1.1.0
 (optional=templinst)_ZN5boost13intrusive_ptrIN5cnoid10ReferencedEED1Ev@Base 1.1.0
 (optional=templinst)_ZN5boost13intrusive_ptrIN5cnoid10ReferencedEED2Ev@Base 1.1.0
 (optional=templinst)_ZN5boost13intrusive_ptrIN5cnoid11YamlMappingEED1Ev@Base 1.1.0
 (optional=templinst)_ZN5boost13intrusive_ptrIN5cnoid11YamlMappingEED2Ev@Base 1.1.0
 (optional=templinst)_ZN5boost13intrusive_ptrIN5cnoid12VrmlMaterialEED1Ev@Base 1.1.0
 (optional=templinst)_ZN5boost13intrusive_ptrIN5cnoid12VrmlMaterialEED2Ev@Base 1.1.0
 (optional=templinst)_ZN5boost13intrusive_ptrIN5cnoid12YamlSequenceEED1Ev@Base 1.1.0
 (optional=templinst)_ZN5boost13intrusive_ptrIN5cnoid12YamlSequenceEED2Ev@Base 1.1.0
 (optional=templinst)_ZN5boost13intrusive_ptrIN5cnoid18TimeSyncItemEngineEED1Ev@Base 1.1.0
 (optional=templinst)_ZN5boost13intrusive_ptrIN5cnoid18TimeSyncItemEngineEED2Ev@Base 1.1.0
 (optional=templinst)_ZN5boost13intrusive_ptrIN5cnoid4ItemEED1Ev@Base 1.1.0
 (optional=templinst)_ZN5boost13intrusive_ptrIN5cnoid4ItemEED2Ev@Base 1.1.0
 (optional=templinst)_ZN5boost13intrusive_ptrIN5cnoid4ItemEEaSEPS2_@Base 1.1.0
 (optional=templinst)_ZN5boost13intrusive_ptrIN5cnoid4ItemEEaSERKS3_@Base 1.1.0
 (optional=templinst)_ZN5boost13intrusive_ptrIN5cnoid4ItemEEaSINS1_8RootItemEEERS3_RKNS0_IT_EE@Base 1.1.0
 (optional=templinst)_ZN5boost13intrusive_ptrIN5cnoid7ArchiveEED1Ev@Base 1.1.0
 (optional=templinst)_ZN5boost13intrusive_ptrIN5cnoid7ArchiveEED2Ev@Base 1.1.0
 (optional=templinst)_ZN5boost13intrusive_ptrIN5cnoid8RootItemEED1Ev@Base 1.1.0
 (optional=templinst)_ZN5boost13intrusive_ptrIN5cnoid8RootItemEED2Ev@Base 1.1.0
 (optional=templinst)_ZN5boost13intrusive_ptrIN5cnoid8YamlNodeEED1Ev@Base 1.1.0
 (optional=templinst)_ZN5boost13intrusive_ptrIN5cnoid8YamlNodeEED2Ev@Base 1.1.0
 (optional=templinst)_ZN5boost13intrusive_ptrIN5cnoid9SceneItemEED1Ev@Base 1.1.0
 (optional=templinst)_ZN5boost13intrusive_ptrIN5cnoid9SceneItemEED2Ev@Base 1.1.0
 (optional=templinst)_ZN5boost14char_separatorIcSt11char_traitsIcEEC1ERKS3_@Base 1.1.0
 (optional=templinst)_ZN5boost14char_separatorIcSt11char_traitsIcEEC2ERKS3_@Base 1.1.0
 (optional=templinst)_ZN5boost14char_separatorIcSt11char_traitsIcEED1Ev@Base 1.1.0
 (optional=templinst)_ZN5boost14char_separatorIcSt11char_traitsIcEED2Ev@Base 1.1.0
 (optional=templinst)_ZN5boost14char_separatorIcSt11char_traitsIcEEclIN9__gnu_cxx17__normal_iteratorIPKcSsEESsEEbRT_SA_RT0_@Base 1.1.0
 (optional=templinst)_ZN5boost14checked_deleteIN5cnoid10YamlReaderEEEvPT_@Base 1.1.0
 (optional=templinst)_ZN5boost14checked_deleteIN5cnoid15ItemManagerImpl5SaverEEEvPT_@Base 1.1.0
 (optional=templinst)_ZN5boost14checked_deleteIN5cnoid15ItemManagerImpl9ClassInfoEEEvPT_@Base 1.1.0
 (optional=templinst)_ZN5boost14checked_deleteIN5cnoid17PluginManagerImpl10PluginInfoEEEvPT_@Base 1.1.0
 (optional=templinst)_ZN5boost14checked_deleteINS_11filesystem222basic_filesystem_errorINS1_10basic_pathISsNS1_11path_traitsEEEE5m_impEEEvPT_@Base 1.1.0
 (optional=templinst)_ZN5boost14checked_deleteINS_11filesystem26detail11dir_itr_impINS1_10basic_pathISsNS1_11path_traitsEEEEEEEvPT_@Base 1.1.0
 (optional=templinst)_ZN5boost14checked_deleteINS_7signals6detail9slot_base6data_tEEEvPT_@Base 1.1.0
 (optional=templinst)_ZN5boost14dynamic_bitsetImSaImEED1Ev@Base 1.1.0
 (optional=templinst)_ZN5boost14dynamic_bitsetImSaImEED2Ev@Base 1.1.0
 (optional=templinst)_ZN5boost14token_iteratorINS_14char_separatorIcSt11char_traitsIcEEEN9__gnu_cxx17__normal_iteratorIPKcSsEESsEC1ES4_S9_S9_@Base 1.1.0
 (optional=templinst)_ZN5boost14token_iteratorINS_14char_separatorIcSt11char_traitsIcEEEN9__gnu_cxx17__normal_iteratorIPKcSsEESsEC2ES4_S9_S9_@Base 1.1.0
 (optional=templinst)_ZN5boost14token_iteratorINS_14char_separatorIcSt11char_traitsIcEEEN9__gnu_cxx17__normal_iteratorIPKcSsEESsED1Ev@Base 1.1.0
 (optional=templinst)_ZN5boost14token_iteratorINS_14char_separatorIcSt11char_traitsIcEEEN9__gnu_cxx17__normal_iteratorIPKcSsEESsED2Ev@Base 1.1.0
 (optional=templinst)_ZN5boost14token_iteratorINS_22escaped_list_separatorIcSt11char_traitsIcEEEN9__gnu_cxx17__normal_iteratorIPKcSsEESsED1Ev@Base 1.1.0
 (optional=templinst)_ZN5boost14token_iteratorINS_22escaped_list_separatorIcSt11char_traitsIcEEEN9__gnu_cxx17__normal_iteratorIPKcSsEESsED2Ev@Base 1.1.0
 (optional=templinst)_ZN5boost15program_options11typed_valueISt6vectorISsSaISsEEcED0Ev@Base 1.1.0
 (optional=templinst)_ZN5boost15program_options11typed_valueISt6vectorISsSaISsEEcED1Ev@Base 1.1.0
 (optional=templinst)_ZN5boost15program_options11typed_valueISt6vectorISsSaISsEEcED2Ev@Base 1.1.0
 _ZN5boost15program_options14value_semanticD0Ev@Base 1.1.0
 _ZN5boost15program_options14value_semanticD1Ev@Base 1.1.0
 _ZN5boost15program_options14value_semanticD2Ev@Base 1.1.0
 _ZN5boost15program_options16typed_value_baseD0Ev@Base 1.1.0
 _ZN5boost15program_options16typed_value_baseD1Ev@Base 1.1.0
 _ZN5boost15program_options16typed_value_baseD2Ev@Base 1.1.0
 _ZN5boost15program_options16validation_errorC1ERKS1_@Base 1.1.0
 _ZN5boost15program_options16validation_errorC2ERKS1_@Base 1.1.0
 _ZN5boost15program_options16validation_errorD0Ev@Base 1.1.0
 _ZN5boost15program_options16validation_errorD1Ev@Base 1.1.0
 _ZN5boost15program_options16validation_errorD2Ev@Base 1.1.0
 _ZN5boost15program_options19options_descriptionD1Ev@Base 1.1.0
 _ZN5boost15program_options19options_descriptionD2Ev@Base 1.1.0
 _ZN5boost15program_options20invalid_option_valueD0Ev@Base 1.1.0
 _ZN5boost15program_options20invalid_option_valueD1Ev@Base 1.1.0
 _ZN5boost15program_options20invalid_option_valueD2Ev@Base 1.1.0
 _ZN5boost15program_options22abstract_variables_mapD0Ev@Base 1.1.0
 _ZN5boost15program_options22abstract_variables_mapD1Ev@Base 1.1.0
 _ZN5boost15program_options22abstract_variables_mapD2Ev@Base 1.1.0
 (optional=templinst)_ZN5boost15program_options25basic_command_line_parserIcE3runEv@Base 1.1.0
 (optional=templinst)_ZN5boost15program_options25basic_command_line_parserIcEC1EiPKPKc@Base 1.1.0
 (optional=templinst)_ZN5boost15program_options25basic_command_line_parserIcEC2EiPKPKc@Base 1.1.0
 _ZN5boost15program_options30positional_options_descriptionD1Ev@Base 1.1.0
 _ZN5boost15program_options30positional_options_descriptionD2Ev@Base 1.1.0
 _ZN5boost15program_options5errorD0Ev@Base 1.1.0
 _ZN5boost15program_options5errorD1Ev@Base 1.1.0
 _ZN5boost15program_options5errorD2Ev@Base 1.1.0
 _ZN5boost15program_options6detail7cmdlineD1Ev@Base 1.1.0
 _ZN5boost15program_options6detail7cmdlineD2Ev@Base 1.1.0
 (optional=templinst)_ZN5boost15program_options8validateISscEEvRNS_3anyERKSt6vectorISbIT0_St11char_traitsIS5_ESaIS5_EESaIS9_EEPS4_IT_SaISE_EEi@Base 1.1.0
 (optional=templinst)_ZN5boost15throw_exceptionINS_11filesystem222basic_filesystem_errorINS1_10basic_pathISsNS1_11path_traitsEEEEEEEvRKT_@Base 1.1.0
 (optional=templinst)_ZN5boost15throw_exceptionINS_15program_options20invalid_option_valueEEEvRKT_@Base 1.1.0
 (optional=templinst)_ZN5boost15throw_exceptionINS_17bad_function_callEEEvRKT_@Base 1.1.0
 (optional=templinst)_ZN5boost15throw_exceptionINS_2io12too_few_argsEEEvRKT_@Base 1.1.0
 (optional=templinst)_ZN5boost15throw_exceptionINS_2io13too_many_argsEEEvRKT_@Base 1.1.0
 (optional=templinst)_ZN5boost15throw_exceptionINS_2io17bad_format_stringEEEvRKT_@Base 1.1.0
 (optional=templinst)_ZN5boost15throw_exceptionINSt8ios_base7failureEEEvRKT_@Base 1.1.0
 (optional=templinst)_ZN5boost16base_from_memberINS_10shared_ptrINS_2io18basic_altstringbufIcSt11char_traitsIcESaIcEEEEELi0EED1Ev@Base 1.1.0
 (optional=templinst)_ZN5boost16base_from_memberINS_10shared_ptrINS_2io18basic_altstringbufIcSt11char_traitsIcESaIcEEEEELi0EED2Ev@Base 1.1.0
 _ZN5boost16exception_detail10clone_baseD0Ev@Base 1.1.0
 _ZN5boost16exception_detail10clone_baseD1Ev@Base 1.1.0
 _ZN5boost16exception_detail10clone_baseD2Ev@Base 1.1.0
 (optional=templinst)_ZN5boost16exception_detail10clone_implINS0_19error_info_injectorINS_11filesystem222basic_filesystem_errorINS3_10basic_pathISsNS3_11path_traitsEEEEEEEED0Ev@Base 1.1.0
 (optional=templinst)_ZN5boost16exception_detail10clone_implINS0_19error_info_injectorINS_11filesystem222basic_filesystem_errorINS3_10basic_pathISsNS3_11path_traitsEEEEEEEED1Ev@Base 1.1.0
 (optional=templinst)_ZN5boost16exception_detail10clone_implINS0_19error_info_injectorINS_11filesystem222basic_filesystem_errorINS3_10basic_pathISsNS3_11path_traitsEEEEEEEED2Ev@Base 1.1.0
 (optional=templinst)_ZN5boost16exception_detail10clone_implINS0_19error_info_injectorINS_12bad_any_castEEEEC1ERKS4_@Base 1.1.0
 (optional=templinst)_ZN5boost16exception_detail10clone_implINS0_19error_info_injectorINS_12bad_any_castEEEEC2ERKS4_@Base 1.1.0
 (optional=templinst)_ZN5boost16exception_detail10clone_implINS0_19error_info_injectorINS_12bad_any_castEEEED0Ev@Base 1.1.0
 (optional=templinst)_ZN5boost16exception_detail10clone_implINS0_19error_info_injectorINS_12bad_any_castEEEED1Ev@Base 1.1.0
 (optional=templinst)_ZN5boost16exception_detail10clone_implINS0_19error_info_injectorINS_12bad_any_castEEEED2Ev@Base 1.1.0
 (optional=templinst)_ZN5boost16exception_detail10clone_implINS0_19error_info_injectorINS_15program_options20invalid_option_valueEEEED0Ev@Base 1.1.0
 (optional=templinst)_ZN5boost16exception_detail10clone_implINS0_19error_info_injectorINS_15program_options20invalid_option_valueEEEED1Ev@Base 1.1.0
 (optional=templinst)_ZN5boost16exception_detail10clone_implINS0_19error_info_injectorINS_15program_options20invalid_option_valueEEEED2Ev@Base 1.1.0
 (optional=templinst)_ZN5boost16exception_detail10clone_implINS0_19error_info_injectorINS_17bad_function_callEEEED0Ev@Base 1.1.0
 (optional=templinst)_ZN5boost16exception_detail10clone_implINS0_19error_info_injectorINS_17bad_function_callEEEED1Ev@Base 1.1.0
 (optional=templinst)_ZN5boost16exception_detail10clone_implINS0_19error_info_injectorINS_17bad_function_callEEEED2Ev@Base 1.1.0
 (optional=templinst)_ZN5boost16exception_detail10clone_implINS0_19error_info_injectorINS_2io12too_few_argsEEEED0Ev@Base 1.1.0
 (optional=templinst)_ZN5boost16exception_detail10clone_implINS0_19error_info_injectorINS_2io12too_few_argsEEEED1Ev@Base 1.1.0
 (optional=templinst)_ZN5boost16exception_detail10clone_implINS0_19error_info_injectorINS_2io12too_few_argsEEEED2Ev@Base 1.1.0
 (optional=templinst)_ZN5boost16exception_detail10clone_implINS0_19error_info_injectorINS_2io13too_many_argsEEEED0Ev@Base 1.1.0
 (optional=templinst)_ZN5boost16exception_detail10clone_implINS0_19error_info_injectorINS_2io13too_many_argsEEEED1Ev@Base 1.1.0
 (optional=templinst)_ZN5boost16exception_detail10clone_implINS0_19error_info_injectorINS_2io13too_many_argsEEEED2Ev@Base 1.1.0
 (optional=templinst)_ZN5boost16exception_detail10clone_implINS0_19error_info_injectorINS_2io17bad_format_stringEEEED0Ev@Base 1.1.0
 (optional=templinst)_ZN5boost16exception_detail10clone_implINS0_19error_info_injectorINS_2io17bad_format_stringEEEED1Ev@Base 1.1.0
 (optional=templinst)_ZN5boost16exception_detail10clone_implINS0_19error_info_injectorINS_2io17bad_format_stringEEEED2Ev@Base 1.1.0
 (optional=templinst)_ZN5boost16exception_detail10clone_implINS0_19error_info_injectorINSt8ios_base7failureEEEED0Ev@Base 1.1.0
 (optional=templinst)_ZN5boost16exception_detail10clone_implINS0_19error_info_injectorINSt8ios_base7failureEEEED1Ev@Base 1.1.0
 (optional=templinst)_ZN5boost16exception_detail10clone_implINS0_19error_info_injectorINSt8ios_base7failureEEEED2Ev@Base 1.1.0
 (optional=templinst)_ZN5boost16exception_detail12refcount_ptrINS0_20error_info_containerEE7releaseEv@Base 1.1.0
 (optional=templinst)_ZN5boost16exception_detail19error_info_injectorINS_11filesystem222basic_filesystem_errorINS2_10basic_pathISsNS2_11path_traitsEEEEEEC1ERKS8_@Base 1.1.0
 (optional=templinst)_ZN5boost16exception_detail19error_info_injectorINS_11filesystem222basic_filesystem_errorINS2_10basic_pathISsNS2_11path_traitsEEEEEEC2ERKS8_@Base 1.1.0
 (optional=templinst)_ZN5boost16exception_detail19error_info_injectorINS_11filesystem222basic_filesystem_errorINS2_10basic_pathISsNS2_11path_traitsEEEEEED0Ev@Base 1.1.0
 (optional=templinst)_ZN5boost16exception_detail19error_info_injectorINS_11filesystem222basic_filesystem_errorINS2_10basic_pathISsNS2_11path_traitsEEEEEED1Ev@Base 1.1.0
 (optional=templinst)_ZN5boost16exception_detail19error_info_injectorINS_11filesystem222basic_filesystem_errorINS2_10basic_pathISsNS2_11path_traitsEEEEEED2Ev@Base 1.1.0
 (optional=templinst)_ZN5boost16exception_detail19error_info_injectorINS_12bad_any_castEED0Ev@Base 1.1.0
 (optional=templinst)_ZN5boost16exception_detail19error_info_injectorINS_12bad_any_castEED1Ev@Base 1.1.0
 (optional=templinst)_ZN5boost16exception_detail19error_info_injectorINS_12bad_any_castEED2Ev@Base 1.1.0
 (optional=templinst)_ZN5boost16exception_detail19error_info_injectorINS_15program_options20invalid_option_valueEEC1ERKS4_@Base 1.1.0
 (optional=templinst)_ZN5boost16exception_detail19error_info_injectorINS_15program_options20invalid_option_valueEEC2ERKS4_@Base 1.1.0
 (optional=templinst)_ZN5boost16exception_detail19error_info_injectorINS_15program_options20invalid_option_valueEED0Ev@Base 1.1.0
 (optional=templinst)_ZN5boost16exception_detail19error_info_injectorINS_15program_options20invalid_option_valueEED1Ev@Base 1.1.0
 (optional=templinst)_ZN5boost16exception_detail19error_info_injectorINS_15program_options20invalid_option_valueEED2Ev@Base 1.1.0
 (optional=templinst)_ZN5boost16exception_detail19error_info_injectorINS_17bad_function_callEEC1ERKS3_@Base 1.1.0
 (optional=templinst)_ZN5boost16exception_detail19error_info_injectorINS_17bad_function_callEEC2ERKS3_@Base 1.1.0
 (optional=templinst)_ZN5boost16exception_detail19error_info_injectorINS_17bad_function_callEED0Ev@Base 1.1.0
 (optional=templinst)_ZN5boost16exception_detail19error_info_injectorINS_17bad_function_callEED1Ev@Base 1.1.0
 (optional=templinst)_ZN5boost16exception_detail19error_info_injectorINS_17bad_function_callEED2Ev@Base 1.1.0
 (optional=templinst)_ZN5boost16exception_detail19error_info_injectorINS_2io12too_few_argsEEC1ERKS4_@Base 1.1.0
 (optional=templinst)_ZN5boost16exception_detail19error_info_injectorINS_2io12too_few_argsEEC2ERKS4_@Base 1.1.0
 (optional=templinst)_ZN5boost16exception_detail19error_info_injectorINS_2io12too_few_argsEED0Ev@Base 1.1.0
 (optional=templinst)_ZN5boost16exception_detail19error_info_injectorINS_2io12too_few_argsEED1Ev@Base 1.1.0
 (optional=templinst)_ZN5boost16exception_detail19error_info_injectorINS_2io12too_few_argsEED2Ev@Base 1.1.0
 (optional=templinst)_ZN5boost16exception_detail19error_info_injectorINS_2io13too_many_argsEEC1ERKS4_@Base 1.1.0
 (optional=templinst)_ZN5boost16exception_detail19error_info_injectorINS_2io13too_many_argsEEC2ERKS4_@Base 1.1.0
 (optional=templinst)_ZN5boost16exception_detail19error_info_injectorINS_2io13too_many_argsEED0Ev@Base 1.1.0
 (optional=templinst)_ZN5boost16exception_detail19error_info_injectorINS_2io13too_many_argsEED1Ev@Base 1.1.0
 (optional=templinst)_ZN5boost16exception_detail19error_info_injectorINS_2io13too_many_argsEED2Ev@Base 1.1.0
 (optional=templinst)_ZN5boost16exception_detail19error_info_injectorINS_2io17bad_format_stringEEC1ERKS4_@Base 1.1.0
 (optional=templinst)_ZN5boost16exception_detail19error_info_injectorINS_2io17bad_format_stringEEC2ERKS4_@Base 1.1.0
 (optional=templinst)_ZN5boost16exception_detail19error_info_injectorINS_2io17bad_format_stringEED0Ev@Base 1.1.0
 (optional=templinst)_ZN5boost16exception_detail19error_info_injectorINS_2io17bad_format_stringEED1Ev@Base 1.1.0
 (optional=templinst)_ZN5boost16exception_detail19error_info_injectorINS_2io17bad_format_stringEED2Ev@Base 1.1.0
 (optional=templinst)_ZN5boost16exception_detail19error_info_injectorINSt8ios_base7failureEEC1ERKS4_@Base 1.1.0
 (optional=templinst)_ZN5boost16exception_detail19error_info_injectorINSt8ios_base7failureEEC2ERKS4_@Base 1.1.0
 (optional=templinst)_ZN5boost16exception_detail19error_info_injectorINSt8ios_base7failureEED0Ev@Base 1.1.0
 (optional=templinst)_ZN5boost16exception_detail19error_info_injectorINSt8ios_base7failureEED1Ev@Base 1.1.0
 (optional=templinst)_ZN5boost16exception_detail19error_info_injectorINSt8ios_base7failureEED2Ev@Base 1.1.0
 _ZN5boost16exception_detail20copy_boost_exceptionEPNS_9exceptionEPKS1_@Base 1.1.0
 _ZN5boost17bad_function_callC1Ev@Base 1.1.0
 _ZN5boost17bad_function_callC2Ev@Base 1.1.0
 _ZN5boost17bad_function_callD0Ev@Base 1.1.0
 _ZN5boost17bad_function_callD1Ev@Base 1.1.0
 _ZN5boost17bad_function_callD2Ev@Base 1.1.0
 _ZN5boost18escaped_list_errorD0Ev@Base 1.1.0
 _ZN5boost18escaped_list_errorD1Ev@Base 1.1.0
 _ZN5boost18escaped_list_errorD2Ev@Base 1.1.0
 (optional=templinst)_ZN5boost18transform_iteratorINS_9algorithm6detail20copy_iterator_rangeFISsN9__gnu_cxx17__normal_iteratorIPKcSsEEEENS1_14split_iteratorIS8_EENS_11use_defaultESC_ED1Ev@Base 1.1.0
 (optional=templinst)_ZN5boost18transform_iteratorINS_9algorithm6detail20copy_iterator_rangeFISsN9__gnu_cxx17__normal_iteratorIPKcSsEEEENS1_14split_iteratorIS8_EENS_11use_defaultESC_ED2Ev@Base 1.1.0
 (optional=templinst)_ZN5boost20dynamic_pointer_castIN5cnoid12VrmlGeometryENS1_8VrmlNodeEEENS_13intrusive_ptrIT_EERKNS4_IT0_EE@Base 1.1.0
 (optional=templinst)_ZN5boost22escaped_list_separatorIcSt11char_traitsIcEED1Ev@Base 1.1.0
 (optional=templinst)_ZN5boost22escaped_list_separatorIcSt11char_traitsIcEED2Ev@Base 1.1.0
 (optional=templinst)_ZN5boost22escaped_list_separatorIcSt11char_traitsIcEEclIN9__gnu_cxx17__normal_iteratorIPKcSsEESsEEbRT_SA_RT0_@Base 1.1.0
 _ZN5boost2io12format_errorD0Ev@Base 1.1.0
 _ZN5boost2io12format_errorD1Ev@Base 1.1.0
 _ZN5boost2io12format_errorD2Ev@Base 1.1.0
 _ZN5boost2io12too_few_argsD0Ev@Base 1.1.0
 _ZN5boost2io12too_few_argsD1Ev@Base 1.1.0
 _ZN5boost2io12too_few_argsD2Ev@Base 1.1.0
 _ZN5boost2io13too_many_argsD0Ev@Base 1.1.0
 _ZN5boost2io13too_many_argsD1Ev@Base 1.1.0
 _ZN5boost2io13too_many_argsD2Ev@Base 1.1.0
 _ZN5boost2io17bad_format_stringD0Ev@Base 1.1.0
 _ZN5boost2io17bad_format_stringD1Ev@Base 1.1.0
 _ZN5boost2io17bad_format_stringD2Ev@Base 1.1.0
 (optional=templinst)_ZN5boost2io18basic_altstringbufIcSt11char_traitsIcESaIcEE12clear_bufferEv@Base 1.1.0
 (optional=templinst)_ZN5boost2io18basic_altstringbufIcSt11char_traitsIcESaIcEE7seekoffElSt12_Ios_SeekdirSt13_Ios_Openmode@Base 1.1.0
 (optional=templinst)_ZN5boost2io18basic_altstringbufIcSt11char_traitsIcESaIcEE7seekposESt4fposI11__mbstate_tESt13_Ios_Openmode@Base 1.1.0
 (optional=templinst)_ZN5boost2io18basic_altstringbufIcSt11char_traitsIcESaIcEE8overflowEi@Base 1.1.0
 (optional=templinst)_ZN5boost2io18basic_altstringbufIcSt11char_traitsIcESaIcEE9pbackfailEi@Base 1.1.0
 (optional=templinst)_ZN5boost2io18basic_altstringbufIcSt11char_traitsIcESaIcEE9underflowEv@Base 1.1.0
 (optional=templinst)_ZN5boost2io18basic_altstringbufIcSt11char_traitsIcESaIcEED0Ev@Base 1.1.0
 (optional=templinst)_ZN5boost2io18basic_altstringbufIcSt11char_traitsIcESaIcEED1Ev@Base 1.1.0
 (optional=templinst)_ZN5boost2io18basic_altstringbufIcSt11char_traitsIcESaIcEED2Ev@Base 1.1.0
 (optional=templinst)_ZN5boost2io22basic_oaltstringstreamIcSt11char_traitsIcESaIcEEC1EPNS0_18basic_altstringbufIcS3_S4_EE@Base 1.1.0
 (optional=templinst)_ZN5boost2io22basic_oaltstringstreamIcSt11char_traitsIcESaIcEED0Ev@Base 1.1.0
 (optional=templinst)_ZN5boost2io22basic_oaltstringstreamIcSt11char_traitsIcESaIcEED1Ev@Base 1.1.0
 (optional=templinst)_ZN5boost2io6detail10distributeIcSt11char_traitsIcESaIcERA37_KcEEvRNS_12basic_formatIT_T0_T1_EET2_@Base 1.1.0
 (optional=templinst)_ZN5boost2io6detail10distributeIcSt11char_traitsIcESaIcERKSsEEvRNS_12basic_formatIT_T0_T1_EET2_@Base 1.1.0
 (optional=templinst)_ZN5boost2io6detail10distributeIcSt11char_traitsIcESaIcERKdEEvRNS_12basic_formatIT_T0_T1_EET2_@Base 1.1.0
 (optional=templinst)_ZN5boost2io6detail10distributeIcSt11char_traitsIcESaIcERSsEEvRNS_12basic_formatIT_T0_T1_EET2_@Base 1.1.0
 (optional=templinst)_ZN5boost2io6detail10distributeIcSt11char_traitsIcESaIcERdEEvRNS_12basic_formatIT_T0_T1_EET2_@Base 1.1.0
 (optional=templinst)_ZN5boost2io6detail11format_itemIcSt11char_traitsIcESaIcEEC1ERKS6_@Base 1.1.0
 (optional=templinst)_ZN5boost2io6detail11format_itemIcSt11char_traitsIcESaIcEEC2ERKS6_@Base 1.1.0
 (optional=templinst)_ZN5boost2io6detail11format_itemIcSt11char_traitsIcESaIcEED1Ev@Base 1.1.0
 (optional=templinst)_ZN5boost2io6detail11format_itemIcSt11char_traitsIcESaIcEED2Ev@Base 1.1.0
 (optional=templinst)_ZN5boost2io6detail13skip_asteriskIN9__gnu_cxx17__normal_iteratorIPKcSsEESt5ctypeIcEEET_SA_SA_RKT0_@Base 1.1.0
 _ZN5boost2io6detail21maybe_throw_exceptionEhmm@Base 1.1.0
 (optional=templinst)_ZN5boost2io6detail22parse_printf_directiveIcSt11char_traitsIcESaIcEN9__gnu_cxx17__normal_iteratorIPKcSsEESt5ctypeIcEEEbRT2_RKSD_PNS1_11format_itemIT_T0_T1_EERKT3_mh@Base 1.1.0
 (optional=templinst)_ZN5boost2io6detail24upper_bound_from_fstringISsSt5ctypeIcEEEiRKT_NS5_10value_typeERKT0_h@Base 1.1.0
 (optional=templinst)_ZN5boost2io6detail3putIcSt11char_traitsIcESaIcERA37_KcEEvT2_RKNS1_11format_itemIT_T0_T1_EERNS_12basic_formatISB_SC_SD_E11string_typeERNSI_20internal_streambuf_tEPSt6locale@Base 1.1.0
 (optional=templinst)_ZN5boost2io6detail3putIcSt11char_traitsIcESaIcERKSsEEvT2_RKNS1_11format_itemIT_T0_T1_EERNS_12basic_formatISA_SB_SC_E11string_typeERNSH_20internal_streambuf_tEPSt6locale@Base 1.1.0
 (optional=templinst)_ZN5boost2io6detail3putIcSt11char_traitsIcESaIcERKdEEvT2_RKNS1_11format_itemIT_T0_T1_EERNS_12basic_formatISA_SB_SC_E11string_typeERNSH_20internal_streambuf_tEPSt6locale@Base 1.1.0
 (optional=templinst)_ZN5boost2io6detail3putIcSt11char_traitsIcESaIcERSsEEvT2_RKNS1_11format_itemIT_T0_T1_EERNS_12basic_formatIS9_SA_SB_E11string_typeERNSG_20internal_streambuf_tEPSt6locale@Base 1.1.0
 (optional=templinst)_ZN5boost2io6detail3putIcSt11char_traitsIcESaIcERdEEvT2_RKNS1_11format_itemIT_T0_T1_EERNS_12basic_formatIS9_SA_SB_E11string_typeERNSG_20internal_streambuf_tEPSt6locale@Base 1.1.0
 (optional=templinst)_ZN5boost2io6detail4feedIcSt11char_traitsIcESaIcERKSsEERNS_12basic_formatIT_T0_T1_EESD_T2_@Base 1.1.0
 (optional=templinst)_ZN5boost2io6detail4feedIcSt11char_traitsIcESaIcERKdEERNS_12basic_formatIT_T0_T1_EESD_T2_@Base 1.1.0
 (optional=templinst)_ZN5boost2io6detail4feedIcSt11char_traitsIcESaIcERSsEERNS_12basic_formatIT_T0_T1_EESC_T2_@Base 1.1.0
 (optional=templinst)_ZN5boost2io6detail4feedIcSt11char_traitsIcESaIcERdEERNS_12basic_formatIT_T0_T1_EESC_T2_@Base 1.1.0
 (optional=templinst)_ZN5boost2io6detail6mk_strIcSt11char_traitsIcESaIcEEEvRSbIT_T0_T1_EPKS6_NS9_9size_typeElS6_St13_Ios_FmtflagsS6_b@Base 1.1.0
 (optional=templinst)_ZN5boost2io6detail7str2intIiN9__gnu_cxx17__normal_iteratorIPKcSsEESt5ctypeIcEEET0_RKSA_SC_RT_RKT1_@Base 1.1.0
 (optional=templinst)_ZN5boost2io6detail7str2intIlN9__gnu_cxx17__normal_iteratorIPKcSsEESt5ctypeIcEEET0_RKSA_SC_RT_RKT1_@Base 1.1.0
 (optional=templinst)_ZN5boost3_bi5list1INS0_5valueINS_10shared_ptrIN5cnoid15ItemManagerImpl6LoaderEEEEEEC1ES8_@Base 1.1.0
 (optional=templinst)_ZN5boost3_bi5list1INS0_5valueINS_10shared_ptrIN5cnoid15ItemManagerImpl6LoaderEEEEEEC2ES8_@Base 1.1.0
 (optional=templinst)_ZN5boost3_bi5list1INS0_5valueINS_10shared_ptrIN5cnoid15ItemManagerImpl6LoaderEEEEEED1Ev@Base 1.1.0
 (optional=templinst)_ZN5boost3_bi5list1INS0_5valueINS_10shared_ptrIN5cnoid15ItemManagerImpl6LoaderEEEEEED2Ev@Base 1.1.0
 (optional=templinst)_ZN5boost3_bi5list2INS0_5valueIPN5cnoid15GraphWidgetImplEEENS2_INS_10shared_ptrINS3_16GraphDataHandlerEEEEEED1Ev@Base 1.1.0
 (optional=templinst)_ZN5boost3_bi5list2INS0_5valueIPN5cnoid15GraphWidgetImplEEENS2_INS_10shared_ptrINS3_16GraphDataHandlerEEEEEED2Ev@Base 1.1.0
 (optional=templinst)_ZN5boost3_bi6bind_tIvNS_4_mfi3mf1IvN5cnoid15GraphWidgetImplENS_10shared_ptrINS4_16GraphDataHandlerEEEEENS0_5list2INS0_5valueIPS5_EENSB_IS8_EEEEED1Ev@Base 1.1.0
 (optional=templinst)_ZN5boost3_bi6bind_tIvNS_4_mfi3mf1IvN5cnoid15GraphWidgetImplENS_10shared_ptrINS4_16GraphDataHandlerEEEEENS0_5list2INS0_5valueIPS5_EENSB_IS8_EEEEED2Ev@Base 1.1.0
 (optional=templinst)_ZN5boost3_bi6bind_tIvPFvNS_10shared_ptrIN5cnoid15ItemManagerImpl6LoaderEEEENS0_5list1INS0_5valueIS6_EEEEED1Ev@Base 1.1.0
 (optional=templinst)_ZN5boost3_bi6bind_tIvPFvNS_10shared_ptrIN5cnoid15ItemManagerImpl6LoaderEEEENS0_5list1INS0_5valueIS6_EEEEED2Ev@Base 1.1.0
 _ZN5boost3any11placeholderD0Ev@Base 1.1.0
 _ZN5boost3any11placeholderD1Ev@Base 1.1.0
 _ZN5boost3any11placeholderD2Ev@Base 1.1.0
 (optional=templinst)_ZN5boost3any6holderIN5cnoid7TimeBar10LogicalSumEED0Ev@Base 1.1.0
 (optional=templinst)_ZN5boost3any6holderIN5cnoid7TimeBar10LogicalSumEED1Ev@Base 1.1.0
 (optional=templinst)_ZN5boost3any6holderIN5cnoid7TimeBar10LogicalSumEED2Ev@Base 1.1.0
 (optional=templinst)_ZN5boost3any6holderIN5cnoid7TimeBar14LogicalProductEED0Ev@Base 1.1.0
 (optional=templinst)_ZN5boost3any6holderIN5cnoid7TimeBar14LogicalProductEED1Ev@Base 1.1.0
 (optional=templinst)_ZN5boost3any6holderIN5cnoid7TimeBar14LogicalProductEED2Ev@Base 1.1.0
 (optional=templinst)_ZN5boost3any6holderINS_10last_valueIvEEED0Ev@Base 1.1.0
 (optional=templinst)_ZN5boost3any6holderINS_10last_valueIvEEED1Ev@Base 1.1.0
 (optional=templinst)_ZN5boost3any6holderINS_10last_valueIvEEED2Ev@Base 1.1.0
 (optional=templinst)_ZN5boost3any6holderINS_8functionIFbdEEEED0Ev@Base 1.1.0
 (optional=templinst)_ZN5boost3any6holderINS_8functionIFbdEEEED1Ev@Base 1.1.0
 (optional=templinst)_ZN5boost3any6holderINS_8functionIFbdEEEED2Ev@Base 1.1.0
 (optional=templinst)_ZN5boost3any6holderINS_8functionIFvP7QActionEEEED0Ev@Base 1.1.0
 (optional=templinst)_ZN5boost3any6holderINS_8functionIFvP7QActionEEEED1Ev@Base 1.1.0
 (optional=templinst)_ZN5boost3any6holderINS_8functionIFvP7QActionEEEED2Ev@Base 1.1.0
 (optional=templinst)_ZN5boost3any6holderINS_8functionIFvPN5cnoid4ItemEEEEED0Ev@Base 1.1.0
 (optional=templinst)_ZN5boost3any6holderINS_8functionIFvPN5cnoid4ItemEEEEED1Ev@Base 1.1.0
 (optional=templinst)_ZN5boost3any6holderINS_8functionIFvPN5cnoid4ItemEEEEED2Ev@Base 1.1.0
 (optional=templinst)_ZN5boost3any6holderINS_8functionIFvPN5cnoid4ItemEbEEEED0Ev@Base 1.1.0
 (optional=templinst)_ZN5boost3any6holderINS_8functionIFvPN5cnoid4ItemEbEEEED1Ev@Base 1.1.0
 (optional=templinst)_ZN5boost3any6holderINS_8functionIFvPN5cnoid4ItemEbEEEED2Ev@Base 1.1.0
 (optional=templinst)_ZN5boost3any6holderINS_8functionIFvRKN5cnoid8ItemListINS3_4ItemEEEEEEED0Ev@Base 1.1.0
 (optional=templinst)_ZN5boost3any6holderINS_8functionIFvRKN5cnoid8ItemListINS3_4ItemEEEEEEED1Ev@Base 1.1.0
 (optional=templinst)_ZN5boost3any6holderINS_8functionIFvRKN5cnoid8ItemListINS3_4ItemEEEEEEED2Ev@Base 1.1.0
 (optional=templinst)_ZN5boost3any6holderINS_8functionIFvRNS_15program_options13variables_mapEEEEED0Ev@Base 1.1.0
 (optional=templinst)_ZN5boost3any6holderINS_8functionIFvRNS_15program_options13variables_mapEEEEED1Ev@Base 1.1.0
 (optional=templinst)_ZN5boost3any6holderINS_8functionIFvRNS_15program_options13variables_mapEEEEED2Ev@Base 1.1.0
 (optional=templinst)_ZN5boost3any6holderINS_8functionIFvbEEEED0Ev@Base 1.1.0
 (optional=templinst)_ZN5boost3any6holderINS_8functionIFvbEEEED1Ev@Base 1.1.0
 (optional=templinst)_ZN5boost3any6holderINS_8functionIFvbEEEED2Ev@Base 1.1.0
 (optional=templinst)_ZN5boost3any6holderINS_8functionIFvdEEEED0Ev@Base 1.1.0
 (optional=templinst)_ZN5boost3any6holderINS_8functionIFvdEEEED1Ev@Base 1.1.0
 (optional=templinst)_ZN5boost3any6holderINS_8functionIFvdEEEED2Ev@Base 1.1.0
 (optional=templinst)_ZN5boost3any6holderINS_8functionIFviEEEED0Ev@Base 1.1.0
 (optional=templinst)_ZN5boost3any6holderINS_8functionIFviEEEED1Ev@Base 1.1.0
 (optional=templinst)_ZN5boost3any6holderINS_8functionIFviEEEED2Ev@Base 1.1.0
 (optional=templinst)_ZN5boost3any6holderINS_8functionIFvvEEEED0Ev@Base 1.1.0
 (optional=templinst)_ZN5boost3any6holderINS_8functionIFvvEEEED1Ev@Base 1.1.0
 (optional=templinst)_ZN5boost3any6holderINS_8functionIFvvEEEED2Ev@Base 1.1.0
 (optional=templinst)_ZN5boost3any6holderISt6vectorISsSaISsEEED0Ev@Base 1.1.0
 (optional=templinst)_ZN5boost3any6holderISt6vectorISsSaISsEEED1Ev@Base 1.1.0
 (optional=templinst)_ZN5boost3any6holderISt6vectorISsSaISsEEED2Ev@Base 1.1.0
 (optional=templinst)_ZN5boost3anyC1INS_8functionIFbdEEEEERKT_@Base 1.1.0
 (optional=templinst)_ZN5boost3anyC1INS_8functionIFvP7QActionEEEEERKT_@Base 1.1.0
 (optional=templinst)_ZN5boost3anyC1INS_8functionIFvPN5cnoid4ItemEEEEEERKT_@Base 1.1.0
 (optional=templinst)_ZN5boost3anyC1INS_8functionIFvPN5cnoid4ItemEbEEEEERKT_@Base 1.1.0
 (optional=templinst)_ZN5boost3anyC1INS_8functionIFvRNS_15program_options13variables_mapEEEEEERKT_@Base 1.1.0
 (optional=templinst)_ZN5boost3anyC1INS_8functionIFvbEEEEERKT_@Base 1.1.0
 (optional=templinst)_ZN5boost3anyC1INS_8functionIFvdEEEEERKT_@Base 1.1.0
 (optional=templinst)_ZN5boost3anyC1INS_8functionIFviEEEEERKT_@Base 1.1.0
 (optional=templinst)_ZN5boost3anyC1INS_8functionIFvvEEEEERKT_@Base 1.1.0
 (optional=templinst)_ZN5boost3anyC1ISt6vectorISsSaISsEEEERKT_@Base 1.1.0
 (optional=templinst)_ZN5boost3anyC2INS_8functionIFbdEEEEERKT_@Base 1.1.0
 (optional=templinst)_ZN5boost3anyC2INS_8functionIFvP7QActionEEEEERKT_@Base 1.1.0
 (optional=templinst)_ZN5boost3anyC2INS_8functionIFvPN5cnoid4ItemEEEEEERKT_@Base 1.1.0
 (optional=templinst)_ZN5boost3anyC2INS_8functionIFvPN5cnoid4ItemEbEEEEERKT_@Base 1.1.0
 (optional=templinst)_ZN5boost3anyC2INS_8functionIFvRNS_15program_options13variables_mapEEEEEERKT_@Base 1.1.0
 (optional=templinst)_ZN5boost3anyC2INS_8functionIFvbEEEEERKT_@Base 1.1.0
 (optional=templinst)_ZN5boost3anyC2INS_8functionIFvdEEEEERKT_@Base 1.1.0
 (optional=templinst)_ZN5boost3anyC2INS_8functionIFviEEEEERKT_@Base 1.1.0
 (optional=templinst)_ZN5boost3anyC2INS_8functionIFvvEEEEERKT_@Base 1.1.0
 (optional=templinst)_ZN5boost3anyC2ISt6vectorISsSaISsEEEERKT_@Base 1.1.0
 (optional=templinst)_ZN5boost4bindIbN5cnoid12ItemTreeViewENS_13intrusive_ptrINS1_4ItemEEEbPS2_NS_3argILi1EEEbEENS_3_bi6bind_tIT_NS_4_mfi3mf2ISB_T0_T1_T2_EENS9_9list_av_3IT3_T4_T5_E4typeEEEMSE_FSB_SF_SG_ESJ_SK_SL_@Base 1.1.0
 (optional=templinst)_ZN5boost4bindIvN5cnoid15GraphWidgetImplENS_10shared_ptrINS1_16GraphDataHandlerEEEPS2_S5_EENS_3_bi6bind_tIT_NS_4_mfi3mf1IS9_T0_T1_EENS7_9list_av_2IT2_T3_E4typeEEEMSC_FS9_SD_ESG_SH_@Base 1.1.0
 (optional=templinst)_ZN5boost4bindIvNS_10shared_ptrIN5cnoid15ItemManagerImpl6LoaderEEES5_EENS_3_bi6bind_tIT_PFS8_T0_ENS6_9list_av_1IT1_E4typeEEESB_SD_@Base 1.1.0
 (optional=templinst)_ZN5boost4slotINS_8functionIFbdEEEEC1IS3_EERKT_@Base 1.1.0
 (optional=templinst)_ZN5boost4slotINS_8functionIFbdEEEEC2IS3_EERKT_@Base 1.1.0
 (optional=templinst)_ZN5boost4slotINS_8functionIFbdEEEED1Ev@Base 1.1.0
 (optional=templinst)_ZN5boost4slotINS_8functionIFbdEEEED2Ev@Base 1.1.0
 (optional=templinst)_ZN5boost4slotINS_8functionIFvP7QActionEEEEC1IS5_EERKT_@Base 1.1.0
 (optional=templinst)_ZN5boost4slotINS_8functionIFvP7QActionEEEEC2IS5_EERKT_@Base 1.1.0
 (optional=templinst)_ZN5boost4slotINS_8functionIFvP7QActionEEEED1Ev@Base 1.1.0
 (optional=templinst)_ZN5boost4slotINS_8functionIFvP7QActionEEEED2Ev@Base 1.1.0
 (optional=templinst)_ZN5boost4slotINS_8functionIFvPN5cnoid4ItemEEEEEC1IS6_EERKT_@Base 1.1.0
 (optional=templinst)_ZN5boost4slotINS_8functionIFvPN5cnoid4ItemEEEEEC2IS6_EERKT_@Base 1.1.0
 (optional=templinst)_ZN5boost4slotINS_8functionIFvPN5cnoid4ItemEEEEED1Ev@Base 1.1.0
 (optional=templinst)_ZN5boost4slotINS_8functionIFvPN5cnoid4ItemEEEEED2Ev@Base 1.1.0
 (optional=templinst)_ZN5boost4slotINS_8functionIFvPN5cnoid4ItemEbEEEEC1IS6_EERKT_@Base 1.1.0
 (optional=templinst)_ZN5boost4slotINS_8functionIFvPN5cnoid4ItemEbEEEEC2IS6_EERKT_@Base 1.1.0
 (optional=templinst)_ZN5boost4slotINS_8functionIFvPN5cnoid4ItemEbEEEED1Ev@Base 1.1.0
 (optional=templinst)_ZN5boost4slotINS_8functionIFvPN5cnoid4ItemEbEEEED2Ev@Base 1.1.0
 (optional=templinst)_ZN5boost4slotINS_8functionIFvRKN5cnoid8ItemListINS2_4ItemEEEEEEED1Ev@Base 1.1.0
 (optional=templinst)_ZN5boost4slotINS_8functionIFvRKN5cnoid8ItemListINS2_4ItemEEEEEEED2Ev@Base 1.1.0
 (optional=templinst)_ZN5boost4slotINS_8functionIFvRNS_15program_options13variables_mapEEEEEC1IS6_EERKT_@Base 1.1.0
 (optional=templinst)_ZN5boost4slotINS_8functionIFvRNS_15program_options13variables_mapEEEEEC2IS6_EERKT_@Base 1.1.0
 (optional=templinst)_ZN5boost4slotINS_8functionIFvRNS_15program_options13variables_mapEEEEED1Ev@Base 1.1.0
 (optional=templinst)_ZN5boost4slotINS_8functionIFvRNS_15program_options13variables_mapEEEEED2Ev@Base 1.1.0
 (optional=templinst)_ZN5boost4slotINS_8functionIFvbEEEEC1IS3_EERKT_@Base 1.1.0
 (optional=templinst)_ZN5boost4slotINS_8functionIFvbEEEEC2IS3_EERKT_@Base 1.1.0
 (optional=templinst)_ZN5boost4slotINS_8functionIFvbEEEED1Ev@Base 1.1.0
 (optional=templinst)_ZN5boost4slotINS_8functionIFvbEEEED2Ev@Base 1.1.0
 (optional=templinst)_ZN5boost4slotINS_8functionIFvdEEEEC1IS3_EERKT_@Base 1.1.0
 (optional=templinst)_ZN5boost4slotINS_8functionIFvdEEEEC2IS3_EERKT_@Base 1.1.0
 (optional=templinst)_ZN5boost4slotINS_8functionIFvdEEEED1Ev@Base 1.1.0
 (optional=templinst)_ZN5boost4slotINS_8functionIFvdEEEED2Ev@Base 1.1.0
 (optional=templinst)_ZN5boost4slotINS_8functionIFviEEEEC1INS_3_bi6bind_tIvNS_4_mfi3mf1IvN5cnoid13SceneViewImplEiEENS6_5list2INS6_5valueIPSB_EENS_3argILi1EEEEEEEEERKT_@Base 1.1.0
 (optional=templinst)_ZN5boost4slotINS_8functionIFviEEEEC1IS3_EERKT_@Base 1.1.0
 (optional=templinst)_ZN5boost4slotINS_8functionIFviEEEEC2INS_3_bi6bind_tIvNS_4_mfi3mf1IvN5cnoid13SceneViewImplEiEENS6_5list2INS6_5valueIPSB_EENS_3argILi1EEEEEEEEERKT_@Base 1.1.0
 (optional=templinst)_ZN5boost4slotINS_8functionIFviEEEEC2IS3_EERKT_@Base 1.1.0
 (optional=templinst)_ZN5boost4slotINS_8functionIFviEEEED1Ev@Base 1.1.0
 (optional=templinst)_ZN5boost4slotINS_8functionIFviEEEED2Ev@Base 1.1.0
 (optional=templinst)_ZN5boost4slotINS_8functionIFvvEEEEC1INS_3_bi6bind_tIvNS_4_mfi3mf1IvN5cnoid15GraphWidgetImplENS_10shared_ptrINSA_16GraphDataHandlerEEEEENS6_5list2INS6_5valueIPSB_EENSH_ISE_EEEEEEEERKT_@Base 1.1.0
 (optional=templinst)_ZN5boost4slotINS_8functionIFvvEEEEC1IS3_EERKT_@Base 1.1.0
 (optional=templinst)_ZN5boost4slotINS_8functionIFvvEEEEC2INS_3_bi6bind_tIvNS_4_mfi3mf1IvN5cnoid15GraphWidgetImplENS_10shared_ptrINSA_16GraphDataHandlerEEEEENS6_5list2INS6_5valueIPSB_EENSH_ISE_EEEEEEEERKT_@Base 1.1.0
 (optional=templinst)_ZN5boost4slotINS_8functionIFvvEEEEC2IS3_EERKT_@Base 1.1.0
 (optional=templinst)_ZN5boost4slotINS_8functionIFvvEEEED1Ev@Base 1.1.0
 (optional=templinst)_ZN5boost4slotINS_8functionIFvvEEEED2Ev@Base 1.1.0
 (optional=templinst)_ZN5boost6detail12shared_countC1IN5cnoid15ItemManagerImpl5SaverEEEPT_@Base 1.1.0
 (optional=templinst)_ZN5boost6detail12shared_countC1IN5cnoid15ItemManagerImpl6LoaderEEEPT_@Base 1.1.0
 (optional=templinst)_ZN5boost6detail12shared_countC1IN5cnoid15ItemManagerImpl9ClassInfoEEEPT_@Base 1.1.0
 (optional=templinst)_ZN5boost6detail12shared_countC1IN5cnoid17PluginManagerImpl10PluginInfoEEEPT_@Base 1.1.0
 (optional=templinst)_ZN5boost6detail12shared_countC1INS_11filesystem222basic_filesystem_errorINS3_10basic_pathISsNS3_11path_traitsEEEE5m_impEEEPT_@Base 1.1.0
 (optional=templinst)_ZN5boost6detail12shared_countC1INS_11filesystem26detail11dir_itr_impINS3_10basic_pathISsNS3_11path_traitsEEEEEEEPT_@Base 1.1.0
 (optional=templinst)_ZN5boost6detail12shared_countC1INS_7signals6detail9slot_base6data_tEEEPT_@Base 1.1.0
 (optional=templinst)_ZN5boost6detail12shared_countC1IPNS_2io18basic_altstringbufIcSt11char_traitsIcESaIcEEENS3_22basic_oaltstringstreamIcS6_S7_E5No_OpEEET_T0_@Base 1.1.0
 (optional=templinst)_ZN5boost6detail12shared_countC2IN5cnoid15ItemManagerImpl5SaverEEEPT_@Base 1.1.0
 (optional=templinst)_ZN5boost6detail12shared_countC2IN5cnoid15ItemManagerImpl6LoaderEEEPT_@Base 1.1.0
 (optional=templinst)_ZN5boost6detail12shared_countC2IN5cnoid15ItemManagerImpl9ClassInfoEEEPT_@Base 1.1.0
 (optional=templinst)_ZN5boost6detail12shared_countC2IN5cnoid17PluginManagerImpl10PluginInfoEEEPT_@Base 1.1.0
 (optional=templinst)_ZN5boost6detail12shared_countC2INS_11filesystem222basic_filesystem_errorINS3_10basic_pathISsNS3_11path_traitsEEEE5m_impEEEPT_@Base 1.1.0
 (optional=templinst)_ZN5boost6detail12shared_countC2INS_11filesystem26detail11dir_itr_impINS3_10basic_pathISsNS3_11path_traitsEEEEEEEPT_@Base 1.1.0
 (optional=templinst)_ZN5boost6detail12shared_countC2INS_7signals6detail9slot_base6data_tEEEPT_@Base 1.1.0
 (optional=templinst)_ZN5boost6detail12shared_countC2IPNS_2io18basic_altstringbufIcSt11char_traitsIcESaIcEEENS3_22basic_oaltstringstreamIcS6_S7_E5No_OpEEET_T0_@Base 1.1.0
 _ZN5boost6detail12shared_countD1Ev@Base 1.1.0
 _ZN5boost6detail12shared_countD2Ev@Base 1.1.0
 _ZN5boost6detail15sp_counted_base7destroyEv@Base 1.1.0
 _ZN5boost6detail15sp_counted_base7releaseEv@Base 1.1.0
 _ZN5boost6detail15sp_counted_baseD0Ev@Base 1.1.0
 _ZN5boost6detail15sp_counted_baseD1Ev@Base 1.1.0
 _ZN5boost6detail15sp_counted_baseD2Ev@Base 1.1.0
 (optional=templinst)_ZN5boost6detail17sp_counted_impl_pIN5cnoid10Vector3SeqEE11get_deleterERKSt9type_info@Base 1.1.0
 (optional=templinst)_ZN5boost6detail17sp_counted_impl_pIN5cnoid10Vector3SeqEE7disposeEv@Base 1.1.0
 (optional=templinst)_ZN5boost6detail17sp_counted_impl_pIN5cnoid10Vector3SeqEED0Ev@Base 1.1.0
 (optional=templinst)_ZN5boost6detail17sp_counted_impl_pIN5cnoid10Vector3SeqEED1Ev@Base 1.1.0
 (optional=templinst)_ZN5boost6detail17sp_counted_impl_pIN5cnoid10Vector3SeqEED2Ev@Base 1.1.0
 (optional=templinst)_ZN5boost6detail17sp_counted_impl_pIN5cnoid10YamlReaderEE11get_deleterERKSt9type_info@Base 1.1.0
 (optional=templinst)_ZN5boost6detail17sp_counted_impl_pIN5cnoid10YamlReaderEE7disposeEv@Base 1.1.0
 (optional=templinst)_ZN5boost6detail17sp_counted_impl_pIN5cnoid10YamlReaderEED0Ev@Base 1.1.0
 (optional=templinst)_ZN5boost6detail17sp_counted_impl_pIN5cnoid10YamlReaderEED1Ev@Base 1.1.0
 (optional=templinst)_ZN5boost6detail17sp_counted_impl_pIN5cnoid10YamlReaderEED2Ev@Base 1.1.0
 (optional=templinst)_ZN5boost6detail17sp_counted_impl_pIN5cnoid11ItemManager12FileFunctionINS2_12MultiSeqItemINS2_13MultiValueSeqEEEEEE11get_deleterERKSt9type_info@Base 1.1.0
 (optional=templinst)_ZN5boost6detail17sp_counted_impl_pIN5cnoid11ItemManager12FileFunctionINS2_12MultiSeqItemINS2_13MultiValueSeqEEEEEE7disposeEv@Base 1.1.0
 (optional=templinst)_ZN5boost6detail17sp_counted_impl_pIN5cnoid11ItemManager12FileFunctionINS2_12MultiSeqItemINS2_13MultiValueSeqEEEEEED0Ev@Base 1.1.0
 (optional=templinst)_ZN5boost6detail17sp_counted_impl_pIN5cnoid11ItemManager12FileFunctionINS2_12MultiSeqItemINS2_13MultiValueSeqEEEEEED1Ev@Base 1.1.0
 (optional=templinst)_ZN5boost6detail17sp_counted_impl_pIN5cnoid11ItemManager12FileFunctionINS2_12MultiSeqItemINS2_13MultiValueSeqEEEEEED2Ev@Base 1.1.0
 (optional=templinst)_ZN5boost6detail17sp_counted_impl_pIN5cnoid11ItemManager12FileFunctionINS2_9SceneItemEEEE11get_deleterERKSt9type_info@Base 1.1.0
 (optional=templinst)_ZN5boost6detail17sp_counted_impl_pIN5cnoid11ItemManager12FileFunctionINS2_9SceneItemEEEE7disposeEv@Base 1.1.0
 (optional=templinst)_ZN5boost6detail17sp_counted_impl_pIN5cnoid11ItemManager12FileFunctionINS2_9SceneItemEEEED0Ev@Base 1.1.0
 (optional=templinst)_ZN5boost6detail17sp_counted_impl_pIN5cnoid11ItemManager12FileFunctionINS2_9SceneItemEEEED1Ev@Base 1.1.0
 (optional=templinst)_ZN5boost6detail17sp_counted_impl_pIN5cnoid11ItemManager12FileFunctionINS2_9SceneItemEEEED2Ev@Base 1.1.0
 (optional=templinst)_ZN5boost6detail17sp_counted_impl_pIN5cnoid13MultiValueSeqEE11get_deleterERKSt9type_info@Base 1.1.0
 (optional=templinst)_ZN5boost6detail17sp_counted_impl_pIN5cnoid13MultiValueSeqEE7disposeEv@Base 1.1.0
 (optional=templinst)_ZN5boost6detail17sp_counted_impl_pIN5cnoid13MultiValueSeqEED0Ev@Base 1.1.0
 (optional=templinst)_ZN5boost6detail17sp_counted_impl_pIN5cnoid13MultiValueSeqEED1Ev@Base 1.1.0
 (optional=templinst)_ZN5boost6detail17sp_counted_impl_pIN5cnoid13MultiValueSeqEED2Ev@Base 1.1.0
 (optional=templinst)_ZN5boost6detail17sp_counted_impl_pIN5cnoid15ItemManagerImpl5SaverEE11get_deleterERKSt9type_info@Base 1.1.0
 (optional=templinst)_ZN5boost6detail17sp_counted_impl_pIN5cnoid15ItemManagerImpl5SaverEE7disposeEv@Base 1.1.0
 (optional=templinst)_ZN5boost6detail17sp_counted_impl_pIN5cnoid15ItemManagerImpl5SaverEED0Ev@Base 1.1.0
 (optional=templinst)_ZN5boost6detail17sp_counted_impl_pIN5cnoid15ItemManagerImpl5SaverEED1Ev@Base 1.1.0
 (optional=templinst)_ZN5boost6detail17sp_counted_impl_pIN5cnoid15ItemManagerImpl5SaverEED2Ev@Base 1.1.0
 (optional=templinst)_ZN5boost6detail17sp_counted_impl_pIN5cnoid15ItemManagerImpl6LoaderEE11get_deleterERKSt9type_info@Base 1.1.0
 (optional=templinst)_ZN5boost6detail17sp_counted_impl_pIN5cnoid15ItemManagerImpl6LoaderEE7disposeEv@Base 1.1.0
 (optional=templinst)_ZN5boost6detail17sp_counted_impl_pIN5cnoid15ItemManagerImpl6LoaderEED0Ev@Base 1.1.0
 (optional=templinst)_ZN5boost6detail17sp_counted_impl_pIN5cnoid15ItemManagerImpl6LoaderEED1Ev@Base 1.1.0
 (optional=templinst)_ZN5boost6detail17sp_counted_impl_pIN5cnoid15ItemManagerImpl6LoaderEED2Ev@Base 1.1.0
 (optional=templinst)_ZN5boost6detail17sp_counted_impl_pIN5cnoid15ItemManagerImpl9ClassInfoEE11get_deleterERKSt9type_info@Base 1.1.0
 (optional=templinst)_ZN5boost6detail17sp_counted_impl_pIN5cnoid15ItemManagerImpl9ClassInfoEE7disposeEv@Base 1.1.0
 (optional=templinst)_ZN5boost6detail17sp_counted_impl_pIN5cnoid15ItemManagerImpl9ClassInfoEED0Ev@Base 1.1.0
 (optional=templinst)_ZN5boost6detail17sp_counted_impl_pIN5cnoid15ItemManagerImpl9ClassInfoEED1Ev@Base 1.1.0
 (optional=templinst)_ZN5boost6detail17sp_counted_impl_pIN5cnoid15ItemManagerImpl9ClassInfoEED2Ev@Base 1.1.0
 (optional=templinst)_ZN5boost6detail17sp_counted_impl_pIN5cnoid15MultiAffine3SeqEE11get_deleterERKSt9type_info@Base 1.1.0
 (optional=templinst)_ZN5boost6detail17sp_counted_impl_pIN5cnoid15MultiAffine3SeqEE7disposeEv@Base 1.1.0
 (optional=templinst)_ZN5boost6detail17sp_counted_impl_pIN5cnoid15MultiAffine3SeqEED0Ev@Base 1.1.0
 (optional=templinst)_ZN5boost6detail17sp_counted_impl_pIN5cnoid15MultiAffine3SeqEED1Ev@Base 1.1.0
 (optional=templinst)_ZN5boost6detail17sp_counted_impl_pIN5cnoid15MultiAffine3SeqEED2Ev@Base 1.1.0
 (optional=templinst)_ZN5boost6detail17sp_counted_impl_pIN5cnoid17PluginManagerImpl10PluginInfoEE11get_deleterERKSt9type_info@Base 1.1.0
 (optional=templinst)_ZN5boost6detail17sp_counted_impl_pIN5cnoid17PluginManagerImpl10PluginInfoEE7disposeEv@Base 1.1.0
 (optional=templinst)_ZN5boost6detail17sp_counted_impl_pIN5cnoid17PluginManagerImpl10PluginInfoEED0Ev@Base 1.1.0
 (optional=templinst)_ZN5boost6detail17sp_counted_impl_pIN5cnoid17PluginManagerImpl10PluginInfoEED1Ev@Base 1.1.0
 (optional=templinst)_ZN5boost6detail17sp_counted_impl_pIN5cnoid17PluginManagerImpl10PluginInfoEED2Ev@Base 1.1.0
 (optional=templinst)_ZN5boost6detail17sp_counted_impl_pINS_11filesystem222basic_filesystem_errorINS2_10basic_pathISsNS2_11path_traitsEEEE5m_impEE11get_deleterERKSt9type_info@Base 1.1.0
 (optional=templinst)_ZN5boost6detail17sp_counted_impl_pINS_11filesystem222basic_filesystem_errorINS2_10basic_pathISsNS2_11path_traitsEEEE5m_impEE7disposeEv@Base 1.1.0
 (optional=templinst)_ZN5boost6detail17sp_counted_impl_pINS_11filesystem222basic_filesystem_errorINS2_10basic_pathISsNS2_11path_traitsEEEE5m_impEED0Ev@Base 1.1.0
 (optional=templinst)_ZN5boost6detail17sp_counted_impl_pINS_11filesystem222basic_filesystem_errorINS2_10basic_pathISsNS2_11path_traitsEEEE5m_impEED1Ev@Base 1.1.0
 (optional=templinst)_ZN5boost6detail17sp_counted_impl_pINS_11filesystem222basic_filesystem_errorINS2_10basic_pathISsNS2_11path_traitsEEEE5m_impEED2Ev@Base 1.1.0
 (optional=templinst)_ZN5boost6detail17sp_counted_impl_pINS_11filesystem26detail11dir_itr_impINS2_10basic_pathISsNS2_11path_traitsEEEEEE11get_deleterERKSt9type_info@Base 1.1.0
 (optional=templinst)_ZN5boost6detail17sp_counted_impl_pINS_11filesystem26detail11dir_itr_impINS2_10basic_pathISsNS2_11path_traitsEEEEEE7disposeEv@Base 1.1.0
 (optional=templinst)_ZN5boost6detail17sp_counted_impl_pINS_11filesystem26detail11dir_itr_impINS2_10basic_pathISsNS2_11path_traitsEEEEEED0Ev@Base 1.1.0
 (optional=templinst)_ZN5boost6detail17sp_counted_impl_pINS_11filesystem26detail11dir_itr_impINS2_10basic_pathISsNS2_11path_traitsEEEEEED1Ev@Base 1.1.0
 (optional=templinst)_ZN5boost6detail17sp_counted_impl_pINS_11filesystem26detail11dir_itr_impINS2_10basic_pathISsNS2_11path_traitsEEEEEED2Ev@Base 1.1.0
 (optional=templinst)_ZN5boost6detail17sp_counted_impl_pINS_7signals6detail9slot_base6data_tEE11get_deleterERKSt9type_info@Base 1.1.0
 (optional=templinst)_ZN5boost6detail17sp_counted_impl_pINS_7signals6detail9slot_base6data_tEE7disposeEv@Base 1.1.0
 (optional=templinst)_ZN5boost6detail17sp_counted_impl_pINS_7signals6detail9slot_base6data_tEED0Ev@Base 1.1.0
 (optional=templinst)_ZN5boost6detail17sp_counted_impl_pINS_7signals6detail9slot_base6data_tEED1Ev@Base 1.1.0
 (optional=templinst)_ZN5boost6detail17sp_counted_impl_pINS_7signals6detail9slot_base6data_tEED2Ev@Base 1.1.0
 (optional=templinst)_ZN5boost6detail18sp_counted_impl_pdIPNS_2io18basic_altstringbufIcSt11char_traitsIcESaIcEEENS2_22basic_oaltstringstreamIcS5_S6_E5No_OpEE11get_deleterERKSt9type_info@Base 1.1.0
 (optional=templinst)_ZN5boost6detail18sp_counted_impl_pdIPNS_2io18basic_altstringbufIcSt11char_traitsIcESaIcEEENS2_22basic_oaltstringstreamIcS5_S6_E5No_OpEE7disposeEv@Base 1.1.0
 (optional=templinst)_ZN5boost6detail18sp_counted_impl_pdIPNS_2io18basic_altstringbufIcSt11char_traitsIcESaIcEEENS2_22basic_oaltstringstreamIcS5_S6_E5No_OpEED0Ev@Base 1.1.0
 (optional=templinst)_ZN5boost6detail18sp_counted_impl_pdIPNS_2io18basic_altstringbufIcSt11char_traitsIcESaIcEEENS2_22basic_oaltstringstreamIcS5_S6_E5No_OpEED1Ev@Base 1.1.0
 (optional=templinst)_ZN5boost6detail18sp_counted_impl_pdIPNS_2io18basic_altstringbufIcSt11char_traitsIcESaIcEEENS2_22basic_oaltstringstreamIcS5_S6_E5No_OpEED2Ev@Base 1.1.0
 (optional=templinst)_ZN5boost6detail8function15functor_managerINS_3_bi6bind_tIbNS_4_mfi3mf0Ib7QWidgetEENS3_5list1INS3_5valueIPN5cnoid10MainWindowEEEEEEEE6manageERKNS1_15function_bufferERSI_NS1_30functor_manager_operation_typeE@Base 1.1.0
 (optional=templinst)_ZN5boost6detail8function15functor_managerINS_3_bi6bind_tIbNS_4_mfi3mf0IbN5cnoid14LazySignalBaseEEENS3_5list1INS3_5valueIPS8_EEEEEEE6manageERKNS1_15function_bufferERSH_NS1_30functor_manager_operation_typeE@Base 1.1.0
 (optional=templinst)_ZN5boost6detail8function15functor_managerINS_3_bi6bind_tIbNS_4_mfi3mf1IbN5cnoid11TimeBarImplEdEENS3_5list2INS3_5valueIPS8_EENS_3argILi1EEEEEEEE6manageERKNS1_15function_bufferERSJ_NS1_30functor_manager_operation_typeE@Base 1.1.0
 (optional=templinst)_ZN5boost6detail8function15functor_managerINS_3_bi6bind_tIbNS_4_mfi3mf2IbN5cnoid12ItemTreeViewENS_13intrusive_ptrINS7_4ItemEEEbEENS3_5list3INS3_5valueIPS8_EENS_3argILi1EEENSE_IbEEEEEEE6manageERKNS1_15function_bufferERSN_NS1_30functor_manager_operation_typeE@Base 1.1.0
 (optional=templinst)_ZN5boost6detail8function15functor_managerINS_3_bi6bind_tIbNS_4_mfi3mf2IbN5cnoid12ItemTreeViewENS_13intrusive_ptrINS7_4ItemEEEbEENS3_5list3INS3_5valueIPS8_EENS_3argILi1EEENSE_IbEEEEEEE7managerERKNS1_15function_bufferERSN_NS1_30functor_manager_operation_typeEN4mpl_5bool_ILb0EEE@Base 1.1.0
 (optional=templinst)_ZN5boost6detail8function15functor_managerINS_3_bi6bind_tIbNS_4_mfi3mf3IbN5cnoid15GraphWidgetImplEdbbEENS3_5list4INS3_5valueIPS8_EENS_3argILi1EEENSB_IbEESG_EEEEE6manageERKNS1_15function_bufferERSK_NS1_30functor_manager_operation_typeE@Base 1.1.0
 (optional=templinst)_ZN5boost6detail8function15functor_managerINS_3_bi6bind_tIbNS_4_mfi3mf3IbN5cnoid15GraphWidgetImplEdbbEENS3_5list4INS3_5valueIPS8_EENS_3argILi1EEENSB_IbEESG_EEEEE7managerERKNS1_15function_bufferERSK_NS1_30functor_manager_operation_typeEN4mpl_5bool_ILb0EEE@Base 1.1.0
 (optional=templinst)_ZN5boost6detail8function15functor_managerINS_3_bi6bind_tIbPFbPN5cnoid12MultiSeqBaseEdENS3_5list2INS3_5valueIS7_EENS_3argILi1EEEEEEEE6manageERKNS1_15function_bufferERSI_NS1_30functor_manager_operation_typeE@Base 1.1.0
 (optional=templinst)_ZN5boost6detail8function15functor_managerINS_3_bi6bind_tIbPFbPN5cnoid12MultiSeqBaseEiENS3_5list2INS3_5valueIS7_EENS_3argILi1EEEEEEEE6manageERKNS1_15function_bufferERSI_NS1_30functor_manager_operation_typeE@Base 1.1.0
 (optional=templinst)_ZN5boost6detail8function15functor_managerINS_3_bi6bind_tIbPFbPN5cnoid12MultiSeqItemINS5_13MultiValueSeqEEERKSsRSoENS3_5list3INS_3argILi1EEENSG_ILi2EEENSG_ILi3EEEEEEEE6manageERKNS1_15function_bufferERSN_NS1_30functor_manager_operation_typeE@Base 1.1.0
 (optional=templinst)_ZN5boost6detail8function15functor_managerINS_3_bi6bind_tIbPFbPN5cnoid4ItemERKSsENS3_5list2INS3_5valueIS7_EENS_3argILi1EEEEEEEE6manageERKNS1_15function_bufferERSK_NS1_30functor_manager_operation_typeE@Base 1.1.0
 (optional=templinst)_ZN5boost6detail8function15functor_managerINS_3_bi6bind_tIbPFbPN5cnoid9SceneItemERKSsRSoENS3_5list3INS_3argILi1EEENSE_ILi2EEENSE_ILi3EEEEEEEE6manageERKNS1_15function_bufferERSL_NS1_30functor_manager_operation_typeE@Base 1.1.0
 (optional=templinst)_ZN5boost6detail8function15functor_managerINS_3_bi6bind_tIvNS_4_mfi3mf0IvN5cnoid10LazyCallerEEENS3_5list1INS3_5valueIPS8_EEEEEEE6manageERKNS1_15function_bufferERSH_NS1_30functor_manager_operation_typeE@Base 1.1.0
 (optional=templinst)_ZN5boost6detail8function15functor_managerINS_3_bi6bind_tIvNS_4_mfi3mf0IvN5cnoid11TimeBarImplEEENS3_5list1INS3_5valueIPS8_EEEEEEE6manageERKNS1_15function_bufferERSH_NS1_30functor_manager_operation_typeE@Base 1.1.0
 (optional=templinst)_ZN5boost6detail8function15functor_managerINS_3_bi6bind_tIvNS_4_mfi3mf0IvN5cnoid12GraphBarImplEEENS3_5list1INS3_5valueIPS8_EEEEEEE6manageERKNS1_15function_bufferERSH_NS1_30functor_manager_operation_typeE@Base 1.1.0
 (optional=templinst)_ZN5boost6detail8function15functor_managerINS_3_bi6bind_tIvNS_4_mfi3mf0IvN5cnoid13SceneViewImplEEENS3_5list1INS3_5valueIPS8_EEEEEEE6manageERKNS1_15function_bufferERSH_NS1_30functor_manager_operation_typeE@Base 1.1.0
 (optional=templinst)_ZN5boost6detail8function15functor_managerINS_3_bi6bind_tIvNS_4_mfi3mf0IvN5cnoid14MainWindowImplEEENS3_5list1INS3_5valueIPS8_EEEEEEE6manageERKNS1_15function_bufferERSH_NS1_30functor_manager_operation_typeE@Base 1.1.0
 (optional=templinst)_ZN5boost6detail8function15functor_managerINS_3_bi6bind_tIvNS_4_mfi3mf0IvN5cnoid14ProjectManagerEEENS3_5list1INS3_5valueIPS8_EEEEEEE6manageERKNS1_15function_bufferERSH_NS1_30functor_manager_operation_typeE@Base 1.1.0
 (optional=templinst)_ZN5boost6detail8function15functor_managerINS_3_bi6bind_tIvNS_4_mfi3mf0IvN5cnoid15GraphWidgetImplEEENS3_5list1INS3_5valueIPS8_EEEEEEE6manageERKNS1_15function_bufferERSH_NS1_30functor_manager_operation_typeE@Base 1.1.0
 (optional=templinst)_ZN5boost6detail8function15functor_managerINS_3_bi6bind_tIvNS_4_mfi3mf0IvN5cnoid15ItemManagerImplEEENS3_5list1INS3_5valueIPS8_EEEEEEE6manageERKNS1_15function_bufferERSH_NS1_30functor_manager_operation_typeE@Base 1.1.0
 (optional=templinst)_ZN5boost6detail8function15functor_managerINS_3_bi6bind_tIvNS_4_mfi3mf0IvN5cnoid15ToolBarAreaImplEEENS3_5list1INS3_5valueIPS8_EEEEEEE6manageERKNS1_15function_bufferERSH_NS1_30functor_manager_operation_typeE@Base 1.1.0
 (optional=templinst)_ZN5boost6detail8function15functor_managerINS_3_bi6bind_tIvNS_4_mfi3mf0IvN5cnoid16ItemTreeViewImplEEENS3_5list1INS3_5valueIPS8_EEEEEEE6manageERKNS1_15function_bufferERSH_NS1_30functor_manager_operation_typeE@Base 1.1.0
 (optional=templinst)_ZN5boost6detail8function15functor_managerINS_3_bi6bind_tIvNS_4_mfi3mf0IvN5cnoid17PluginManagerImplEEENS3_5list1INS3_5valueIPS8_EEEEEEE6manageERKNS1_15function_bufferERSH_NS1_30functor_manager_operation_typeE@Base 1.1.0
 (optional=templinst)_ZN5boost6detail8function15functor_managerINS_3_bi6bind_tIvNS_4_mfi3mf0IvN5cnoid18ProjectManagerImplEEENS3_5list1INS3_5valueIPS8_EEEEEEE6manageERKNS1_15function_bufferERSH_NS1_30functor_manager_operation_typeE@Base 1.1.0
 (optional=templinst)_ZN5boost6detail8function15functor_managerINS_3_bi6bind_tIvNS_4_mfi3mf0IvN5cnoid20ItemPropertyViewImplEEENS3_5list1INS3_5valueIPS8_EEEEEEE6manageERKNS1_15function_bufferERSH_NS1_30functor_manager_operation_typeE@Base 1.1.0
 (optional=templinst)_ZN5boost6detail8function15functor_managerINS_3_bi6bind_tIvNS_4_mfi3mf0IvN5cnoid7AppImplEEENS3_5list1INS3_5valueIPS8_EEEEEEE6manageERKNS1_15function_bufferERSH_NS1_30functor_manager_operation_typeE@Base 1.1.0
 (optional=templinst)_ZN5boost6detail8function15functor_managerINS_3_bi6bind_tIvNS_4_mfi3mf0IvN5cnoid7TimeBarEEENS3_5list1INS3_5valueIPS8_EEEEEEE6manageERKNS1_15function_bufferERSH_NS1_30functor_manager_operation_typeE@Base 1.1.0
 (optional=templinst)_ZN5boost6detail8function15functor_managerINS_3_bi6bind_tIvNS_4_mfi3mf1IvN5cnoid11TimeBarImplEdEENS3_5list2INS3_5valueIPS8_EENS_3argILi1EEEEEEEE6manageERKNS1_15function_bufferERSJ_NS1_30functor_manager_operation_typeE@Base 1.1.0
 (optional=templinst)_ZN5boost6detail8function15functor_managerINS_3_bi6bind_tIvNS_4_mfi3mf1IvN5cnoid12GraphBarImplEbEENS3_5list2INS3_5valueIPS8_EENS_3argILi1EEEEEEEE6manageERKNS1_15function_bufferERSJ_NS1_30functor_manager_operation_typeE@Base 1.1.0
 (optional=templinst)_ZN5boost6detail8function15functor_managerINS_3_bi6bind_tIvNS_4_mfi3mf1IvN5cnoid12GraphBarImplEdEENS3_5list2INS3_5valueIPS8_EENS_3argILi1EEEEEEEE6manageERKNS1_15function_bufferERSJ_NS1_30functor_manager_operation_typeE@Base 1.1.0
 (optional=templinst)_ZN5boost6detail8function15functor_managerINS_3_bi6bind_tIvNS_4_mfi3mf1IvN5cnoid12GraphBarImplEiEENS3_5list2INS3_5valueIPS8_EENS_3argILi1EEEEEEEE6manageERKNS1_15function_bufferERSJ_NS1_30functor_manager_operation_typeE@Base 1.1.0
 (optional=templinst)_ZN5boost6detail8function15functor_managerINS_3_bi6bind_tIvNS_4_mfi3mf1IvN5cnoid13SceneViewImplEbEENS3_5list2INS3_5valueIPS8_EENS_3argILi1EEEEEEEE6manageERKNS1_15function_bufferERSJ_NS1_30functor_manager_operation_typeE@Base 1.1.0
 (optional=templinst)_ZN5boost6detail8function15functor_managerINS_3_bi6bind_tIvNS_4_mfi3mf1IvN5cnoid13SceneViewImplEiEENS3_5list2INS3_5valueIPS8_EENS_3argILi1EEEEEEEE6manageERKNS1_15function_bufferERSJ_NS1_30functor_manager_operation_typeE@Base 1.1.0
 (optional=templinst)_ZN5boost6detail8function15functor_managerINS_3_bi6bind_tIvNS_4_mfi3mf1IvN5cnoid14MainWindowImplEbEENS3_5list2INS3_5valueIPS8_EENS_3argILi1EEEEEEEE6manageERKNS1_15function_bufferERSJ_NS1_30functor_manager_operation_typeE@Base 1.1.0
 (optional=templinst)_ZN5boost6detail8function15functor_managerINS_3_bi6bind_tIvNS_4_mfi3mf1IvN5cnoid15GraphWidgetImplENS_10shared_ptrINS7_16GraphDataHandlerEEEEENS3_5list2INS3_5valueIPS8_EENSE_ISB_EEEEEEE6manageERKNS1_15function_bufferERSL_NS1_30functor_manager_operation_typeE@Base 1.1.0
 (optional=templinst)_ZN5boost6detail8function15functor_managerINS_3_bi6bind_tIvNS_4_mfi3mf1IvN5cnoid15GraphWidgetImplENS_10shared_ptrINS7_16GraphDataHandlerEEEEENS3_5list2INS3_5valueIPS8_EENSE_ISB_EEEEEEE7managerERKNS1_15function_bufferERSL_NS1_30functor_manager_operation_typeEN4mpl_5bool_ILb0EEE@Base 1.1.0
 (optional=templinst)_ZN5boost6detail8function15functor_managerINS_3_bi6bind_tIvNS_4_mfi3mf1IvN5cnoid15GraphWidgetImplEdEENS3_5list2INS3_5valueIPS8_EENS_3argILi1EEEEEEEE6manageERKNS1_15function_bufferERSJ_NS1_30functor_manager_operation_typeE@Base 1.1.0
 (optional=templinst)_ZN5boost6detail8function15functor_managerINS_3_bi6bind_tIvNS_4_mfi3mf1IvN5cnoid16ItemTreeViewImplEPNS7_4ItemEEENS3_5list2INS3_5valueIPS8_EENS_3argILi1EEEEEEEE6manageERKNS1_15function_bufferERSL_NS1_30functor_manager_operation_typeE@Base 1.1.0
 (optional=templinst)_ZN5boost6detail8function15functor_managerINS_3_bi6bind_tIvNS_4_mfi3mf1IvN5cnoid17PluginManagerImplEPNS8_10PluginInfoEEENS3_5list2INS3_5valueIPS8_EENSD_ISA_EEEEEEE6manageERKNS1_15function_bufferERSK_NS1_30functor_manager_operation_typeE@Base 1.1.0
 (optional=templinst)_ZN5boost6detail8function15functor_managerINS_3_bi6bind_tIvNS_4_mfi3mf1IvN5cnoid17PluginManagerImplEPNS8_10PluginInfoEEENS3_5list2INS3_5valueIPS8_EENSD_ISA_EEEEEEE7managerERKNS1_15function_bufferERSK_NS1_30functor_manager_operation_typeEN4mpl_5bool_ILb0EEE@Base 1.1.0
 (optional=templinst)_ZN5boost6detail8function15functor_managerINS_3_bi6bind_tIvNS_4_mfi3mf1IvN5cnoid18ProjectManagerImplERNS_15program_options13variables_mapEEENS3_5list2INS3_5valueIPS8_EENS_3argILi1EEEEEEEE6manageERKNS1_15function_bufferERSM_NS1_30functor_manager_operation_typeE@Base 1.1.0
 (optional=templinst)_ZN5boost6detail8function15functor_managerINS_3_bi6bind_tIvNS_4_mfi3mf1IvN5cnoid20ItemPropertyViewImplERKNS7_8ItemListINS7_4ItemEEEEENS3_5list2INS3_5valueIPS8_EENS_3argILi1EEEEEEEE6manageERKNS1_15function_bufferERSO_NS1_30functor_manager_operation_typeE@Base 1.1.0
 (optional=templinst)_ZN5boost6detail8function15functor_managerINS_3_bi6bind_tIvNS_4_mfi3mf2IvN5cnoid13SceneViewImplEbbEENS3_5list3INS3_5valueIPS8_EENS_3argILi1EEENSB_IbEEEEEEE6manageERKNS1_15function_bufferERSK_NS1_30functor_manager_operation_typeE@Base 1.1.0
 (optional=templinst)_ZN5boost6detail8function15functor_managerINS_3_bi6bind_tIvNS_4_mfi3mf2IvN5cnoid13SceneViewImplEbbEENS3_5list3INS3_5valueIPS8_EENS_3argILi1EEENSB_IbEEEEEEE7managerERKNS1_15function_bufferERSK_NS1_30functor_manager_operation_typeEN4mpl_5bool_ILb0EEE@Base 1.1.0
 (optional=templinst)_ZN5boost6detail8function15functor_managerINS_3_bi6bind_tIvNS_4_mfi3mf2IvN5cnoid16ItemTreeViewImplEPNS7_4ItemEPNS7_12ItemListBaseEEENS3_5list3INS3_5valueIPS8_EENS_3argILi1EEENSF_ISC_EEEEEEE6manageERKNS1_15function_bufferERSO_NS1_30functor_manager_operation_typeE@Base 1.1.0
 (optional=templinst)_ZN5boost6detail8function15functor_managerINS_3_bi6bind_tIvNS_4_mfi3mf2IvN5cnoid16ItemTreeViewImplEPNS7_4ItemEPNS7_12ItemListBaseEEENS3_5list3INS3_5valueIPS8_EENS_3argILi1EEENSF_ISC_EEEEEEE7managerERKNS1_15function_bufferERSO_NS1_30functor_manager_operation_typeEN4mpl_5bool_ILb0EEE@Base 1.1.0
 (optional=templinst)_ZN5boost6detail8function15functor_managerINS_3_bi6bind_tIvNS_4_mfi3mf2IvN5cnoid16ItemTreeViewImplEPNS7_4ItemEbEENS3_5list3INS3_5valueIPS8_EENS_3argILi1EEENSG_ILi2EEEEEEEE6manageERKNS1_15function_bufferERSM_NS1_30functor_manager_operation_typeE@Base 1.1.0
 (optional=templinst)_ZN5boost6detail8function15functor_managerINS_3_bi6bind_tIvPFvNS_10shared_ptrIN5cnoid15ItemManagerImpl6LoaderEEEENS3_5list1INS3_5valueIS9_EEEEEEE6manageERKNS1_15function_bufferERSI_NS1_30functor_manager_operation_typeE@Base 1.1.0
 (optional=templinst)_ZN5boost6detail8function15functor_managerINS_3_bi6bind_tIvPFvPN5cnoid15ItemManagerImpl17CreationPanelBaseEENS3_5list1INS3_5valueIS8_EEEEEEE6manageERKNS1_15function_bufferERSH_NS1_30functor_manager_operation_typeE@Base 1.1.0
 (optional=templinst)_ZN5boost6detail8function15functor_managerINS_7signals6detail20group_bridge_compareISt4lessIiEiEEE6manageERKNS1_15function_bufferERSA_NS1_30functor_manager_operation_typeE@Base 1.1.0
 (optional=templinst)_ZN5boost6detail8function15functor_managerINS_9algorithm6detail13token_finderFINS4_10is_any_ofFIcEEEEE6manageERKNS1_15function_bufferERSA_NS1_30functor_manager_operation_typeE@Base 1.1.0
 (optional=templinst)_ZN5boost6detail8function15functor_managerIPFbdEE6manageERKNS1_15function_bufferERS6_NS1_30functor_manager_operation_typeE@Base 1.1.0
 (optional=templinst)_ZN5boost6detail8function15functor_managerIPFvRKN5cnoid8ItemListINS3_4ItemEEEEE6manageERKNS1_15function_bufferERSC_NS1_30functor_manager_operation_typeE@Base 1.1.0
 (optional=templinst)_ZN5boost6detail8function15functor_managerIPFvRNS_15program_options13variables_mapEEE6manageERKNS1_15function_bufferERS9_NS1_30functor_manager_operation_typeE@Base 1.1.0
 (optional=templinst)_ZN5boost6detail8function15functor_managerIPFvvEE6manageERKNS1_15function_bufferERS6_NS1_30functor_manager_operation_typeE@Base 1.1.0
 _ZN5boost6detail8function16has_empty_targetEz@Base 1.1.0
 (optional=templinst)_ZN5boost6detail8function17function_invoker1IPFbdEbdE6invokeERNS1_15function_bufferEd@Base 1.1.0
 (optional=templinst)_ZN5boost6detail8function21function_obj_invoker1INS_3_bi6bind_tIbNS_4_mfi3mf3IbN5cnoid15GraphWidgetImplEdbbEENS3_5list4INS3_5valueIPS8_EENS_3argILi1EEENSB_IbEESG_EEEEbdE6invokeERNS1_15function_bufferEd@Base 1.1.0
 (optional=templinst)_ZN5boost6detail8function21function_obj_invoker1INS_3_bi6bind_tIbPFbPN5cnoid12MultiSeqBaseEdENS3_5list2INS3_5valueIS7_EENS_3argILi1EEEEEEEbdE6invokeERNS1_15function_bufferEd@Base 1.1.0
 (optional=templinst)_ZN5boost6detail8function21function_obj_invoker1INS_3_bi6bind_tIbPFbPN5cnoid12MultiSeqBaseEiENS3_5list2INS3_5valueIS7_EENS_3argILi1EEEEEEEbiE6invokeERNS1_15function_bufferEi@Base 1.1.0
 (optional=templinst)_ZN5boost6detail8function21function_obj_invoker1INS_3_bi6bind_tIbPFbPN5cnoid4ItemERKSsENS3_5list2INS3_5valueIS7_EENS_3argILi1EEEEEEEbS9_E6invokeERNS1_15function_bufferES9_@Base 1.1.0
 (optional=templinst)_ZN5boost6detail8function21function_obj_invoker2INS_7signals6detail20group_bridge_compareISt4lessIiEiEEbNS4_12stored_groupES9_E6invokeERNS1_15function_bufferES9_S9_@Base 1.1.0
 (optional=templinst)_ZN5boost6detail8function21function_obj_invoker2INS_9algorithm6detail13token_finderFINS4_10is_any_ofFIcEEEENS_14iterator_rangeIN9__gnu_cxx17__normal_iteratorIPKcSsEEEESE_SE_E6invokeERNS1_15function_bufferESE_SE_@Base 1.1.0
 (optional=templinst)_ZN5boost6detail8function21function_obj_invoker4INS_3_bi6bind_tIbPFbPN5cnoid12MultiSeqItemINS5_13MultiValueSeqEEERKSsRSoENS3_5list3INS_3argILi1EEENSG_ILi2EEENSG_ILi3EEEEEEEbS9_SB_SC_PNS5_4ItemEE6invokeERNS1_15function_bufferES9_SB_SC_SN_@Base 1.1.0
 (optional=templinst)_ZN5boost6detail8function21function_obj_invoker4INS_3_bi6bind_tIbPFbPN5cnoid9SceneItemERKSsRSoENS3_5list3INS_3argILi1EEENSE_ILi2EEENSE_ILi3EEEEEEEbS7_S9_SA_PNS5_4ItemEE6invokeERNS1_15function_bufferES7_S9_SA_SL_@Base 1.1.0
 (optional=templinst)_ZN5boost6detail8function22functor_manager_commonINS_3_bi6bind_tIbPFbPN5cnoid9SceneItemERKSsRSoENS3_5list3INS_3argILi1EEENSE_ILi2EEENSE_ILi3EEEEEEEE12manage_smallERKNS1_15function_bufferERSL_NS1_30functor_manager_operation_typeE@Base 1.1.0
 (optional=templinst)_ZN5boost6detail8function22functor_manager_commonINS_3_bi6bind_tIvNS_4_mfi3mf0IvN5cnoid13SceneViewImplEEENS3_5list1INS3_5valueIPS8_EEEEEEE12manage_smallERKNS1_15function_bufferERSH_NS1_30functor_manager_operation_typeE@Base 1.1.0
 (optional=templinst)_ZN5boost6detail8function22functor_manager_commonINS_3_bi6bind_tIvNS_4_mfi3mf0IvN5cnoid15GraphWidgetImplEEENS3_5list1INS3_5valueIPS8_EEEEEEE12manage_smallERKNS1_15function_bufferERSH_NS1_30functor_manager_operation_typeE@Base 1.1.0
 (optional=templinst)_ZN5boost6detail8function22functor_manager_commonINS_3_bi6bind_tIvNS_4_mfi3mf0IvN5cnoid15ItemManagerImplEEENS3_5list1INS3_5valueIPS8_EEEEEEE12manage_smallERKNS1_15function_bufferERSH_NS1_30functor_manager_operation_typeE@Base 1.1.0
 (optional=templinst)_ZN5boost6detail8function22functor_manager_commonINS_3_bi6bind_tIvNS_4_mfi3mf0IvN5cnoid17PluginManagerImplEEENS3_5list1INS3_5valueIPS8_EEEEEEE12manage_smallERKNS1_15function_bufferERSH_NS1_30functor_manager_operation_typeE@Base 1.1.0
 (optional=templinst)_ZN5boost6detail8function22functor_manager_commonINS_3_bi6bind_tIvNS_4_mfi3mf0IvN5cnoid18ProjectManagerImplEEENS3_5list1INS3_5valueIPS8_EEEEEEE12manage_smallERKNS1_15function_bufferERSH_NS1_30functor_manager_operation_typeE@Base 1.1.0
 (optional=templinst)_ZN5boost6detail8function22functor_manager_commonINS_3_bi6bind_tIvNS_4_mfi3mf1IvN5cnoid13SceneViewImplEbEENS3_5list2INS3_5valueIPS8_EENS_3argILi1EEEEEEEE12manage_smallERKNS1_15function_bufferERSJ_NS1_30functor_manager_operation_typeE@Base 1.1.0
 (optional=templinst)_ZN5boost6detail8function22functor_manager_commonINS_3_bi6bind_tIvNS_4_mfi3mf1IvN5cnoid13SceneViewImplEiEENS3_5list2INS3_5valueIPS8_EENS_3argILi1EEEEEEEE12manage_smallERKNS1_15function_bufferERSJ_NS1_30functor_manager_operation_typeE@Base 1.1.0
 (optional=templinst)_ZN5boost6detail8function22functor_manager_commonINS_3_bi6bind_tIvNS_4_mfi3mf1IvN5cnoid15GraphWidgetImplEdEENS3_5list2INS3_5valueIPS8_EENS_3argILi1EEEEEEEE12manage_smallERKNS1_15function_bufferERSJ_NS1_30functor_manager_operation_typeE@Base 1.1.0
 (optional=templinst)_ZN5boost6detail8function22functor_manager_commonINS_3_bi6bind_tIvNS_4_mfi3mf1IvN5cnoid18ProjectManagerImplERNS_15program_options13variables_mapEEENS3_5list2INS3_5valueIPS8_EENS_3argILi1EEEEEEEE12manage_smallERKNS1_15function_bufferERSM_NS1_30functor_manager_operation_typeE@Base 1.1.0
 (optional=templinst)_ZN5boost6detail8function22functor_manager_commonINS_3_bi6bind_tIvPFvNS_10shared_ptrIN5cnoid15ItemManagerImpl6LoaderEEEENS3_5list1INS3_5valueIS9_EEEEEEE12manage_smallERKNS1_15function_bufferERSI_NS1_30functor_manager_operation_typeE@Base 1.1.0
 (optional=templinst)_ZN5boost6detail8function22functor_manager_commonINS_3_bi6bind_tIvPFvPN5cnoid15ItemManagerImpl17CreationPanelBaseEENS3_5list1INS3_5valueIS8_EEEEEEE12manage_smallERKNS1_15function_bufferERSH_NS1_30functor_manager_operation_typeE@Base 1.1.0
 (optional=templinst)_ZN5boost6detail8function22void_function_invoker0IPFvvEvE6invokeERNS1_15function_bufferE@Base 1.1.0
 (optional=templinst)_ZN5boost6detail8function22void_function_invoker1IPFvRKN5cnoid8ItemListINS3_4ItemEEEEvS8_E6invokeERNS1_15function_bufferES8_@Base 1.1.0
 (optional=templinst)_ZN5boost6detail8function22void_function_invoker1IPFvRNS_15program_options13variables_mapEEvS5_E6invokeERNS1_15function_bufferES5_@Base 1.1.0
 (optional=templinst)_ZN5boost6detail8function26void_function_obj_invoker0INS_3_bi6bind_tIbNS_4_mfi3mf0Ib7QWidgetEENS3_5list1INS3_5valueIPN5cnoid10MainWindowEEEEEEEvE6invokeERNS1_15function_bufferE@Base 1.1.0
 (optional=templinst)_ZN5boost6detail8function26void_function_obj_invoker0INS_3_bi6bind_tIbNS_4_mfi3mf0IbN5cnoid14LazySignalBaseEEENS3_5list1INS3_5valueIPS8_EEEEEEvE6invokeERNS1_15function_bufferE@Base 1.1.0
 (optional=templinst)_ZN5boost6detail8function26void_function_obj_invoker0INS_3_bi6bind_tIvNS_4_mfi3mf0IvN5cnoid10LazyCallerEEENS3_5list1INS3_5valueIPS8_EEEEEEvE6invokeERNS1_15function_bufferE@Base 1.1.0
 (optional=templinst)_ZN5boost6detail8function26void_function_obj_invoker0INS_3_bi6bind_tIvNS_4_mfi3mf0IvN5cnoid13SceneViewImplEEENS3_5list1INS3_5valueIPS8_EEEEEEvE6invokeERNS1_15function_bufferE@Base 1.1.0
 (optional=templinst)_ZN5boost6detail8function26void_function_obj_invoker0INS_3_bi6bind_tIvNS_4_mfi3mf0IvN5cnoid14MainWindowImplEEENS3_5list1INS3_5valueIPS8_EEEEEEvE6invokeERNS1_15function_bufferE@Base 1.1.0
 (optional=templinst)_ZN5boost6detail8function26void_function_obj_invoker0INS_3_bi6bind_tIvNS_4_mfi3mf0IvN5cnoid15GraphWidgetImplEEENS3_5list1INS3_5valueIPS8_EEEEEEvE6invokeERNS1_15function_bufferE@Base 1.1.0
 (optional=templinst)_ZN5boost6detail8function26void_function_obj_invoker0INS_3_bi6bind_tIvNS_4_mfi3mf0IvN5cnoid15ItemManagerImplEEENS3_5list1INS3_5valueIPS8_EEEEEEvE6invokeERNS1_15function_bufferE@Base 1.1.0
 (optional=templinst)_ZN5boost6detail8function26void_function_obj_invoker0INS_3_bi6bind_tIvNS_4_mfi3mf0IvN5cnoid15ToolBarAreaImplEEENS3_5list1INS3_5valueIPS8_EEEEEEvE6invokeERNS1_15function_bufferE@Base 1.1.0
 (optional=templinst)_ZN5boost6detail8function26void_function_obj_invoker0INS_3_bi6bind_tIvNS_4_mfi3mf0IvN5cnoid16ItemTreeViewImplEEENS3_5list1INS3_5valueIPS8_EEEEEEvE6invokeERNS1_15function_bufferE@Base 1.1.0
 (optional=templinst)_ZN5boost6detail8function26void_function_obj_invoker0INS_3_bi6bind_tIvNS_4_mfi3mf0IvN5cnoid17PluginManagerImplEEENS3_5list1INS3_5valueIPS8_EEEEEEvE6invokeERNS1_15function_bufferE@Base 1.1.0
 (optional=templinst)_ZN5boost6detail8function26void_function_obj_invoker0INS_3_bi6bind_tIvNS_4_mfi3mf0IvN5cnoid18ProjectManagerImplEEENS3_5list1INS3_5valueIPS8_EEEEEEvE6invokeERNS1_15function_bufferE@Base 1.1.0
 (optional=templinst)_ZN5boost6detail8function26void_function_obj_invoker0INS_3_bi6bind_tIvNS_4_mfi3mf0IvN5cnoid20ItemPropertyViewImplEEENS3_5list1INS3_5valueIPS8_EEEEEEvE6invokeERNS1_15function_bufferE@Base 1.1.0
 (optional=templinst)_ZN5boost6detail8function26void_function_obj_invoker0INS_3_bi6bind_tIvNS_4_mfi3mf0IvN5cnoid7AppImplEEENS3_5list1INS3_5valueIPS8_EEEEEEvE6invokeERNS1_15function_bufferE@Base 1.1.0
 (optional=templinst)_ZN5boost6detail8function26void_function_obj_invoker0INS_3_bi6bind_tIvNS_4_mfi3mf0IvN5cnoid7TimeBarEEENS3_5list1INS3_5valueIPS8_EEEEEEvE6invokeERNS1_15function_bufferE@Base 1.1.0
 (optional=templinst)_ZN5boost6detail8function26void_function_obj_invoker0INS_3_bi6bind_tIvNS_4_mfi3mf1IvN5cnoid15GraphWidgetImplENS_10shared_ptrINS7_16GraphDataHandlerEEEEENS3_5list2INS3_5valueIPS8_EENSE_ISB_EEEEEEvE6invokeERNS1_15function_bufferE@Base 1.1.0
 (optional=templinst)_ZN5boost6detail8function26void_function_obj_invoker0INS_3_bi6bind_tIvNS_4_mfi3mf1IvN5cnoid17PluginManagerImplEPNS8_10PluginInfoEEENS3_5list2INS3_5valueIPS8_EENSD_ISA_EEEEEEvE6invokeERNS1_15function_bufferE@Base 1.1.0
 (optional=templinst)_ZN5boost6detail8function26void_function_obj_invoker0INS_3_bi6bind_tIvPFvNS_10shared_ptrIN5cnoid15ItemManagerImpl6LoaderEEEENS3_5list1INS3_5valueIS9_EEEEEEvE6invokeERNS1_15function_bufferE@Base 1.1.0
 (optional=templinst)_ZN5boost6detail8function26void_function_obj_invoker0INS_3_bi6bind_tIvPFvPN5cnoid15ItemManagerImpl17CreationPanelBaseEENS3_5list1INS3_5valueIS8_EEEEEEvE6invokeERNS1_15function_bufferE@Base 1.1.0
 (optional=templinst)_ZN5boost6detail8function26void_function_obj_invoker1INS_3_bi6bind_tIbNS_4_mfi3mf1IbN5cnoid11TimeBarImplEdEENS3_5list2INS3_5valueIPS8_EENS_3argILi1EEEEEEEviE6invokeERNS1_15function_bufferEi@Base 1.1.0
 (optional=templinst)_ZN5boost6detail8function26void_function_obj_invoker1INS_3_bi6bind_tIbNS_4_mfi3mf2IbN5cnoid12ItemTreeViewENS_13intrusive_ptrINS7_4ItemEEEbEENS3_5list3INS3_5valueIPS8_EENS_3argILi1EEENSE_IbEEEEEEvSB_E6invokeERNS1_15function_bufferESB_@Base 1.1.0
 (optional=templinst)_ZN5boost6detail8function26void_function_obj_invoker1INS_3_bi6bind_tIvNS_4_mfi3mf0IvN5cnoid11TimeBarImplEEENS3_5list1INS3_5valueIPS8_EEEEEEvbE6invokeERNS1_15function_bufferEb@Base 1.1.0
 (optional=templinst)_ZN5boost6detail8function26void_function_obj_invoker1INS_3_bi6bind_tIvNS_4_mfi3mf0IvN5cnoid11TimeBarImplEEENS3_5list1INS3_5valueIPS8_EEEEEEvdE6invokeERNS1_15function_bufferEd@Base 1.1.0
 (optional=templinst)_ZN5boost6detail8function26void_function_obj_invoker1INS_3_bi6bind_tIvNS_4_mfi3mf0IvN5cnoid11TimeBarImplEEENS3_5list1INS3_5valueIPS8_EEEEEEviE6invokeERNS1_15function_bufferEi@Base 1.1.0
 (optional=templinst)_ZN5boost6detail8function26void_function_obj_invoker1INS_3_bi6bind_tIvNS_4_mfi3mf0IvN5cnoid12GraphBarImplEEENS3_5list1INS3_5valueIPS8_EEEEEEvbE6invokeERNS1_15function_bufferEb@Base 1.1.0
 (optional=templinst)_ZN5boost6detail8function26void_function_obj_invoker1INS_3_bi6bind_tIvNS_4_mfi3mf0IvN5cnoid12GraphBarImplEEENS3_5list1INS3_5valueIPS8_EEEEEEviE6invokeERNS1_15function_bufferEi@Base 1.1.0
 (optional=templinst)_ZN5boost6detail8function26void_function_obj_invoker1INS_3_bi6bind_tIvNS_4_mfi3mf0IvN5cnoid13SceneViewImplEEENS3_5list1INS3_5valueIPS8_EEEEEEvP7QActionE6invokeERNS1_15function_bufferESH_@Base 1.1.0
 (optional=templinst)_ZN5boost6detail8function26void_function_obj_invoker1INS_3_bi6bind_tIvNS_4_mfi3mf0IvN5cnoid13SceneViewImplEEENS3_5list1INS3_5valueIPS8_EEEEEEvbE6invokeERNS1_15function_bufferEb@Base 1.1.0
 (optional=templinst)_ZN5boost6detail8function26void_function_obj_invoker1INS_3_bi6bind_tIvNS_4_mfi3mf0IvN5cnoid13SceneViewImplEEENS3_5list1INS3_5valueIPS8_EEEEEEvdE6invokeERNS1_15function_bufferEd@Base 1.1.0
 (optional=templinst)_ZN5boost6detail8function26void_function_obj_invoker1INS_3_bi6bind_tIvNS_4_mfi3mf0IvN5cnoid14ProjectManagerEEENS3_5list1INS3_5valueIPS8_EEEEEEvbE6invokeERNS1_15function_bufferEb@Base 1.1.0
 (optional=templinst)_ZN5boost6detail8function26void_function_obj_invoker1INS_3_bi6bind_tIvNS_4_mfi3mf0IvN5cnoid18ProjectManagerImplEEENS3_5list1INS3_5valueIPS8_EEEEEEvbE6invokeERNS1_15function_bufferEb@Base 1.1.0
 (optional=templinst)_ZN5boost6detail8function26void_function_obj_invoker1INS_3_bi6bind_tIvNS_4_mfi3mf1IvN5cnoid11TimeBarImplEdEENS3_5list2INS3_5valueIPS8_EENS_3argILi1EEEEEEEvdE6invokeERNS1_15function_bufferEd@Base 1.1.0
 (optional=templinst)_ZN5boost6detail8function26void_function_obj_invoker1INS_3_bi6bind_tIvNS_4_mfi3mf1IvN5cnoid12GraphBarImplEbEENS3_5list2INS3_5valueIPS8_EENS_3argILi1EEEEEEEvbE6invokeERNS1_15function_bufferEb@Base 1.1.0
 (optional=templinst)_ZN5boost6detail8function26void_function_obj_invoker1INS_3_bi6bind_tIvNS_4_mfi3mf1IvN5cnoid12GraphBarImplEdEENS3_5list2INS3_5valueIPS8_EENS_3argILi1EEEEEEEvdE6invokeERNS1_15function_bufferEd@Base 1.1.0
 (optional=templinst)_ZN5boost6detail8function26void_function_obj_invoker1INS_3_bi6bind_tIvNS_4_mfi3mf1IvN5cnoid12GraphBarImplEiEENS3_5list2INS3_5valueIPS8_EENS_3argILi1EEEEEEEviE6invokeERNS1_15function_bufferEi@Base 1.1.0
 (optional=templinst)_ZN5boost6detail8function26void_function_obj_invoker1INS_3_bi6bind_tIvNS_4_mfi3mf1IvN5cnoid13SceneViewImplEbEENS3_5list2INS3_5valueIPS8_EENS_3argILi1EEEEEEEvbE6invokeERNS1_15function_bufferEb@Base 1.1.0
 (optional=templinst)_ZN5boost6detail8function26void_function_obj_invoker1INS_3_bi6bind_tIvNS_4_mfi3mf1IvN5cnoid13SceneViewImplEiEENS3_5list2INS3_5valueIPS8_EENS_3argILi1EEEEEEEviE6invokeERNS1_15function_bufferEi@Base 1.1.0
 (optional=templinst)_ZN5boost6detail8function26void_function_obj_invoker1INS_3_bi6bind_tIvNS_4_mfi3mf1IvN5cnoid14MainWindowImplEbEENS3_5list2INS3_5valueIPS8_EENS_3argILi1EEEEEEEvbE6invokeERNS1_15function_bufferEb@Base 1.1.0
 (optional=templinst)_ZN5boost6detail8function26void_function_obj_invoker1INS_3_bi6bind_tIvNS_4_mfi3mf1IvN5cnoid15GraphWidgetImplEdEENS3_5list2INS3_5valueIPS8_EENS_3argILi1EEEEEEEvdE6invokeERNS1_15function_bufferEd@Base 1.1.0
 (optional=templinst)_ZN5boost6detail8function26void_function_obj_invoker1INS_3_bi6bind_tIvNS_4_mfi3mf1IvN5cnoid16ItemTreeViewImplEPNS7_4ItemEEENS3_5list2INS3_5valueIPS8_EENS_3argILi1EEEEEEEvSA_E6invokeERNS1_15function_bufferESA_@Base 1.1.0
 (optional=templinst)_ZN5boost6detail8function26void_function_obj_invoker1INS_3_bi6bind_tIvNS_4_mfi3mf1IvN5cnoid18ProjectManagerImplERNS_15program_options13variables_mapEEENS3_5list2INS3_5valueIPS8_EENS_3argILi1EEEEEEEvSB_E6invokeERNS1_15function_bufferESB_@Base 1.1.0
 (optional=templinst)_ZN5boost6detail8function26void_function_obj_invoker1INS_3_bi6bind_tIvNS_4_mfi3mf1IvN5cnoid20ItemPropertyViewImplERKNS7_8ItemListINS7_4ItemEEEEENS3_5list2INS3_5valueIPS8_EENS_3argILi1EEEEEEEvSD_E6invokeERNS1_15function_bufferESD_@Base 1.1.0
 (optional=templinst)_ZN5boost6detail8function26void_function_obj_invoker1INS_3_bi6bind_tIvNS_4_mfi3mf2IvN5cnoid13SceneViewImplEbbEENS3_5list3INS3_5valueIPS8_EENS_3argILi1EEENSB_IbEEEEEEvbE6invokeERNS1_15function_bufferEb@Base 1.1.0
 (optional=templinst)_ZN5boost6detail8function26void_function_obj_invoker1INS_3_bi6bind_tIvNS_4_mfi3mf2IvN5cnoid16ItemTreeViewImplEPNS7_4ItemEPNS7_12ItemListBaseEEENS3_5list3INS3_5valueIPS8_EENS_3argILi1EEENSF_ISC_EEEEEEvSA_E6invokeERNS1_15function_bufferESA_@Base 1.1.0
 (optional=templinst)_ZN5boost6detail8function26void_function_obj_invoker2INS_3_bi6bind_tIvNS_4_mfi3mf2IvN5cnoid16ItemTreeViewImplEPNS7_4ItemEbEENS3_5list3INS3_5valueIPS8_EENS_3argILi1EEENSG_ILi2EEEEEEEvSA_bE6invokeERNS1_15function_bufferESA_b@Base 1.1.0
 (optional=templinst)_ZN5boost6signalIFvP15QTreeWidgetItemiENS_10last_valueIvEEiSt4lessIiENS_8functionIS3_EEED1Ev@Base 1.1.0
 (optional=templinst)_ZN5boost6signalIFvP15QTreeWidgetItemiENS_10last_valueIvEEiSt4lessIiENS_8functionIS3_EEED2Ev@Base 1.1.0
 (optional=templinst)_ZN5boost6signalIFvPKcENS_10last_valueIvEEiSt4lessIiENS_8functionIS3_EEED1Ev@Base 1.1.0
 (optional=templinst)_ZN5boost6signalIFvPKcENS_10last_valueIvEEiSt4lessIiENS_8functionIS3_EEED2Ev@Base 1.1.0
 (optional=templinst)_ZN5boost6signalIFvRK11QModelIndexENS_10last_valueIvEEiSt4lessIiENS_8functionIS4_EEED1Ev@Base 1.1.0
 (optional=templinst)_ZN5boost6signalIFvRK11QModelIndexENS_10last_valueIvEEiSt4lessIiENS_8functionIS4_EEED2Ev@Base 1.1.0
 (optional=templinst)_ZN5boost6signalIFvRK11QModelIndexS3_ENS_10last_valueIvEEiSt4lessIiENS_8functionIS4_EEED1Ev@Base 1.1.0
 (optional=templinst)_ZN5boost6signalIFvRK11QModelIndexS3_ENS_10last_valueIvEEiSt4lessIiENS_8functionIS4_EEED2Ev@Base 1.1.0
 (optional=templinst)_ZN5boost6signalIFvbENS_10last_valueIvEEiSt4lessIiENS_8functionIS1_EEED1Ev@Base 1.1.0
 (optional=templinst)_ZN5boost6signalIFvbENS_10last_valueIvEEiSt4lessIiENS_8functionIS1_EEED2Ev@Base 1.1.0
 (optional=templinst)_ZN5boost6signalIFvvENS_10last_valueIvEEiSt4lessIiENS_8functionIS1_EEED1Ev@Base 1.1.0
 (optional=templinst)_ZN5boost6signalIFvvENS_10last_valueIvEEiSt4lessIiENS_8functionIS1_EEED2Ev@Base 1.1.0
 _ZN5boost6system10error_code21unspecified_bool_trueEv@Base 1.1.0
 _ZN5boost6system12system_errorD0Ev@Base 1.1.0
 _ZN5boost6system12system_errorD1Ev@Base 1.1.0
 _ZN5boost6system12system_errorD2Ev@Base 1.1.0
 _ZN5boost6system14error_categoryD0Ev@Base 1.1.0
 _ZN5boost6system14error_categoryD1Ev@Base 1.1.0
 _ZN5boost6system14error_categoryD2Ev@Base 1.1.0
 _ZN5boost7bad_getD0Ev@Base 1.1.0
 _ZN5boost7bad_getD1Ev@Base 1.1.0
 _ZN5boost7bad_getD2Ev@Base 1.1.0
 (optional=templinst)_ZN5boost7signal0IvNS_10last_valueIvEEiSt4lessIiENS_8functionIFvvEEEE7connectERKNS_4slotIS7_EENS_7signals16connect_positionE@Base 1.1.0
 (optional=templinst)_ZN5boost7signal0IvNS_10last_valueIvEEiSt4lessIiENS_8functionIFvvEEEEC1ERKS2_RKS4_@Base 1.1.0
 (optional=templinst)_ZN5boost7signal0IvNS_10last_valueIvEEiSt4lessIiENS_8functionIFvvEEEEC2ERKS2_RKS4_@Base 1.1.0
 (optional=templinst)_ZN5boost7signal0IvNS_10last_valueIvEEiSt4lessIiENS_8functionIFvvEEEED1Ev@Base 1.1.0
 (optional=templinst)_ZN5boost7signal0IvNS_10last_valueIvEEiSt4lessIiENS_8functionIFvvEEEED2Ev@Base 1.1.0
 (optional=templinst)_ZN5boost7signal0IvNS_10last_valueIvEEiSt4lessIiENS_8functionIFvvEEEEclEv@Base 1.1.0
 (optional=templinst)_ZN5boost7signal1IbdN5cnoid7TimeBar10LogicalSumEiSt4lessIiENS_8functionIFbdEEEE7connectERKNS_4slotIS8_EENS_7signals16connect_positionE@Base 1.1.0
 (optional=templinst)_ZN5boost7signal1IbdN5cnoid7TimeBar10LogicalSumEiSt4lessIiENS_8functionIFbdEEEEC1ERKS3_RKS5_@Base 1.1.0
 (optional=templinst)_ZN5boost7signal1IbdN5cnoid7TimeBar10LogicalSumEiSt4lessIiENS_8functionIFbdEEEEC2ERKS3_RKS5_@Base 1.1.0
 (optional=templinst)_ZN5boost7signal1IbdN5cnoid7TimeBar10LogicalSumEiSt4lessIiENS_8functionIFbdEEEED1Ev@Base 1.1.0
 (optional=templinst)_ZN5boost7signal1IbdN5cnoid7TimeBar10LogicalSumEiSt4lessIiENS_8functionIFbdEEEED2Ev@Base 1.1.0
 (optional=templinst)_ZN5boost7signal1IbdN5cnoid7TimeBar10LogicalSumEiSt4lessIiENS_8functionIFbdEEEEclEd@Base 1.1.0
 (optional=templinst)_ZN5boost7signal1IbdN5cnoid7TimeBar14LogicalProductEiSt4lessIiENS_8functionIFbdEEEEC1ERKS3_RKS5_@Base 1.1.0
 (optional=templinst)_ZN5boost7signal1IbdN5cnoid7TimeBar14LogicalProductEiSt4lessIiENS_8functionIFbdEEEEC2ERKS3_RKS5_@Base 1.1.0
 (optional=templinst)_ZN5boost7signal1IbdN5cnoid7TimeBar14LogicalProductEiSt4lessIiENS_8functionIFbdEEEED1Ev@Base 1.1.0
 (optional=templinst)_ZN5boost7signal1IbdN5cnoid7TimeBar14LogicalProductEiSt4lessIiENS_8functionIFbdEEEED2Ev@Base 1.1.0
 (optional=templinst)_ZN5boost7signal1IbdN5cnoid7TimeBar14LogicalProductEiSt4lessIiENS_8functionIFbdEEEEclEd@Base 1.1.0
 (optional=templinst)_ZN5boost7signal1IvP15QTreeWidgetItemNS_10last_valueIvEEiSt4lessIiENS_8functionIFvS2_EEEED1Ev@Base 1.1.0
 (optional=templinst)_ZN5boost7signal1IvP15QTreeWidgetItemNS_10last_valueIvEEiSt4lessIiENS_8functionIFvS2_EEEED2Ev@Base 1.1.0
 (optional=templinst)_ZN5boost7signal1IvP15QTreeWidgetItemNS_10last_valueIvEEiSt4lessIiENS_8functionIFvS2_EEEEclES2_@Base 1.1.0
 (optional=templinst)_ZN5boost7signal1IvP7QActionNS_10last_valueIvEEiSt4lessIiENS_8functionIFvS2_EEEE7connectERKNS_4slotIS9_EENS_7signals16connect_positionE@Base 1.1.0
 (optional=templinst)_ZN5boost7signal1IvP7QActionNS_10last_valueIvEEiSt4lessIiENS_8functionIFvS2_EEEED1Ev@Base 1.1.0
 (optional=templinst)_ZN5boost7signal1IvP7QActionNS_10last_valueIvEEiSt4lessIiENS_8functionIFvS2_EEEED2Ev@Base 1.1.0
 (optional=templinst)_ZN5boost7signal1IvP7QActionNS_10last_valueIvEEiSt4lessIiENS_8functionIFvS2_EEEEclES2_@Base 1.1.0
 (optional=templinst)_ZN5boost7signal1IvPKcNS_10last_valueIvEEiSt4lessIiENS_8functionIFvS2_EEEEC1ERKS4_RKS6_@Base 1.1.0
 (optional=templinst)_ZN5boost7signal1IvPKcNS_10last_valueIvEEiSt4lessIiENS_8functionIFvS2_EEEEC2ERKS4_RKS6_@Base 1.1.0
 (optional=templinst)_ZN5boost7signal1IvPKcNS_10last_valueIvEEiSt4lessIiENS_8functionIFvS2_EEEEclES2_@Base 1.1.0
 (optional=templinst)_ZN5boost7signal1IvPN5cnoid4ItemENS_10last_valueIvEEiSt4lessIiENS_8functionIFvS3_EEEE7connectERKNS_4slotISA_EENS_7signals16connect_positionE@Base 1.1.0
 (optional=templinst)_ZN5boost7signal1IvPN5cnoid4ItemENS_10last_valueIvEEiSt4lessIiENS_8functionIFvS3_EEEED1Ev@Base 1.1.0
 (optional=templinst)_ZN5boost7signal1IvPN5cnoid4ItemENS_10last_valueIvEEiSt4lessIiENS_8functionIFvS3_EEEED2Ev@Base 1.1.0
 (optional=templinst)_ZN5boost7signal1IvPN5cnoid4ItemENS_10last_valueIvEEiSt4lessIiENS_8functionIFvS3_EEEEclES3_@Base 1.1.0
 (optional=templinst)_ZN5boost7signal1IvPN5cnoid8RootItemENS_10last_valueIvEEiSt4lessIiENS_8functionIFvS3_EEEED1Ev@Base 1.1.0
 (optional=templinst)_ZN5boost7signal1IvPN5cnoid8RootItemENS_10last_valueIvEEiSt4lessIiENS_8functionIFvS3_EEEED2Ev@Base 1.1.0
 (optional=templinst)_ZN5boost7signal1IvPN5cnoid8RootItemENS_10last_valueIvEEiSt4lessIiENS_8functionIFvS3_EEEEclES3_@Base 1.1.0
 (optional=templinst)_ZN5boost7signal1IvRK11QModelIndexNS_10last_valueIvEEiSt4lessIiENS_8functionIFvS3_EEEEclES3_@Base 1.1.0
 (optional=templinst)_ZN5boost7signal1IvRK7QStringNS_10last_valueIvEEiSt4lessIiENS_8functionIFvS3_EEEED1Ev@Base 1.1.0
 (optional=templinst)_ZN5boost7signal1IvRK7QStringNS_10last_valueIvEEiSt4lessIiENS_8functionIFvS3_EEEED2Ev@Base 1.1.0
 (optional=templinst)_ZN5boost7signal1IvRK7QStringNS_10last_valueIvEEiSt4lessIiENS_8functionIFvS3_EEEEclES3_@Base 1.1.0
 (optional=templinst)_ZN5boost7signal1IvRKN5cnoid8ItemListINS1_4ItemEEENS_10last_valueIvEEiSt4lessIiENS_8functionIFvS6_EEEE7connectERKNS_4slotISD_EENS_7signals16connect_positionE@Base 1.1.0
 (optional=templinst)_ZN5boost7signal1IvRKN5cnoid8ItemListINS1_4ItemEEENS_10last_valueIvEEiSt4lessIiENS_8functionIFvS6_EEEEC1ERKS8_RKSA_@Base 1.1.0
 (optional=templinst)_ZN5boost7signal1IvRKN5cnoid8ItemListINS1_4ItemEEENS_10last_valueIvEEiSt4lessIiENS_8functionIFvS6_EEEEC2ERKS8_RKSA_@Base 1.1.0
 (optional=templinst)_ZN5boost7signal1IvRKN5cnoid8ItemListINS1_4ItemEEENS_10last_valueIvEEiSt4lessIiENS_8functionIFvS6_EEEED1Ev@Base 1.1.0
 (optional=templinst)_ZN5boost7signal1IvRKN5cnoid8ItemListINS1_4ItemEEENS_10last_valueIvEEiSt4lessIiENS_8functionIFvS6_EEEED2Ev@Base 1.1.0
 (optional=templinst)_ZN5boost7signal1IvRKN5cnoid8ItemListINS1_4ItemEEENS_10last_valueIvEEiSt4lessIiENS_8functionIFvS6_EEEEclES6_@Base 1.1.0
 (optional=templinst)_ZN5boost7signal1IvRNS_15program_options13variables_mapENS_10last_valueIvEEiSt4lessIiENS_8functionIFvS3_EEEE7connectERKNS_4slotISA_EENS_7signals16connect_positionE@Base 1.1.0
 (optional=templinst)_ZN5boost7signal1IvRNS_15program_options13variables_mapENS_10last_valueIvEEiSt4lessIiENS_8functionIFvS3_EEEEclES3_@Base 1.1.0
 (optional=templinst)_ZN5boost7signal1IvbNS_10last_valueIvEEiSt4lessIiENS_8functionIFvbEEEE7connectERKNS_4slotIS7_EENS_7signals16connect_positionE@Base 1.1.0
 (optional=templinst)_ZN5boost7signal1IvbNS_10last_valueIvEEiSt4lessIiENS_8functionIFvbEEEEC1ERKS2_RKS4_@Base 1.1.0
 (optional=templinst)_ZN5boost7signal1IvbNS_10last_valueIvEEiSt4lessIiENS_8functionIFvbEEEEC2ERKS2_RKS4_@Base 1.1.0
 (optional=templinst)_ZN5boost7signal1IvbNS_10last_valueIvEEiSt4lessIiENS_8functionIFvbEEEED1Ev@Base 1.1.0
 (optional=templinst)_ZN5boost7signal1IvbNS_10last_valueIvEEiSt4lessIiENS_8functionIFvbEEEED2Ev@Base 1.1.0
 (optional=templinst)_ZN5boost7signal1IvbNS_10last_valueIvEEiSt4lessIiENS_8functionIFvbEEEEclEb@Base 1.1.0
 (optional=templinst)_ZN5boost7signal1IvdNS_10last_valueIvEEiSt4lessIiENS_8functionIFvdEEEE7connectERKNS_4slotIS7_EENS_7signals16connect_positionE@Base 1.1.0
 (optional=templinst)_ZN5boost7signal1IvdNS_10last_valueIvEEiSt4lessIiENS_8functionIFvdEEEEC1ERKS2_RKS4_@Base 1.1.0
 (optional=templinst)_ZN5boost7signal1IvdNS_10last_valueIvEEiSt4lessIiENS_8functionIFvdEEEEC2ERKS2_RKS4_@Base 1.1.0
 (optional=templinst)_ZN5boost7signal1IvdNS_10last_valueIvEEiSt4lessIiENS_8functionIFvdEEEED1Ev@Base 1.1.0
 (optional=templinst)_ZN5boost7signal1IvdNS_10last_valueIvEEiSt4lessIiENS_8functionIFvdEEEED2Ev@Base 1.1.0
 (optional=templinst)_ZN5boost7signal1IvdNS_10last_valueIvEEiSt4lessIiENS_8functionIFvdEEEEclEd@Base 1.1.0
 (optional=templinst)_ZN5boost7signal1IviNS_10last_valueIvEEiSt4lessIiENS_8functionIFviEEEE13do_disconnectINS_3_bi6bind_tIvNS_4_mfi3mf1IvN5cnoid13SceneViewImplEiEENSA_5list2INSA_5valueIPSF_EENS_3argILi1EEEEEEEEEvRKT_N4mpl_5bool_ILb0EEE@Base 1.1.0
 (optional=templinst)_ZN5boost7signal1IviNS_10last_valueIvEEiSt4lessIiENS_8functionIFviEEEE7connectERKNS_4slotIS7_EENS_7signals16connect_positionE@Base 1.1.0
 (optional=templinst)_ZN5boost7signal1IviNS_10last_valueIvEEiSt4lessIiENS_8functionIFviEEEED1Ev@Base 1.1.0
 (optional=templinst)_ZN5boost7signal1IviNS_10last_valueIvEEiSt4lessIiENS_8functionIFviEEEED2Ev@Base 1.1.0
 (optional=templinst)_ZN5boost7signal1IviNS_10last_valueIvEEiSt4lessIiENS_8functionIFviEEEEclEi@Base 1.1.0
 (optional=templinst)_ZN5boost7signal2IvP15QTreeWidgetItemS2_NS_10last_valueIvEEiSt4lessIiENS_8functionIFvS2_S2_EEEED1Ev@Base 1.1.0
 (optional=templinst)_ZN5boost7signal2IvP15QTreeWidgetItemS2_NS_10last_valueIvEEiSt4lessIiENS_8functionIFvS2_S2_EEEED2Ev@Base 1.1.0
 (optional=templinst)_ZN5boost7signal2IvP15QTreeWidgetItemS2_NS_10last_valueIvEEiSt4lessIiENS_8functionIFvS2_S2_EEEEclES2_S2_@Base 1.1.0
 (optional=templinst)_ZN5boost7signal2IvP15QTreeWidgetItemiNS_10last_valueIvEEiSt4lessIiENS_8functionIFvS2_iEEEEclES2_i@Base 1.1.0
 (optional=templinst)_ZN5boost7signal2IvPN5cnoid4ItemEbNS_10last_valueIvEEiSt4lessIiENS_8functionIFvS3_bEEEE7connectERKNS_4slotISA_EENS_7signals16connect_positionE@Base 1.1.0
 (optional=templinst)_ZN5boost7signal2IvPN5cnoid4ItemEbNS_10last_valueIvEEiSt4lessIiENS_8functionIFvS3_bEEEEC1ERKS5_RKS7_@Base 1.1.0
 (optional=templinst)_ZN5boost7signal2IvPN5cnoid4ItemEbNS_10last_valueIvEEiSt4lessIiENS_8functionIFvS3_bEEEEC2ERKS5_RKS7_@Base 1.1.0
 (optional=templinst)_ZN5boost7signal2IvPN5cnoid4ItemEbNS_10last_valueIvEEiSt4lessIiENS_8functionIFvS3_bEEEED1Ev@Base 1.1.0
 (optional=templinst)_ZN5boost7signal2IvPN5cnoid4ItemEbNS_10last_valueIvEEiSt4lessIiENS_8functionIFvS3_bEEEED2Ev@Base 1.1.0
 (optional=templinst)_ZN5boost7signal2IvPN5cnoid4ItemEbNS_10last_valueIvEEiSt4lessIiENS_8functionIFvS3_bEEEEclES3_b@Base 1.1.0
 (optional=templinst)_ZN5boost7signal2IvRK11QModelIndexS3_NS_10last_valueIvEEiSt4lessIiENS_8functionIFvS3_S3_EEEED1Ev@Base 1.1.0
 (optional=templinst)_ZN5boost7signal2IvRK11QModelIndexS3_NS_10last_valueIvEEiSt4lessIiENS_8functionIFvS3_S3_EEEED2Ev@Base 1.1.0
 (optional=templinst)_ZN5boost7signal2IvRK11QModelIndexS3_NS_10last_valueIvEEiSt4lessIiENS_8functionIFvS3_S3_EEEEclES3_S3_@Base 1.1.0
 (optional=templinst)_ZN5boost7signal2IvRK14QItemSelectionS3_NS_10last_valueIvEEiSt4lessIiENS_8functionIFvS3_S3_EEEED1Ev@Base 1.1.0
 (optional=templinst)_ZN5boost7signal2IvRK14QItemSelectionS3_NS_10last_valueIvEEiSt4lessIiENS_8functionIFvS3_S3_EEEED2Ev@Base 1.1.0
 (optional=templinst)_ZN5boost7signal2IvRK14QItemSelectionS3_NS_10last_valueIvEEiSt4lessIiENS_8functionIFvS3_S3_EEEEclES3_S3_@Base 1.1.0
 (optional=templinst)_ZN5boost7signal2IvdbNS_10last_valueIvEEiSt4lessIiENS_8functionIFvdbEEEEC1ERKS2_RKS4_@Base 1.1.0
 (optional=templinst)_ZN5boost7signal2IvdbNS_10last_valueIvEEiSt4lessIiENS_8functionIFvdbEEEEC2ERKS2_RKS4_@Base 1.1.0
 (optional=templinst)_ZN5boost7signal2IvdbNS_10last_valueIvEEiSt4lessIiENS_8functionIFvdbEEEEclEdb@Base 1.1.0
 (optional=templinst)_ZN5boost7signal2IviiNS_10last_valueIvEEiSt4lessIiENS_8functionIFviiEEEED1Ev@Base 1.1.0
 (optional=templinst)_ZN5boost7signal2IviiNS_10last_valueIvEEiSt4lessIiENS_8functionIFviiEEEED2Ev@Base 1.1.0
 (optional=templinst)_ZN5boost7signal2IviiNS_10last_valueIvEEiSt4lessIiENS_8functionIFviiEEEEclEii@Base 1.1.0
 (optional=templinst)_ZN5boost7signals6detail18slot_call_iteratorINS1_11call_bound0IvE6callerINS_8functionIFvvEEEEENS1_23named_slot_map_iteratorEEC1ESA_SA_S9_RNS_8optionalINS1_8unusableEEE@Base 1.1.0
 (optional=templinst)_ZN5boost7signals6detail18slot_call_iteratorINS1_11call_bound0IvE6callerINS_8functionIFvvEEEEENS1_23named_slot_map_iteratorEEC2ESA_SA_S9_RNS_8optionalINS1_8unusableEEE@Base 1.1.0
 (optional=templinst)_ZN5boost7signals6detail18slot_call_iteratorINS1_11call_bound1IbE6callerIdNS_8functionIFbdEEEEENS1_23named_slot_map_iteratorEEC1ESA_SA_S9_RNS_8optionalIbEE@Base 1.1.0
 (optional=templinst)_ZN5boost7signals6detail18slot_call_iteratorINS1_11call_bound1IbE6callerIdNS_8functionIFbdEEEEENS1_23named_slot_map_iteratorEEC2ESA_SA_S9_RNS_8optionalIbEE@Base 1.1.0
 (optional=templinst)_ZN5boost7signals6detail18slot_call_iteratorINS1_11call_bound1IvE6callerIPKcNS_8functionIFvS7_EEEEENS1_23named_slot_map_iteratorEEC1ESC_SC_SB_RNS_8optionalINS1_8unusableEEE@Base 1.1.0
 (optional=templinst)_ZN5boost7signals6detail18slot_call_iteratorINS1_11call_bound1IvE6callerIPKcNS_8functionIFvS7_EEEEENS1_23named_slot_map_iteratorEEC2ESC_SC_SB_RNS_8optionalINS1_8unusableEEE@Base 1.1.0
 (optional=templinst)_ZN5boost7signals6detail18slot_call_iteratorINS1_11call_bound1IvE6callerIRKN5cnoid8ItemListINS6_4ItemEEENS_8functionIFvSB_EEEEENS1_23named_slot_map_iteratorEEC1ESG_SG_SF_RNS_8optionalINS1_8unusableEEE@Base 1.1.0
 (optional=templinst)_ZN5boost7signals6detail18slot_call_iteratorINS1_11call_bound1IvE6callerIRKN5cnoid8ItemListINS6_4ItemEEENS_8functionIFvSB_EEEEENS1_23named_slot_map_iteratorEEC2ESG_SG_SF_RNS_8optionalINS1_8unusableEEE@Base 1.1.0
 (optional=templinst)_ZN5boost7signals6detail18slot_call_iteratorINS1_11call_bound1IvE6callerIbNS_8functionIFvbEEEEENS1_23named_slot_map_iteratorEEC1ESA_SA_S9_RNS_8optionalINS1_8unusableEEE@Base 1.1.0
 (optional=templinst)_ZN5boost7signals6detail18slot_call_iteratorINS1_11call_bound1IvE6callerIbNS_8functionIFvbEEEEENS1_23named_slot_map_iteratorEEC2ESA_SA_S9_RNS_8optionalINS1_8unusableEEE@Base 1.1.0
 (optional=templinst)_ZN5boost7signals6detail18slot_call_iteratorINS1_11call_bound1IvE6callerIdNS_8functionIFvdEEEEENS1_23named_slot_map_iteratorEEC1ESA_SA_S9_RNS_8optionalINS1_8unusableEEE@Base 1.1.0
 (optional=templinst)_ZN5boost7signals6detail18slot_call_iteratorINS1_11call_bound1IvE6callerIdNS_8functionIFvdEEEEENS1_23named_slot_map_iteratorEEC2ESA_SA_S9_RNS_8optionalINS1_8unusableEEE@Base 1.1.0
 (optional=templinst)_ZN5boost7signals6detail18slot_call_iteratorINS1_11call_bound2IvE6callerIPN5cnoid4ItemEbNS_8functionIFvS8_bEEEEENS1_23named_slot_map_iteratorEEC1ESD_SD_SC_RNS_8optionalINS1_8unusableEEE@Base 1.1.0
 (optional=templinst)_ZN5boost7signals6detail18slot_call_iteratorINS1_11call_bound2IvE6callerIPN5cnoid4ItemEbNS_8functionIFvS8_bEEEEENS1_23named_slot_map_iteratorEEC2ESD_SD_SC_RNS_8optionalINS1_8unusableEEE@Base 1.1.0
 (optional=templinst)_ZN5boost7signals6detail18slot_call_iteratorINS1_11call_bound2IvE6callerIdbNS_8functionIFvdbEEEEENS1_23named_slot_map_iteratorEEC1ESA_SA_S9_RNS_8optionalINS1_8unusableEEE@Base 1.1.0
 (optional=templinst)_ZN5boost7signals6detail18slot_call_iteratorINS1_11call_bound2IvE6callerIdbNS_8functionIFvdbEEEEENS1_23named_slot_map_iteratorEEC2ESA_SA_S9_RNS_8optionalINS1_8unusableEEE@Base 1.1.0
 _ZN5boost7signals6detail23named_slot_map_iterator15init_next_groupEv@Base 1.1.0
 _ZN5boost7signals6detail9slot_base6data_tD1Ev@Base 1.1.0
 _ZN5boost7signals6detail9slot_base6data_tD2Ev@Base 1.1.0
 _ZN5boost7signals6detail9slot_baseD1Ev@Base 1.1.0
 _ZN5boost7signals6detail9slot_baseD2Ev@Base 1.1.0
 (optional=templinst)_ZN5boost7variantINS_8functionIFbbEEENS1_IFbiEEENS1_IFbdEEENS1_IFbRKSsEEES5_NS_6detail7variant5void_ESE_SE_SE_SE_SE_SE_SE_SE_SE_SE_SE_SE_SE_SE_E15destroy_contentEv@Base 1.1.0
 (optional=templinst)_ZN5boost7variantIbidSsN5cnoid9SelectionENS_6detail7variant5void_ES5_S5_S5_S5_S5_S5_S5_S5_S5_S5_S5_S5_S5_S5_E15destroy_contentEv@Base 1.1.0
 (optional=templinst)_ZN5boost8any_castIKSt6vectorISsSaISsEEEEPT_PNS_3anyE@Base 1.1.0
 (optional=templinst)_ZN5boost8any_castIRKSt6vectorISsSaISsEEEET_RNS_3anyE@Base 1.1.0
 (optional=templinst)_ZN5boost8any_castISt6vectorISsSaISsEEEEPT_PNS_3anyE@Base 1.1.0
 (optional=templinst)_ZN5boost8functionIFbRN5cnoid7ArchiveEEEaSERKS5_@Base 1.1.0
 (optional=templinst)_ZN5boost8functionIFbdEEC1INS_3_bi6bind_tIbNS_4_mfi3mf3IbN5cnoid15GraphWidgetImplEdbbEENS4_5list4INS4_5valueIPS9_EENS_3argILi1EEENSC_IbEESH_EEEEEET_NS_11enable_if_cIXsrNS_11type_traits7ice_notIXsrNS_11is_integralISK_EE5valueEEE5valueEiE4typeE@Base 1.1.0
 (optional=templinst)_ZN5boost8functionIFbdEEC2INS_3_bi6bind_tIbNS_4_mfi3mf3IbN5cnoid15GraphWidgetImplEdbbEENS4_5list4INS4_5valueIPS9_EENS_3argILi1EEENSC_IbEESH_EEEEEET_NS_11enable_if_cIXsrNS_11type_traits7ice_notIXsrNS_11is_integralISK_EE5valueEEE5valueEiE4typeE@Base 1.1.0
 (optional=templinst)_ZN5boost8functionIFvRKN5cnoid7ArchiveEEEaSERKS6_@Base 1.1.0
 (optional=templinst)_ZN5boost8functionIFvbEED1Ev@Base 1.1.0
 (optional=templinst)_ZN5boost8functionIFvbEED2Ev@Base 1.1.0
 (optional=templinst)_ZN5boost8functionIFviiPdEEaSERKS3_@Base 1.1.0
 (optional=templinst)_ZN5boost8functionIFvvEEC1INS_3_bi6bind_tIvNS_4_mfi3mf0IvN5cnoid15ItemManagerImplEEENS4_5list1INS4_5valueIPS9_EEEEEEEET_NS_11enable_if_cIXsrNS_11type_traits7ice_notIXsrNS_11is_integralISH_EE5valueEEE5valueEiE4typeE@Base 1.1.0
 (optional=templinst)_ZN5boost8functionIFvvEEC1INS_3_bi6bind_tIvNS_4_mfi3mf1IvN5cnoid15GraphWidgetImplENS_10shared_ptrINS8_16GraphDataHandlerEEEEENS4_5list2INS4_5valueIPS9_EENSF_ISC_EEEEEEEET_NS_11enable_if_cIXsrNS_11type_traits7ice_notIXsrNS_11is_integralISL_EE5valueEEE5valueEiE4typeE@Base 1.1.0
 (optional=templinst)_ZN5boost8functionIFvvEEC1INS_3_bi6bind_tIvNS_4_mfi3mf1IvN5cnoid17PluginManagerImplEPNS9_10PluginInfoEEENS4_5list2INS4_5valueIPS9_EENSE_ISB_EEEEEEEET_NS_11enable_if_cIXsrNS_11type_traits7ice_notIXsrNS_11is_integralISK_EE5valueEEE5valueEiE4typeE@Base 1.1.0
 (optional=templinst)_ZN5boost8functionIFvvEEC1INS_3_bi6bind_tIvPFvNS_10shared_ptrIN5cnoid15ItemManagerImpl6LoaderEEEENS4_5list1INS4_5valueISA_EEEEEEEET_NS_11enable_if_cIXsrNS_11type_traits7ice_notIXsrNS_11is_integralISI_EE5valueEEE5valueEiE4typeE@Base 1.1.0
 (optional=templinst)_ZN5boost8functionIFvvEEC2INS_3_bi6bind_tIvNS_4_mfi3mf0IvN5cnoid15ItemManagerImplEEENS4_5list1INS4_5valueIPS9_EEEEEEEET_NS_11enable_if_cIXsrNS_11type_traits7ice_notIXsrNS_11is_integralISH_EE5valueEEE5valueEiE4typeE@Base 1.1.0
 (optional=templinst)_ZN5boost8functionIFvvEEC2INS_3_bi6bind_tIvNS_4_mfi3mf1IvN5cnoid15GraphWidgetImplENS_10shared_ptrINS8_16GraphDataHandlerEEEEENS4_5list2INS4_5valueIPS9_EENSF_ISC_EEEEEEEET_NS_11enable_if_cIXsrNS_11type_traits7ice_notIXsrNS_11is_integralISL_EE5valueEEE5valueEiE4typeE@Base 1.1.0
 (optional=templinst)_ZN5boost8functionIFvvEEC2INS_3_bi6bind_tIvNS_4_mfi3mf1IvN5cnoid17PluginManagerImplEPNS9_10PluginInfoEEENS4_5list2INS4_5valueIPS9_EENSE_ISB_EEEEEEEET_NS_11enable_if_cIXsrNS_11type_traits7ice_notIXsrNS_11is_integralISK_EE5valueEEE5valueEiE4typeE@Base 1.1.0
 (optional=templinst)_ZN5boost8functionIFvvEEC2INS_3_bi6bind_tIvPFvNS_10shared_ptrIN5cnoid15ItemManagerImpl6LoaderEEEENS4_5list1INS4_5valueISA_EEEEEEEET_NS_11enable_if_cIXsrNS_11type_traits7ice_notIXsrNS_11is_integralISI_EE5valueEEE5valueEiE4typeE@Base 1.1.0
 (optional=templinst)_ZN5boost8functionIFvvEED1Ev@Base 1.1.0
 (optional=templinst)_ZN5boost8functionIFvvEED2Ev@Base 1.1.0
 (optional=templinst)_ZN5boost8optionalISt6localeED1Ev@Base 1.1.0
 (optional=templinst)_ZN5boost8optionalISt6localeED2Ev@Base 1.1.0
 (optional=templinst)_ZN5boost9algorithm10iter_splitISt6vectorISsSaISsEEKSsNS0_6detail13token_finderFINS6_10is_any_ofFIcEEEEEERT_SC_RT0_T1_@Base 1.1.0
 (optional=templinst)_ZN5boost9algorithm14split_iteratorIN9__gnu_cxx17__normal_iteratorIPKcSsEEED1Ev@Base 1.1.0
 (optional=templinst)_ZN5boost9algorithm14split_iteratorIN9__gnu_cxx17__normal_iteratorIPKcSsEEED2Ev@Base 1.1.0
 (optional=templinst)_ZN5boost9algorithm6detail10is_any_ofFIcED1Ev@Base 1.1.0
 (optional=templinst)_ZN5boost9algorithm6detail10is_any_ofFIcED2Ev@Base 1.1.0
 (optional=templinst)_ZN5boost9algorithm6detail13token_finderFINS1_10is_any_ofFIcEEED1Ev@Base 1.1.0
 (optional=templinst)_ZN5boost9algorithm6detail13token_finderFINS1_10is_any_ofFIcEEED2Ev@Base 1.1.0
 _ZN5boost9exceptionD0Ev@Base 1.1.0
 _ZN5boost9exceptionD1Ev@Base 1.1.0
 _ZN5boost9exceptionD2Ev@Base 1.1.0
 (optional=templinst)_ZN5boost9function0IvE5clearEv@Base 1.1.0
 (optional=templinst)_ZN5boost9function0IvE5dummy7nonnullEv@Base 1.1.0
 (optional=templinst)_ZN5boost9function0IvE9assign_toINS_3_bi6bind_tIvNS_4_mfi3mf1IvN5cnoid15GraphWidgetImplENS_10shared_ptrINS7_16GraphDataHandlerEEEEENS3_5list2INS3_5valueIPS8_EENSE_ISB_EEEEEEEEvT_@Base 1.1.0
 (optional=templinst)_ZN5boost9function0IvE9assign_toINS_3_bi6bind_tIvNS_4_mfi3mf1IvN5cnoid17PluginManagerImplEPNS8_10PluginInfoEEENS3_5list2INS3_5valueIPS8_EENSD_ISA_EEEEEEEEvT_@Base 1.1.0
 (optional=templinst)_ZN5boost9function0IvE9assign_toINS_3_bi6bind_tIvPFvNS_10shared_ptrIN5cnoid15ItemManagerImpl6LoaderEEEENS3_5list1INS3_5valueIS9_EEEEEEEEvT_@Base 1.1.0
 (optional=templinst)_ZN5boost9function0IvE9assign_toINS_3_bi6bind_tIvPFvPN5cnoid15ItemManagerImpl17CreationPanelBaseEENS3_5list1INS3_5valueIS8_EEEEEEEEvT_@Base 1.1.0
 (optional=templinst)_ZN5boost9function0IvEC1INS_3_bi6bind_tIvNS_4_mfi3mf1IvN5cnoid15GraphWidgetImplENS_10shared_ptrINS7_16GraphDataHandlerEEEEENS3_5list2INS3_5valueIPS8_EENSE_ISB_EEEEEEEET_NS_11enable_if_cIXsrNS_11type_traits7ice_notIXsrNS_11is_integralISK_EE5valueEEE5valueEiE4typeE@Base 1.1.0
 (optional=templinst)_ZN5boost9function0IvEC1INS_3_bi6bind_tIvPFvNS_10shared_ptrIN5cnoid15ItemManagerImpl6LoaderEEEENS3_5list1INS3_5valueIS9_EEEEEEEET_NS_11enable_if_cIXsrNS_11type_traits7ice_notIXsrNS_11is_integralISH_EE5valueEEE5valueEiE4typeE@Base 1.1.0
 (optional=templinst)_ZN5boost9function0IvEC2INS_3_bi6bind_tIvNS_4_mfi3mf1IvN5cnoid15GraphWidgetImplENS_10shared_ptrINS7_16GraphDataHandlerEEEEENS3_5list2INS3_5valueIPS8_EENSE_ISB_EEEEEEEET_NS_11enable_if_cIXsrNS_11type_traits7ice_notIXsrNS_11is_integralISK_EE5valueEEE5valueEiE4typeE@Base 1.1.0
 (optional=templinst)_ZN5boost9function0IvEC2INS_3_bi6bind_tIvPFvNS_10shared_ptrIN5cnoid15ItemManagerImpl6LoaderEEEENS3_5list1INS3_5valueIS9_EEEEEEEET_NS_11enable_if_cIXsrNS_11type_traits7ice_notIXsrNS_11is_integralISH_EE5valueEEE5valueEiE4typeE@Base 1.1.0
 (optional=templinst)_ZN5boost9function1INS_13intrusive_ptrIN5cnoid18TimeSyncItemEngineEEEPNS2_4ItemEE5clearEv@Base 1.1.0
 (optional=templinst)_ZN5boost9function1IbRN5cnoid7ArchiveEE11move_assignERS4_@Base 1.1.0
 (optional=templinst)_ZN5boost9function1IbRN5cnoid7ArchiveEE4swapERS4_@Base 1.1.0
 (optional=templinst)_ZN5boost9function1IbRN5cnoid7ArchiveEE5clearEv@Base 1.1.0
 (optional=templinst)_ZN5boost9function1IbdE5clearEv@Base 1.1.0
 (optional=templinst)_ZN5boost9function1IvNS_13intrusive_ptrIN5cnoid4ItemEEEE5clearEv@Base 1.1.0
 (optional=templinst)_ZN5boost9function1IvP7QActionE5clearEv@Base 1.1.0
 (optional=templinst)_ZN5boost9function1IvPN5cnoid4ItemEE5clearEv@Base 1.1.0
 (optional=templinst)_ZN5boost9function1IvRKN5cnoid7ArchiveEE11move_assignERS5_@Base 1.1.0
 (optional=templinst)_ZN5boost9function1IvRKN5cnoid7ArchiveEE4swapERS5_@Base 1.1.0
 (optional=templinst)_ZN5boost9function1IvRKN5cnoid7ArchiveEE5clearEv@Base 1.1.0
 (optional=templinst)_ZN5boost9function1IvRKN5cnoid8ItemListINS1_4ItemEEEE5clearEv@Base 1.1.0
 (optional=templinst)_ZN5boost9function1IvRKSt6vectorISsSaISsEEE5dummy7nonnullEv@Base 1.1.0
 (optional=templinst)_ZN5boost9function1IvRNS_15program_options13variables_mapEE5clearEv@Base 1.1.0
 (optional=templinst)_ZN5boost9function1IvbE5clearEv@Base 1.1.0
 (optional=templinst)_ZN5boost9function1IvbE9assign_toINS_3_bi6bind_tIvNS_4_mfi3mf2IvN5cnoid13SceneViewImplEbbEENS3_5list3INS3_5valueIPS8_EENS_3argILi1EEENSB_IbEEEEEEEEvT_@Base 1.1.0
 (optional=templinst)_ZN5boost9function1IvdE5clearEv@Base 1.1.0
 (optional=templinst)_ZN5boost9function1IviE5clearEv@Base 1.1.0
 (optional=templinst)_ZN5boost9function2IbNS_7signals6detail12stored_groupES3_E5clearEv@Base 1.1.0
 (optional=templinst)_ZN5boost9function2IvPN5cnoid4ItemEbE5clearEv@Base 1.1.0
 (optional=templinst)_ZN5boost9function3IviiPdE11move_assignERS2_@Base 1.1.0
 (optional=templinst)_ZN5boost9function3IviiPdE4swapERS2_@Base 1.1.0
 (optional=templinst)_ZN5boost9function3IviiPdE5clearEv@Base 1.1.0
 (optional=templinst)_ZN5boost9function3IviiPdE5dummy7nonnullEv@Base 1.1.0
 (optional=templinst)_ZN5boost9function4IbPN5cnoid12MultiSeqItemINS1_13MultiValueSeqEEERKSsRSoPNS1_4ItemEE5clearEv@Base 1.1.0
 (optional=templinst)_ZN5boost9function4IbPN5cnoid9SceneItemERKSsRSoPNS1_4ItemEE5clearEv@Base 1.1.0
 (optional=templinst)_ZN5boost9iostreams6detail11execute_allINS1_22member_close_operationINS1_16linked_streambufIcSt11char_traitsIcEEEEES8_EENS1_14execute_traitsIT_NS_9result_ofIFSA_vEE4typeEE11result_typeESA_T0_@Base 1.1.0
 (optional=templinst)_ZN5boost9iostreams6detail16linked_streambufIcSt11char_traitsIcEE8set_nextEPS5_@Base 1.1.0
 (optional=templinst)_ZN5boost9iostreams6detail16linked_streambufIcSt11char_traitsIcEED0Ev@Base 1.1.0
 (optional=templinst)_ZN5boost9iostreams6detail16linked_streambufIcSt11char_traitsIcEED1Ev@Base 1.1.0
 (optional=templinst)_ZN5boost9iostreams6detail16linked_streambufIcSt11char_traitsIcEED2Ev@Base 1.1.0
 (optional=templinst)_ZN5boostlsIcSt11char_traitsIcESaIcEEERSt13basic_ostreamIT_T0_ES8_RKNS_12basic_formatIS5_S6_T1_EE@Base 1.1.0
 _ZN5cnoid10FolderItem10initializeEPNS_16ExtensionManagerE@Base 1.1.0
 _ZN5cnoid10FolderItem5storeERNS_7ArchiveE@Base 1.1.0
 _ZN5cnoid10FolderItem7restoreERKNS_7ArchiveE@Base 1.1.0
 _ZN5cnoid10FolderItemC1ERKS0_@Base 1.1.0
 _ZN5cnoid10FolderItemC1ERKSs@Base 1.1.0
 _ZN5cnoid10FolderItemC1Ev@Base 1.1.0
 _ZN5cnoid10FolderItemC2ERKS0_@Base 1.1.0
 _ZN5cnoid10FolderItemC2ERKSs@Base 1.1.0
 _ZN5cnoid10FolderItemC2Ev@Base 1.1.0
 _ZN5cnoid10FolderItemD0Ev@Base 1.1.0
 _ZN5cnoid10FolderItemD1Ev@Base 1.1.0
 _ZN5cnoid10FolderItemD2Ev@Base 1.1.0
 _ZN5cnoid10HSeparatorD0Ev@Base 1.1.0
 _ZN5cnoid10HSeparatorD1Ev@Base 1.1.0
 _ZN5cnoid10HSeparatorD2Ev@Base 1.1.0
 _ZN5cnoid10LazyCaller11setPriorityEi@Base 1.1.0
 _ZN5cnoid10LazyCaller3setERKN5boost8functionIFvvEEEi@Base 1.1.0
 _ZN5cnoid10LazyCaller7requestEv@Base 1.1.0
 _ZN5cnoid10LazyCaller9onRequestEv@Base 1.1.0
 _ZN5cnoid10LazyCallerC1ERKN5boost8functionIFvvEEEi@Base 1.1.0
 _ZN5cnoid10LazyCallerC1Ev@Base 1.1.0
 _ZN5cnoid10LazyCallerC2ERKN5boost8functionIFvvEEEi@Base 1.1.0
 _ZN5cnoid10LazyCallerC2Ev@Base 1.1.0
 _ZN5cnoid10LazyCallerD1Ev@Base 1.1.0
 _ZN5cnoid10LazyCallerD2Ev@Base 1.1.0
 (optional=templinst)_ZN5cnoid10LazySignalIN5boost6signalIFvvENS1_10last_valueIvEEiSt4lessIiENS1_8functionIS3_EEEEE19defaultEmitFunctionEv@Base 1.1.0
 (optional=templinst)_ZN5cnoid10LazySignalIN5boost6signalIFvvENS1_10last_valueIvEEiSt4lessIiENS1_8functionIS3_EEEEED1Ev@Base 1.1.0
 (optional=templinst)_ZN5cnoid10LazySignalIN5boost6signalIFvvENS1_10last_valueIvEEiSt4lessIiENS1_8functionIS3_EEEEED2Ev@Base 1.1.0
 _ZN5cnoid10MainWindow10addToolBarEPNS_7ToolBarE@Base 1.1.0
 _ZN5cnoid10MainWindow10initializeEPKcPNS_16ExtensionManagerE@Base 1.1.0
 _ZN5cnoid10MainWindow10removeViewEPNS_4ViewE@Base 1.1.0
 _ZN5cnoid10MainWindow11allToolBarsEv@Base 1.1.0
 _ZN5cnoid10MainWindow11changeEventEP6QEvent@Base 1.1.0
 _ZN5cnoid10MainWindow11resizeEventEP12QResizeEvent@Base 1.1.0
 _ZN5cnoid10MainWindow11storeLayoutEN5boost13intrusive_ptrINS_11YamlMappingEEE@Base 1.1.0
 _ZN5cnoid10MainWindow13keyPressEventEP9QKeyEvent@Base 1.1.0
 _ZN5cnoid10MainWindow13restoreLayoutEN5boost13intrusive_ptrINS_11YamlMappingEEE@Base 1.1.0
 _ZN5cnoid10MainWindow16setInitialLayoutEN5boost13intrusive_ptrINS_11YamlMappingEEE@Base 1.1.0
 _ZN5cnoid10MainWindow4showEv@Base 1.1.0
 _ZN5cnoid10MainWindow7addViewERKSsPNS_4ViewE@Base 1.1.0
 _ZN5cnoid10MainWindow8allViewsEv@Base 1.1.0
 _ZN5cnoid10MainWindow8instanceEv@Base 1.1.0
 _ZN5cnoid10MainWindowC1EPKcPNS_16ExtensionManagerE@Base 1.1.0
 _ZN5cnoid10MainWindowC2EPKcPNS_16ExtensionManagerE@Base 1.1.0
 _ZN5cnoid10MainWindowD0Ev@Base 1.1.0
 _ZN5cnoid10MainWindowD1Ev@Base 1.1.0
 _ZN5cnoid10MainWindowD2Ev@Base 1.1.0
 _ZN5cnoid10PluginImplC1EPKc@Base 1.1.0
 _ZN5cnoid10PluginImplC2EPKc@Base 1.1.0
 _ZN5cnoid10PushButton10initializeEv@Base 1.1.0
 _ZN5cnoid10PushButton11qt_metacallEN11QMetaObject4CallEiPPv@Base 1.1.0
 _ZN5cnoid10PushButton11qt_metacastEPKc@Base 1.1.0
 _ZN5cnoid10PushButton16staticMetaObjectE@Base 1.1.0
 _ZN5cnoid10PushButton9onClickedEb@Base 1.1.0
 _ZN5cnoid10PushButton9onToggledEb@Base 1.1.0
 _ZN5cnoid10PushButtonC1EP7QWidget@Base 1.1.0
 _ZN5cnoid10PushButtonC1ERK5QIconRK7QStringP7QWidget@Base 1.1.0
 _ZN5cnoid10PushButtonC1ERK7QStringP7QWidget@Base 1.1.0
 _ZN5cnoid10PushButtonC2EP7QWidget@Base 1.1.0
 _ZN5cnoid10PushButtonC2ERK5QIconRK7QStringP7QWidget@Base 1.1.0
 _ZN5cnoid10PushButtonC2ERK7QStringP7QWidget@Base 1.1.0
 _ZN5cnoid10PushButtonD0Ev@Base 1.1.0
 _ZN5cnoid10PushButtonD1Ev@Base 1.1.0
 _ZN5cnoid10PushButtonD2Ev@Base 1.1.0
 _ZN5cnoid10ReferencedD0Ev@Base 1.1.0
 _ZN5cnoid10ReferencedD1Ev@Base 1.1.0
 _ZN5cnoid10ReferencedD2Ev@Base 1.1.0
 _ZN5cnoid10ToolButton10initializeEv@Base 1.1.0
 _ZN5cnoid10ToolButton11qt_metacallEN11QMetaObject4CallEiPPv@Base 1.1.0
 _ZN5cnoid10ToolButton11qt_metacastEPKc@Base 1.1.0
 _ZN5cnoid10ToolButton16staticMetaObjectE@Base 1.1.0
 _ZN5cnoid10ToolButton9onClickedEb@Base 1.1.0
 _ZN5cnoid10ToolButton9onToggledEb@Base 1.1.0
 _ZN5cnoid10ToolButtonC1EP7QWidget@Base 1.1.0
 _ZN5cnoid10ToolButtonC2EP7QWidget@Base 1.1.0
 _ZN5cnoid10ToolButtonD0Ev@Base 1.1.0
 _ZN5cnoid10ToolButtonD1Ev@Base 1.1.0
 _ZN5cnoid10ToolButtonD2Ev@Base 1.1.0
 _ZN5cnoid10TreeWidget11qt_metacallEN11QMetaObject4CallEiPPv@Base 1.1.0
 _ZN5cnoid10TreeWidget11qt_metacastEPKc@Base 1.1.0
 _ZN5cnoid10TreeWidget13onItemChangedEP15QTreeWidgetItemi@Base 1.1.0
 _ZN5cnoid10TreeWidget13onItemClickedEP15QTreeWidgetItemi@Base 1.1.0
 _ZN5cnoid10TreeWidget13onItemEnteredEP15QTreeWidgetItemi@Base 1.1.0
 _ZN5cnoid10TreeWidget13onItemPressedEP15QTreeWidgetItemi@Base 1.1.0
 _ZN5cnoid10TreeWidget14onItemExpandedEP15QTreeWidgetItem@Base 1.1.0
 _ZN5cnoid10TreeWidget15onItemActivatedEP15QTreeWidgetItemi@Base 1.1.0
 _ZN5cnoid10TreeWidget15onItemCollapsedEP15QTreeWidgetItem@Base 1.1.0
 _ZN5cnoid10TreeWidget16staticMetaObjectE@Base 1.1.0
 _ZN5cnoid10TreeWidget19onItemDoubleClickedEP15QTreeWidgetItemi@Base 1.1.0
 _ZN5cnoid10TreeWidget20onCurrentItemChangedEP15QTreeWidgetItemS2_@Base 1.1.0
 _ZN5cnoid10TreeWidget22onItemSelectionChangedEv@Base 1.1.0
 _ZN5cnoid10TreeWidgetC1EP7QWidget@Base 1.1.0
 _ZN5cnoid10TreeWidgetC2EP7QWidget@Base 1.1.0
 _ZN5cnoid10TreeWidgetD0Ev@Base 1.1.0
 _ZN5cnoid10TreeWidgetD1Ev@Base 1.1.0
 _ZN5cnoid10TreeWidgetD2Ev@Base 1.1.0
 _ZN5cnoid10VSeparatorD0Ev@Base 1.1.0
 _ZN5cnoid10VSeparatorD1Ev@Base 1.1.0
 _ZN5cnoid10VSeparatorD2Ev@Base 1.1.0
 (optional=templinst)_ZN5cnoid10YamlReader14MappingFactoryINS_7ArchiveEE6createEii@Base 1.1.0
 _ZN5cnoid11ButtonGroup11qt_metacallEN11QMetaObject4CallEiPPv@Base 1.1.0
 _ZN5cnoid11ButtonGroup11qt_metacastEPKc@Base 1.1.0
 _ZN5cnoid11ButtonGroup15onButtonClickedEi@Base 1.1.0
 _ZN5cnoid11ButtonGroup16staticMetaObjectE@Base 1.1.0
 _ZN5cnoid11ButtonGroupC1EP7QObject@Base 1.1.0
 _ZN5cnoid11ButtonGroupC2EP7QObject@Base 1.1.0
 _ZN5cnoid11ButtonGroupD0Ev@Base 1.1.0
 _ZN5cnoid11ButtonGroupD1Ev@Base 1.1.0
 _ZN5cnoid11ButtonGroupD2Ev@Base 1.1.0
 _ZN5cnoid11CrossMarker7setSizeEf@Base 1.1.0
 _ZN5cnoid11CrossMarkerC1ERKN3osg5Vec4fEff@Base 1.1.0
 _ZN5cnoid11CrossMarkerC2ERKN3osg5Vec4fEff@Base 1.1.0
 _ZN5cnoid11CrossMarkerD0Ev@Base 1.1.0
 _ZN5cnoid11CrossMarkerD1Ev@Base 1.1.0
 _ZN5cnoid11CrossMarkerD2Ev@Base 1.1.0
 _ZN5cnoid11GraphWidget10changeModeENS0_4ModeE@Base 1.1.0
 _ZN5cnoid11GraphWidget10showLimitsEb@Base 1.1.0
 _ZN5cnoid11GraphWidget10showRulersEb@Base 1.1.0
 _ZN5cnoid11GraphWidget10storeStateERNS_7ArchiveE@Base 1.1.0
 _ZN5cnoid11GraphWidget11eventFilterEP7QObjectP6QEvent@Base 1.1.0
 _ZN5cnoid11GraphWidget11getGridSizeERdS1_@Base 1.1.0
 _ZN5cnoid11GraphWidget11setGridSizeEdd@Base 1.1.0
 _ZN5cnoid11GraphWidget11showsLimitsEv@Base 1.1.0
 _ZN5cnoid11GraphWidget11showsRulersEv@Base 1.1.0
 _ZN5cnoid11GraphWidget11statusLabelEv@Base 1.1.0
 _ZN5cnoid11GraphWidget12getLineWidthEv@Base 1.1.0
 _ZN5cnoid11GraphWidget12restoreStateERKNS_7ArchiveE@Base 1.1.0
 _ZN5cnoid11GraphWidget12setLineWidthEd@Base 1.1.0
 _ZN5cnoid11GraphWidget14addDataHandlerEN5boost10shared_ptrINS_16GraphDataHandlerEEE@Base 1.1.0
 _ZN5cnoid11GraphWidget14autoScrollModeEv@Base 1.1.0
 _ZN5cnoid11GraphWidget14changeEditModeENS0_8EditModeE@Base 1.1.0
 _ZN5cnoid11GraphWidget17clearDataHandlersEv@Base 1.1.0
 _ZN5cnoid11GraphWidget17getRenderingTypesERbS1_S1_@Base 1.1.0
 _ZN5cnoid11GraphWidget17isTimeBarSyncModeEv@Base 1.1.0
 _ZN5cnoid11GraphWidget17setAutoScrollModeENS0_10ScrollModeE@Base 1.1.0
 _ZN5cnoid11GraphWidget17setCursorPositionEd@Base 1.1.0
 _ZN5cnoid11GraphWidget17setRenderingTypesEbbb@Base 1.1.0
 _ZN5cnoid11GraphWidget18setTimeBarSyncModeEb@Base 1.1.0
 _ZN5cnoid11GraphWidget19getControlPointStepERiS1_@Base 1.1.0
 _ZN5cnoid11GraphWidget19setControlPointStepEii@Base 1.1.0
 _ZN5cnoid11GraphWidget21getVerticalValueRangeERdS1_@Base 1.1.0
 _ZN5cnoid11GraphWidget21setVerticalValueRangeEdd@Base 1.1.0
 _ZN5cnoid11GraphWidget22highlightControlPointsEb@Base 1.1.0
 _ZN5cnoid11GraphWidget23highlightsControlPointsEv@Base 1.1.0
 _ZN5cnoid11GraphWidget4modeEv@Base 1.1.0
 _ZN5cnoid11GraphWidget8editModeEv@Base 1.1.0
 _ZN5cnoid11GraphWidget8showGridEb@Base 1.1.0
 _ZN5cnoid11GraphWidget9showsGridEv@Base 1.1.0
 _ZN5cnoid11GraphWidgetC1EPNS_4ViewE@Base 1.1.0
 _ZN5cnoid11GraphWidgetC2EPNS_4ViewE@Base 1.1.0
 _ZN5cnoid11GraphWidgetD0Ev@Base 1.1.0
 _ZN5cnoid11GraphWidgetD1Ev@Base 1.1.0
 _ZN5cnoid11GraphWidgetD2Ev@Base 1.1.0
 _ZN5cnoid11ItemManager11addSaverSubERKSsS2_S2_S2_N5boost10shared_ptrINS0_16FileFunctionBaseEEEi@Base 1.1.0
 (optional=templinst)_ZN5cnoid11ItemManager12FileFunctionINS_12MultiSeqItemINS_13MultiValueSeqEEEED0Ev@Base 1.1.0
 (optional=templinst)_ZN5cnoid11ItemManager12FileFunctionINS_12MultiSeqItemINS_13MultiValueSeqEEEED1Ev@Base 1.1.0
 (optional=templinst)_ZN5cnoid11ItemManager12FileFunctionINS_12MultiSeqItemINS_13MultiValueSeqEEEED2Ev@Base 1.1.0
 (optional=templinst)_ZN5cnoid11ItemManager12FileFunctionINS_12MultiSeqItemINS_13MultiValueSeqEEEEclEPNS_4ItemERKSsRSoS7_@Base 1.1.0
 (optional=templinst)_ZN5cnoid11ItemManager12FileFunctionINS_9SceneItemEED0Ev@Base 1.1.0
 (optional=templinst)_ZN5cnoid11ItemManager12FileFunctionINS_9SceneItemEED1Ev@Base 1.1.0
 (optional=templinst)_ZN5cnoid11ItemManager12FileFunctionINS_9SceneItemEED2Ev@Base 1.1.0
 (optional=templinst)_ZN5cnoid11ItemManager12FileFunctionINS_9SceneItemEEclEPNS_4ItemERKSsRSoS5_@Base 1.1.0
 _ZN5cnoid11ItemManager12addLoaderSubERKSsS2_S2_S2_N5boost10shared_ptrINS0_16FileFunctionBaseEEEi@Base 1.1.0
 (optional=templinst)_ZN5cnoid11ItemManager13registerClassINS_9SceneItemEEEvRKSs@Base 1.1.0
 _ZN5cnoid11ItemManager14bindTextDomainERKSs@Base 1.1.0
 _ZN5cnoid11ItemManager16FileFunctionBaseD0Ev@Base 1.1.0
 _ZN5cnoid11ItemManager16FileFunctionBaseD1Ev@Base 1.1.0
 _ZN5cnoid11ItemManager16FileFunctionBaseD2Ev@Base 1.1.0
 _ZN5cnoid11ItemManager16registerClassSubEPNS0_11FactoryBaseERKSsS4_@Base 1.1.0
 _ZN5cnoid11ItemManager18getClassIdentifierEN5boost13intrusive_ptrINS_4ItemEEERSsS5_@Base 1.1.0
 _ZN5cnoid11ItemManager19addCreationPanelSubERKSsPNS_17ItemCreationPanelE@Base 1.1.0
 _ZN5cnoid11ItemManager25addCreationPanelFilterSubERKSsN5boost10shared_ptrINS0_23CreationPanelFilterBaseEEEb@Base 1.1.0
 _ZN5cnoid11ItemManager4loadEPNS_4ItemERKSsS2_S4_@Base 1.1.0
 _ZN5cnoid11ItemManager4saveEPNS_4ItemERKSsS4_@Base 1.1.0
 _ZN5cnoid11ItemManager6createERKSsS2_@Base 1.1.0
 (optional=templinst)_ZN5cnoid11ItemManager7FactoryINS_10FolderItemEE6createEv@Base 1.1.0
 (optional=templinst)_ZN5cnoid11ItemManager7FactoryINS_12MultiSeqItemINS_13MultiValueSeqEEEE6createEv@Base 1.1.0
 (optional=templinst)_ZN5cnoid11ItemManager7FactoryINS_12MultiSeqItemINS_15MultiAffine3SeqEEEE6createEv@Base 1.1.0
 (optional=templinst)_ZN5cnoid11ItemManager7FactoryINS_14Vector3SeqItemEE6createEv@Base 1.1.0
 (optional=templinst)_ZN5cnoid11ItemManager7FactoryINS_8RootItemEE6createEv@Base 1.1.0
 (optional=templinst)_ZN5cnoid11ItemManager7FactoryINS_9SceneItemEE6createEv@Base 1.1.0
 (optional=templinst)_ZN5cnoid11ItemManager9addLoaderINS_9SceneItemEEEvRKSsS4_S4_RKNS0_12FileFunctionIT_E8FunctionEi@Base 1.1.0
 _ZN5cnoid11ItemManager9overwriteEPNS_4ItemEbRKSs@Base 1.1.0
 _ZN5cnoid11ItemManagerC1ERKSsRNS_11MenuManagerE@Base 1.1.0
 _ZN5cnoid11ItemManagerC2ERKSsRNS_11MenuManagerE@Base 1.1.0
 _ZN5cnoid11ItemManagerD1Ev@Base 1.1.0
 _ZN5cnoid11ItemManagerD2Ev@Base 1.1.0
 _ZN5cnoid11MenuManager10removeItemEP7QAction@Base 1.1.0
 _ZN5cnoid11MenuManager10setTopMenuEP7QWidget@Base 1.1.0
 _ZN5cnoid11MenuManager11qt_metacallEN11QMetaObject4CallEiPPv@Base 1.1.0
 _ZN5cnoid11MenuManager11qt_metacastEPKc@Base 1.1.0
 _ZN5cnoid11MenuManager12addCheckItemERK7QString@Base 1.1.0
 _ZN5cnoid11MenuManager12addRadioItemEP12QActionGroupRK7QString@Base 1.1.0
 _ZN5cnoid11MenuManager12addSeparatorEv@Base 1.1.0
 _ZN5cnoid11MenuManager14bindTextDomainERKSs@Base 1.1.0
 _ZN5cnoid11MenuManager15onItemDestroyedEv@Base 1.1.0
 _ZN5cnoid11MenuManager15releaseAllItemsEv@Base 1.1.0
 _ZN5cnoid11MenuManager15setBackwardModeEv@Base 1.1.0
 _ZN5cnoid11MenuManager16staticMetaObjectE@Base 1.1.0
 _ZN5cnoid11MenuManager7addItemERK7QString@Base 1.1.0
 _ZN5cnoid11MenuManager7setPathERK7QString@Base 1.1.0
 _ZN5cnoid11MenuManager8findItemERK7QString@Base 1.1.0
 _ZN5cnoid11MenuManagerC1EP7QWidget@Base 1.1.0
 _ZN5cnoid11MenuManagerC1Ev@Base 1.1.0
 _ZN5cnoid11MenuManagerC2EP7QWidget@Base 1.1.0
 _ZN5cnoid11MenuManagerC2Ev@Base 1.1.0
 _ZN5cnoid11MenuManagerD0Ev@Base 1.1.0
 _ZN5cnoid11MenuManagerD1Ev@Base 1.1.0
 _ZN5cnoid11MenuManagerD2Ev@Base 1.1.0
 _ZN5cnoid11MessageView10initializeEPNS_16ExtensionManagerE@Base 1.1.0
 _ZN5cnoid11MessageView12mainInstanceEv@Base 1.1.0
 _ZN5cnoid11MessageView16endStdioRedirectEv@Base 1.1.0
 _ZN5cnoid11MessageView18beginStdioRedirectEv@Base 1.1.0
 _ZN5cnoid11MessageView3putEPKc@Base 1.1.0
 _ZN5cnoid11MessageView3putERK7QString@Base 1.1.0
 _ZN5cnoid11MessageView3putERKN5boost12basic_formatIcSt11char_traitsIcESaIcEEE@Base 1.1.0
 _ZN5cnoid11MessageView3putERKSs@Base 1.1.0
 _ZN5cnoid11MessageView4coutEb@Base 1.1.0
 _ZN5cnoid11MessageView5clearEv@Base 1.1.0
 _ZN5cnoid11MessageView5eventEP6QEvent@Base 1.1.0
 _ZN5cnoid11MessageView5flushEv@Base 1.1.0
 _ZN5cnoid11MessageView5putlnEPKc@Base 1.1.0
 _ZN5cnoid11MessageView5putlnERK7QString@Base 1.1.0
 _ZN5cnoid11MessageView5putlnERKN5boost12basic_formatIcSt11char_traitsIcESaIcEEE@Base 1.1.0
 _ZN5cnoid11MessageView5putlnERKSs@Base 1.1.0
 _ZN5cnoid11MessageView5putlnEv@Base 1.1.0
 _ZN5cnoid11MessageView6notifyEPKc@Base 1.1.0
 _ZN5cnoid11MessageView6notifyERK7QString@Base 1.1.0
 _ZN5cnoid11MessageView6notifyERKN5boost12basic_formatIcSt11char_traitsIcESaIcEEE@Base 1.1.0
 _ZN5cnoid11MessageView6notifyERKSs@Base 1.1.0
 _ZN5cnoid11MessageViewC1Ev@Base 1.1.0
 _ZN5cnoid11MessageViewC2Ev@Base 1.1.0
 _ZN5cnoid11MessageViewD0Ev@Base 1.1.0
 _ZN5cnoid11MessageViewD1Ev@Base 1.1.0
 _ZN5cnoid11MessageViewD2Ev@Base 1.1.0
 _ZN5cnoid11RadioButton10initializeEv@Base 1.1.0
 _ZN5cnoid11RadioButton11qt_metacallEN11QMetaObject4CallEiPPv@Base 1.1.0
 _ZN5cnoid11RadioButton11qt_metacastEPKc@Base 1.1.0
 _ZN5cnoid11RadioButton16staticMetaObjectE@Base 1.1.0
 _ZN5cnoid11RadioButton9onToggledEb@Base 1.1.0
 _ZN5cnoid11RadioButtonC1EP7QWidget@Base 1.1.0
 _ZN5cnoid11RadioButtonC1ERK7QStringP7QWidget@Base 1.1.0
 _ZN5cnoid11RadioButtonC2EP7QWidget@Base 1.1.0
 _ZN5cnoid11RadioButtonC2ERK7QStringP7QWidget@Base 1.1.0
 _ZN5cnoid11RadioButtonD0Ev@Base 1.1.0
 _ZN5cnoid11RadioButtonD1Ev@Base 1.1.0
 _ZN5cnoid11RadioButtonD2Ev@Base 1.1.0
 _ZN5cnoid11SceneMarker11setPositionERKN5Eigen6MatrixIdLi3ELi1ELi0ELi3ELi1EEE@Base 1.1.0
 _ZN5cnoid11SceneMarkerD0Ev@Base 1.1.0
 _ZN5cnoid11SceneMarkerD1Ev@Base 1.1.0
 _ZN5cnoid11SceneMarkerD2Ev@Base 1.1.0
 _ZN5cnoid11SceneObject10isEditableEv@Base 1.1.0
 _ZN5cnoid11SceneObject11setEditableEb@Base 1.1.0
 _ZN5cnoid11SceneObject13onRedoRequestEv@Base 1.1.0
 _ZN5cnoid11SceneObject13onScrollEventERKNS_14SceneViewEventE@Base 1.1.0
 _ZN5cnoid11SceneObject13onUndoRequestEv@Base 1.1.0
 _ZN5cnoid11SceneObject15onKeyPressEventERKNS_14SceneViewEventE@Base 1.1.0
 _ZN5cnoid11SceneObject17onAttachedToSceneEv@Base 1.1.0
 _ZN5cnoid11SceneObject17onKeyReleaseEventERKNS_14SceneViewEventE@Base 1.1.0
 _ZN5cnoid11SceneObject18onButtonPressEventERKNS_14SceneViewEventE@Base 1.1.0
 _ZN5cnoid11SceneObject18onDoubleClickEventERKNS_14SceneViewEventE@Base 1.1.0
 _ZN5cnoid11SceneObject18onPointerMoveEventERKNS_14SceneViewEventE@Base 1.1.0
 _ZN5cnoid11SceneObject18onSceneModeChangedEv@Base 1.1.0
 _ZN5cnoid11SceneObject19onDetachedFromSceneEv@Base 1.1.0
 _ZN5cnoid11SceneObject19onPointerLeaveEventERKNS_14SceneViewEventE@Base 1.1.0
 _ZN5cnoid11SceneObject20onButtonReleaseEventERKNS_14SceneViewEventE@Base 1.1.0
 _ZN5cnoid11SceneObject20onContextMenuRequestERKNS_14SceneViewEventERNS_11MenuManagerE@Base 1.1.0
 _ZN5cnoid11SceneObject4loadESs@Base 1.1.0
 _ZN5cnoid11SceneObjectC1ERKS0_RKN3osg6CopyOpE@Base 1.1.0
 _ZN5cnoid11SceneObjectC1Ev@Base 1.1.0
 _ZN5cnoid11SceneObjectC2ERKS0_RKN3osg6CopyOpE@Base 1.1.0
 _ZN5cnoid11SceneObjectC2Ev@Base 1.1.0
 _ZN5cnoid11SceneObjectD0Ev@Base 1.1.0
 _ZN5cnoid11SceneObjectD1Ev@Base 1.1.0
 _ZN5cnoid11SceneObjectD2Ev@Base 1.1.0
 (optional=templinst)_ZN5cnoid11SignalProxyIN5boost6signalIFbdENS_7TimeBar10LogicalSumEiSt4lessIiENS1_8functionIS3_EEEEE7connectES9_@Base 1.1.0
 (optional=templinst)_ZN5cnoid11SignalProxyIN5boost6signalIFvbENS1_10last_valueIvEEiSt4lessIiENS1_8functionIS3_EEEEE7connectES9_@Base 1.1.0
 (optional=templinst)_ZN5cnoid11SignalProxyIN5boost6signalIFvvENS1_10last_valueIvEEiSt4lessIiENS1_8functionIS3_EEEEE7connectES9_@Base 1.1.0
 _ZN5cnoid11TimeBarImpl10storeStateERNS_7ArchiveE@Base 1.1.0
 _ZN5cnoid11TimeBarImpl10timerEventEP11QTimerEvent@Base 1.1.0
 _ZN5cnoid11TimeBarImpl12restoreStateERKNS_7ArchiveE@Base 1.1.0
 _ZN5cnoid11TimeBarImpl12setFrameRateEd@Base 1.1.0
 _ZN5cnoid11TimeBarImpl12setTimeRangeEdd@Base 1.1.0
 _ZN5cnoid11TimeBarImpl12stopPlaybackEb@Base 1.1.0
 _ZN5cnoid11TimeBarImpl13startPlaybackEv@Base 1.1.0
 _ZN5cnoid11TimeBarImpl15onPlayActivatedEv@Base 1.1.0
 _ZN5cnoid11TimeBarImpl15updateFillLevelEid@Base 1.1.0
 _ZN5cnoid11TimeBarImpl17onResumeActivatedEv@Base 1.1.0
 _ZN5cnoid11TimeBarImpl17onTimeSpinChangedEd@Base 1.1.0
 _ZN5cnoid11TimeBarImpl18updateMinFillLevelEv@Base 1.1.0
 _ZN5cnoid11TimeBarImpl19stopFillLevelUpdateEi@Base 1.1.0
 _ZN5cnoid11TimeBarImpl20startFillLevelUpdateEv@Base 1.1.0
 _ZN5cnoid11TimeBarImpl20updateTimePropertiesEb@Base 1.1.0
 _ZN5cnoid11TimeBarImpl22onFrameRateSpinChangedEv@Base 1.1.0
 _ZN5cnoid11TimeBarImpl22onRefreshButtonClickedEv@Base 1.1.0
 _ZN5cnoid11TimeBarImpl23onTimeRangeSpinsChangedEv@Base 1.1.0
 _ZN5cnoid11TimeBarImpl23onTimeSliderChangeValueEd@Base 1.1.0
 _ZN5cnoid11TimeBarImpl26onPlaybackFrameRateChangedEv@Base 1.1.0
 _ZN5cnoid11TimeBarImpl27onPlaybackSpeedScaleChangedEv@Base 1.1.0
 _ZN5cnoid11TimeBarImpl7setTimeEdbP7QWidget@Base 1.1.0
 _ZN5cnoid11TimeBarImplC1EPNS_7TimeBarE@Base 1.1.0
 _ZN5cnoid11TimeBarImplC2EPNS_7TimeBarE@Base 1.1.0
 _ZN5cnoid11TimeBarImplD0Ev@Base 1.1.0
 _ZN5cnoid11TimeBarImplD1Ev@Base 1.1.0
 _ZN5cnoid11TimeBarImplD2Ev@Base 1.1.0
 _ZN5cnoid11ToolBarArea10addToolBarEPNS_7ToolBarE@Base 1.1.0
 _ZN5cnoid11ToolBarArea11dragToolBarEPNS_7ToolBarERK6QPoint@Base 1.1.0
 _ZN5cnoid11ToolBarArea11resizeEventEP12QResizeEvent@Base 1.1.0
 _ZN5cnoid11ToolBarArea11storeLayoutEN5boost13intrusive_ptrINS_11YamlMappingEEE@Base 1.1.0
 _ZN5cnoid11ToolBarArea13removeToolBarEPNS_7ToolBarE@Base 1.1.0
 _ZN5cnoid11ToolBarArea13restoreLayoutEN5boost13intrusive_ptrINS_11YamlMappingEEE@Base 1.1.0
 _ZN5cnoid11ToolBarArea14getAllToolBarsEv@Base 1.1.0
 _ZN5cnoid11ToolBarArea15doInitialLayoutEv@Base 1.1.0
 _ZN5cnoid11ToolBarArea16setInitialLayoutEN5boost13intrusive_ptrINS_11YamlMappingEEE@Base 1.1.0
 _ZN5cnoid11ToolBarArea5eventEP6QEvent@Base 1.1.0
 _ZN5cnoid11ToolBarAreaC1EP7QWidget@Base 1.1.0
 _ZN5cnoid11ToolBarAreaC2EP7QWidget@Base 1.1.0
 _ZN5cnoid11ToolBarAreaD0Ev@Base 1.1.0
 _ZN5cnoid11ToolBarAreaD1Ev@Base 1.1.0
 _ZN5cnoid11ToolBarAreaD2Ev@Base 1.1.0
 _ZN5cnoid11YamlMapping5writeERKSsPKcNS_15YamlStringStyleE@Base 1.1.0
 _ZN5cnoid12GraphBarImpl13onGridToggledEb@Base 1.1.0
 _ZN5cnoid12GraphBarImpl15onOptionToggledEv@Base 1.1.0
 _ZN5cnoid12GraphBarImpl15onRulersToggledEb@Base 1.1.0
 _ZN5cnoid12GraphBarImpl17onEditModeToggledEb@Base 1.1.0
 _ZN5cnoid12GraphBarImpl17onGridSizeChangedEd@Base 1.1.0
 _ZN5cnoid12GraphBarImpl17onLineModeToggledEb@Base 1.1.0
 _ZN5cnoid12GraphBarImpl18onLineWidthChangedEi@Base 1.1.0
 _ZN5cnoid12GraphBarImpl19onLimitValueToggledEb@Base 1.1.0
 _ZN5cnoid12GraphBarImpl20onTimeBarSyncToggledEb@Base 1.1.0
 _ZN5cnoid12GraphBarImpl21onFreeLineModeToggledEb@Base 1.1.0
 _ZN5cnoid12GraphBarImpl23onAutoScrollModeChangedEi@Base 1.1.0
 _ZN5cnoid12GraphBarImpl23onRenderingTypesToggledEv@Base 1.1.0
 _ZN5cnoid12GraphBarImpl27onVerticalValueRangeChangedEd@Base 1.1.0
 _ZN5cnoid12GraphBarImpl33onControlPointStepOrOffsetChangedEv@Base 1.1.0
 _ZN5cnoid12GraphBarImpl34onHighlightingControlPointsToggledEb@Base 1.1.0
 _ZN5cnoid12GraphBarImpl5focusEPNS_11GraphWidgetEb@Base 1.1.0
 _ZN5cnoid12GraphBarImplC1EPNS_8GraphBarE@Base 1.1.0
 _ZN5cnoid12GraphBarImplC2EPNS_8GraphBarE@Base 1.1.0
 _ZN5cnoid12ItemListBaseD0Ev@Base 1.1.0
 _ZN5cnoid12ItemListBaseD1Ev@Base 1.1.0
 _ZN5cnoid12ItemListBaseD2Ev@Base 1.1.0
 (optional=templinst)_ZN5cnoid12ItemListBaseaSINS_4ItemEEERS0_RKNS_8ItemListIT_EE@Base 1.1.0
 _ZN5cnoid12ItemTreeView10initializeEPNS_16ExtensionManagerE@Base 1.1.0
 _ZN5cnoid12ItemTreeView10selectItemEN5boost13intrusive_ptrINS_4ItemEEEb@Base 1.1.0
 _ZN5cnoid12ItemTreeView10storeStateERNS_7ArchiveE@Base 1.1.0
 _ZN5cnoid12ItemTreeView11qt_metacallEN11QMetaObject4CallEiPPv@Base 1.1.0
 _ZN5cnoid12ItemTreeView11qt_metacastEPKc@Base 1.1.0
 _ZN5cnoid12ItemTreeView12mainInstanceEv@Base 1.1.0
 _ZN5cnoid12ItemTreeView12restoreStateERKNS_7ArchiveE@Base 1.1.0
 (optional=templinst)_ZN5cnoid12ItemTreeView12selectedItemINS_4ItemEEEPT_b@Base 1.1.0
 _ZN5cnoid12ItemTreeView13isItemCheckedEN5boost13intrusive_ptrINS_4ItemEEE@Base 1.1.0
 _ZN5cnoid12ItemTreeView14clearSelectionEv@Base 1.1.0
 _ZN5cnoid12ItemTreeView14isItemSelectedEN5boost13intrusive_ptrINS_4ItemEEE@Base 1.1.0
 _ZN5cnoid12ItemTreeView14onRowsInsertedERK11QModelIndexii@Base 1.1.0
 _ZN5cnoid12ItemTreeView15getCheckedItemsERNS_12ItemListBaseE@Base 1.1.0
 _ZN5cnoid12ItemTreeView15sigCheckToggledEPNS_4ItemE@Base 1.1.0
 _ZN5cnoid12ItemTreeView15sigCheckToggledEv@Base 1.1.0
 _ZN5cnoid12ItemTreeView16getSelectedItemsERNS_12ItemListBaseE@Base 1.1.0
 _ZN5cnoid12ItemTreeView16staticMetaObjectE@Base 1.1.0
 _ZN5cnoid12ItemTreeView19sigSelectionChangedEv@Base 1.1.0
 _ZN5cnoid12ItemTreeView22onRowsAboutToBeRemovedERK11QModelIndexii@Base 1.1.0
 _ZN5cnoid12ItemTreeView25sigSelectionOrTreeChangedEv@Base 1.1.0
 _ZN5cnoid12ItemTreeView29extractSelectedItemsOfSubTreeEN5boost13intrusive_ptrINS_4ItemEEERNS_12ItemListBaseE@Base 1.1.0
 _ZN5cnoid12ItemTreeView8rootItemEv@Base 1.1.0
 _ZN5cnoid12ItemTreeView8showRootEb@Base 1.1.0
 _ZN5cnoid12ItemTreeView9checkItemEN5boost13intrusive_ptrINS_4ItemEEEb@Base 1.1.0
 _ZN5cnoid12ItemTreeViewC1EPNS_8RootItemEb@Base 1.1.0
 _ZN5cnoid12ItemTreeViewC2EPNS_8RootItemEb@Base 1.1.0
 _ZN5cnoid12ItemTreeViewD0Ev@Base 1.1.0
 _ZN5cnoid12ItemTreeViewD1Ev@Base 1.1.0
 _ZN5cnoid12ItemTreeViewD2Ev@Base 1.1.0
 (optional=templinst)_ZN5cnoid12MultiSeqItemINS_13MultiValueSeqEE10initializeEPNS_16ExtensionManagerE@Base 1.1.0
 (optional=templinst)_ZN5cnoid12MultiSeqItemINS_13MultiValueSeqEE15doPutPropertiesERNS_19PutPropertyFunctionE@Base 1.1.0
 (optional=templinst)_ZN5cnoid12MultiSeqItemINS_13MultiValueSeqEE5storeERNS_7ArchiveE@Base 1.1.0
 (optional=templinst)_ZN5cnoid12MultiSeqItemINS_13MultiValueSeqEE7restoreERKNS_7ArchiveE@Base 1.1.0
 (optional=templinst)_ZN5cnoid12MultiSeqItemINS_13MultiValueSeqEE7seqBaseEv@Base 1.1.0
 (optional=templinst)_ZN5cnoid12MultiSeqItemINS_13MultiValueSeqEED0Ev@Base 1.1.0
 (optional=templinst)_ZN5cnoid12MultiSeqItemINS_13MultiValueSeqEED1Ev@Base 1.1.0
 (optional=templinst)_ZN5cnoid12MultiSeqItemINS_13MultiValueSeqEED2Ev@Base 1.1.0
 (optional=templinst)_ZN5cnoid12MultiSeqItemINS_15MultiAffine3SeqEE10initializeEPNS_16ExtensionManagerE@Base 1.1.0
 (optional=templinst)_ZN5cnoid12MultiSeqItemINS_15MultiAffine3SeqEE15doPutPropertiesERNS_19PutPropertyFunctionE@Base 1.1.0
 (optional=templinst)_ZN5cnoid12MultiSeqItemINS_15MultiAffine3SeqEE5storeERNS_7ArchiveE@Base 1.1.0
 (optional=templinst)_ZN5cnoid12MultiSeqItemINS_15MultiAffine3SeqEE7restoreERKNS_7ArchiveE@Base 1.1.0
 (optional=templinst)_ZN5cnoid12MultiSeqItemINS_15MultiAffine3SeqEE7seqBaseEv@Base 1.1.0
 (optional=templinst)_ZN5cnoid12MultiSeqItemINS_15MultiAffine3SeqEED0Ev@Base 1.1.0
 (optional=templinst)_ZN5cnoid12MultiSeqItemINS_15MultiAffine3SeqEED1Ev@Base 1.1.0
 (optional=templinst)_ZN5cnoid12MultiSeqItemINS_15MultiAffine3SeqEED2Ev@Base 1.1.0
 _ZN5cnoid12OsgOutlineFx17define_techniquesEv@Base 1.1.0
 _ZN5cnoid12OsgOutlineFx6acceptERN3osg11NodeVisitorE@Base 1.1.0
 _ZN5cnoid12OsgOutlineFx8setColorERKN3osg5Vec4fE@Base 1.1.0
 _ZN5cnoid12OsgOutlineFxC1ERKS0_RKN3osg6CopyOpE@Base 1.1.0
 _ZN5cnoid12OsgOutlineFxC1EdRKN3osg5Vec4fE@Base 1.1.0
 _ZN5cnoid12OsgOutlineFxC1Ev@Base 1.1.0
 _ZN5cnoid12OsgOutlineFxC2ERKS0_RKN3osg6CopyOpE@Base 1.1.0
 _ZN5cnoid12OsgOutlineFxC2EdRKN3osg5Vec4fE@Base 1.1.0
 _ZN5cnoid12OsgOutlineFxC2Ev@Base 1.1.0
 _ZN5cnoid12OsgOutlineFxD0Ev@Base 1.1.0
 _ZN5cnoid12OsgOutlineFxD1Ev@Base 1.1.0
 _ZN5cnoid12OsgOutlineFxD2Ev@Base 1.1.0
 _ZN5cnoid12RootItemImplC1EPNS_8RootItemE@Base 1.1.0
 _ZN5cnoid12RootItemImplC2EPNS_8RootItemE@Base 1.1.0
 _ZN5cnoid12RootItemImplD1Ev@Base 1.1.0
 _ZN5cnoid12RootItemImplD2Ev@Base 1.1.0
 _ZN5cnoid12SphereMarker8setCrossERKN3osg5Vec4fEff@Base 1.1.0
 _ZN5cnoid12SphereMarker9setRadiusEf@Base 1.1.0
 _ZN5cnoid12SphereMarkerC1EfRKN3osg5Vec4fE@Base 1.1.0
 _ZN5cnoid12SphereMarkerC2EfRKN3osg5Vec4fE@Base 1.1.0
 _ZN5cnoid12SphereMarkerD0Ev@Base 1.1.0
 _ZN5cnoid12SphereMarkerD1Ev@Base 1.1.0
 _ZN5cnoid12SphereMarkerD2Ev@Base 1.1.0
 _ZN5cnoid12ToggleButtonC1EP7QWidget@Base 1.1.0
 _ZN5cnoid12ToggleButtonC1ERK5QIconRK7QStringP7QWidget@Base 1.1.0
 _ZN5cnoid12ToggleButtonC1ERK7QStringP7QWidget@Base 1.1.0
 _ZN5cnoid12ToggleButtonC2EP7QWidget@Base 1.1.0
 _ZN5cnoid12ToggleButtonC2ERK5QIconRK7QStringP7QWidget@Base 1.1.0
 _ZN5cnoid12ToggleButtonC2ERK7QStringP7QWidget@Base 1.1.0
 _ZN5cnoid12ToggleButtonD0Ev@Base 1.1.0
 _ZN5cnoid12ToggleButtonD1Ev@Base 1.1.0
 _ZN5cnoid12ToggleButtonD2Ev@Base 1.1.0
 _ZN5cnoid13ConnectionSet10disconnectEv@Base 1.1.0
 _ZN5cnoid13ConnectionSet3addERKN5boost7signals10connectionE@Base 1.1.0
 _ZN5cnoid13ConnectionSet3addERKS0_@Base 1.1.0
 _ZN5cnoid13ConnectionSet5blockEv@Base 1.1.0
 _ZN5cnoid13ConnectionSet7unblockEv@Base 1.1.0
 _ZN5cnoid13ConnectionSetC1ERKS0_@Base 1.1.0
 _ZN5cnoid13ConnectionSetC1Ev@Base 1.1.0
 _ZN5cnoid13ConnectionSetC2ERKS0_@Base 1.1.0
 _ZN5cnoid13ConnectionSetC2Ev@Base 1.1.0
 _ZN5cnoid13ConnectionSetD1Ev@Base 1.1.0
 _ZN5cnoid13ConnectionSetD2Ev@Base 1.1.0
 _ZN5cnoid13ConnectionSetaSERKS0_@Base 1.1.0
 _ZN5cnoid13DoubleSpinBox11qt_metacallEN11QMetaObject4CallEiPPv@Base 1.1.0
 _ZN5cnoid13DoubleSpinBox11qt_metacastEPKc@Base 1.1.0
 _ZN5cnoid13DoubleSpinBox14onValueChangedEd@Base 1.1.0
 _ZN5cnoid13DoubleSpinBox16staticMetaObjectE@Base 1.1.0
 _ZN5cnoid13DoubleSpinBox18onEditingFinishdedEv@Base 1.1.0
 _ZN5cnoid13DoubleSpinBoxC1EP7QWidget@Base 1.1.0
 _ZN5cnoid13DoubleSpinBoxC2EP7QWidget@Base 1.1.0
 _ZN5cnoid13DoubleSpinBoxD0Ev@Base 1.1.0
 _ZN5cnoid13DoubleSpinBoxD1Ev@Base 1.1.0
 _ZN5cnoid13DoubleSpinBoxD2Ev@Base 1.1.0
 _ZN5cnoid13HSeparatorBoxC1EP7QWidget@Base 1.1.0
 _ZN5cnoid13HSeparatorBoxC2EP7QWidget@Base 1.1.0
 _ZN5cnoid13HSeparatorBoxD0Ev@Base 1.1.0
 _ZN5cnoid13HSeparatorBoxD1Ev@Base 1.1.0
 _ZN5cnoid13HSeparatorBoxD2Ev@Base 1.1.0
 _ZN5cnoid13OptionManager16parseCommandLineEiPPc@Base 1.1.0
 _ZN5cnoid13OptionManager19addPositionalOptionEPKci@Base 1.1.0
 _ZN5cnoid13OptionManager9addOptionEPKcPKN5boost15program_options14value_semanticE@Base 1.1.0
 _ZN5cnoid13OptionManager9addOptionEPKcPKN5boost15program_options14value_semanticES2_@Base 1.1.0
 _ZN5cnoid13OptionManager9addOptionEPKcS2_@Base 1.1.0
 _ZN5cnoid13OptionManagerC1Ev@Base 1.1.0
 _ZN5cnoid13OptionManagerC2Ev@Base 1.1.0
 _ZN5cnoid13OptionManagerD1Ev@Base 1.1.0
 _ZN5cnoid13OptionManagerD2Ev@Base 1.1.0
 _ZN5cnoid13PluginManager10loadPluginEi@Base 1.1.0
 _ZN5cnoid13PluginManager10numPluginsEv@Base 1.1.0
 _ZN5cnoid13PluginManager10pluginNameEi@Base 1.1.0
 _ZN5cnoid13PluginManager10pluginPathEi@Base 1.1.0
 _ZN5cnoid13PluginManager12pluginStatusEi@Base 1.1.0
 _ZN5cnoid13PluginManager12unloadPluginEi@Base 1.1.0
 _ZN5cnoid13PluginManager14loadAllPluginsEv@Base 1.1.0
 _ZN5cnoid13PluginManager15scanPluginFilesERKSs@Base 1.1.0
 _ZN5cnoid13PluginManager16unloadAllPluginsEv@Base 1.1.0
 _ZN5cnoid13PluginManager18clearUnusedPluginsEv@Base 1.1.0
 _ZN5cnoid13PluginManager21guessActualPluginNameERKSs@Base 1.1.0
 _ZN5cnoid13PluginManager25scanPluginFilesInPathListERKSs@Base 1.1.0
 _ZN5cnoid13PluginManager35scanPluginFilesInDirectoyOfExecFileEv@Base 1.1.0
 _ZN5cnoid13PluginManager8instanceEv@Base 1.1.0
 _ZN5cnoid13PluginManagerC1Ev@Base 1.1.0
 _ZN5cnoid13PluginManagerC2Ev@Base 1.1.0
 _ZN5cnoid13PluginManagerD1Ev@Base 1.1.0
 _ZN5cnoid13PluginManagerD2Ev@Base 1.1.0
 _ZN5cnoid13SceneViewImpl10createAxesEff@Base 1.1.0
 _ZN5cnoid13SceneViewImpl10storeStateERNS_7ArchiveE@Base 1.1.0
 _ZN5cnoid13SceneViewImpl11eventFilterEP7QObjectP6QEvent@Base 1.1.0
 _ZN5cnoid13SceneViewImpl11setHomeViewEv@Base 1.1.0
 _ZN5cnoid13SceneViewImpl12createLightsEv@Base 1.1.0
 _ZN5cnoid13SceneViewImpl12dragViewZoomEv@Base 1.1.0
 _ZN5cnoid13SceneViewImpl12initializeGLEv@Base 1.1.0
 _ZN5cnoid13SceneViewImpl12onWheelEventEP11QWheelEvent@Base 1.1.0
 _ZN5cnoid13SceneViewImpl12restoreStateERKNS_7ArchiveE@Base 1.1.0
 _ZN5cnoid13SceneViewImpl12setupToolBarEv@Base 1.1.0
 _ZN5cnoid13SceneViewImpl13setScreenSizeEii@Base 1.1.0
 _ZN5cnoid13SceneViewImpl13startViewZoomEv@Base 1.1.0
 _ZN5cnoid13SceneViewImpl14addSceneObjectEPNS_11SceneObjectE@Base 1.1.0
 _ZN5cnoid13SceneViewImpl14handleOsgEventERKN5osgGA15GUIEventAdapterERNS1_16GUIActionAdapterE@Base 1.1.0
 _ZN5cnoid13SceneViewImpl14setupFloorGridEv@Base 1.1.0
 _ZN5cnoid13SceneViewImpl15onKeyPressEventEP9QKeyEvent@Base 1.1.0
 _ZN5cnoid13SceneViewImpl15onShadowToggledEb@Base 1.1.0
 _ZN5cnoid13SceneViewImpl16dragViewRotationEP11QMouseEvent@Base 1.1.0
 _ZN5cnoid13SceneViewImpl16initializeCameraEv@Base 1.1.0
 _ZN5cnoid13SceneViewImpl16onMouseMoveEventEP11QMouseEvent@Base 1.1.0
 _ZN5cnoid13SceneViewImpl16onViewerFocusOutEP11QFocusEvent@Base 1.1.0
 _ZN5cnoid13SceneViewImpl16setOperationModeENS_11SceneObject9SceneModeE@Base 1.1.0
 _ZN5cnoid13SceneViewImpl17findPointedObjectEv@Base 1.1.0
 _ZN5cnoid13SceneViewImpl17flipOperationModeEv@Base 1.1.0
 _ZN5cnoid13SceneViewImpl17onEditModeToggledEb@Base 1.1.0
 _ZN5cnoid13SceneViewImpl17onKeyReleaseEventEP9QKeyEvent@Base 1.1.0
 _ZN5cnoid13SceneViewImpl17onMousePressEventEP11QMouseEvent@Base 1.1.0
 _ZN5cnoid13SceneViewImpl17removeSceneObjectEPNS_11SceneObjectE@Base 1.1.0
 _ZN5cnoid13SceneViewImpl17startViewRotationEv@Base 1.1.0
 _ZN5cnoid13SceneViewImpl17updateLatestEventEP11QMouseEvent@Base 1.1.0
 _ZN5cnoid13SceneViewImpl17updateLatestEventEP9QKeyEvent@Base 1.1.0
 _ZN5cnoid13SceneViewImpl17updateLatestEventEiii@Base 1.1.0
 _ZN5cnoid13SceneViewImpl18onCollisionToggledEb@Base 1.1.0
 _ZN5cnoid13SceneViewImpl18onFloorGridToggledEb@Base 1.1.0
 _ZN5cnoid13SceneViewImpl18onOverPaintToggledEb@Base 1.1.0
 _ZN5cnoid13SceneViewImpl18updateAxesPositionEv@Base 1.1.0
 _ZN5cnoid13SceneViewImpl19dragViewTranslationEv@Base 1.1.0
 _ZN5cnoid13SceneViewImpl19onMouseReleaseEventEP11QMouseEvent@Base 1.1.0
 _ZN5cnoid13SceneViewImpl19onScribeModeToggledEb@Base 1.1.0
 _ZN5cnoid13SceneViewImpl19setupCoordinateAxesEv@Base 1.1.0
 _ZN5cnoid13SceneViewImpl20enableCoordinateAxesEbb@Base 1.1.0
 _ZN5cnoid13SceneViewImpl20handleOsgResizeEventERKN5osgGA15GUIEventAdapterE@Base 1.1.0
 _ZN5cnoid13SceneViewImpl20initializeOsgObjectsEv@Base 1.1.0
 _ZN5cnoid13SceneViewImpl20onCartoonModeToggledEb@Base 1.1.0
 _ZN5cnoid13SceneViewImpl20startViewTranslationEv@Base 1.1.0
 _ZN5cnoid13SceneViewImpl20updateFloorGridLinesEv@Base 1.1.0
 _ZN5cnoid13SceneViewImpl21resetCameraProjectionEv@Base 1.1.0
 _ZN5cnoid13SceneViewImpl21showEditModePopupMenuEPNS_11SceneObjectERK6QPoint@Base 1.1.0
 _ZN5cnoid13SceneViewImpl21showViewModePopupMenuERK6QPoint@Base 1.1.0
 _ZN5cnoid13SceneViewImpl21updatePointerPositionEv@Base 1.1.0
 _ZN5cnoid13SceneViewImpl22onWireframeModeToggledEb@Base 1.1.0
 _ZN5cnoid13SceneViewImpl23onMouseDoubleClickEventEP11QMouseEvent@Base 1.1.0
 _ZN5cnoid13SceneViewImpl24onPerspectiveViewToggledEb@Base 1.1.0
 _ZN5cnoid13SceneViewImpl24onPopupMenuSelectionDoneEv@Base 1.1.0
 _ZN5cnoid13SceneViewImpl26onSceneObjectRedrawRequestEi@Base 1.1.0
 _ZN5cnoid13SceneViewImpl27onCaptureImageButtonClickedEv@Base 1.1.0
 _ZN5cnoid13SceneViewImpl28onHiPriorityRenderingToggledEb@Base 1.1.0
 _ZN5cnoid13SceneViewImpl34correctCameraProjectionAspectRatioEv@Base 1.1.0
 _ZN5cnoid13SceneViewImpl7viewAllEv@Base 1.1.0
 _ZN5cnoid13SceneViewImpl8setupHUDEv@Base 1.1.0
 _ZN5cnoid13SceneViewImpl8zoomViewEd@Base 1.1.0
 _ZN5cnoid13SceneViewImpl9saveImageERKSs@Base 1.1.0
 _ZN5cnoid13SceneViewImpl9setupMenuERNS_11MenuManagerE@Base 1.1.0
 _ZN5cnoid13SceneViewImplC1EPNS_9SceneViewE@Base 1.1.0
 _ZN5cnoid13SceneViewImplC2EPNS_9SceneViewE@Base 1.1.0
 _ZN5cnoid13SceneViewImplD0Ev@Base 1.1.0
 _ZN5cnoid13SceneViewImplD1Ev@Base 1.1.0
 _ZN5cnoid13SceneViewImplD2Ev@Base 1.1.0
 _ZN5cnoid14LazySignalBase6onIdleEv@Base 1.1.0
 _ZN5cnoid14LazySignalBase7requestEv@Base 1.1.0
 _ZN5cnoid14LazySignalBaseD1Ev@Base 1.1.0
 _ZN5cnoid14LazySignalBaseD2Ev@Base 1.1.0
 _ZN5cnoid14MainWindowImpl10removeViewEPNS_4ViewE@Base 1.1.0
 _ZN5cnoid14MainWindowImpl10setupMenusEPNS_16ExtensionManagerE@Base 1.1.0
 _ZN5cnoid14MainWindowImpl11resizeEventEP12QResizeEvent@Base 1.1.0
 _ZN5cnoid14MainWindowImpl11storeLayoutEN5boost13intrusive_ptrINS_11YamlMappingEEE@Base 1.1.0
 _ZN5cnoid14MainWindowImpl12onLoadLayoutEv@Base 1.1.0
 _ZN5cnoid14MainWindowImpl12onSaveLayoutEv@Base 1.1.0
 _ZN5cnoid14MainWindowImpl13clearAllPanesEv@Base 1.1.0
 _ZN5cnoid14MainWindowImpl13keyPressEventEP9QKeyEvent@Base 1.1.0
 _ZN5cnoid14MainWindowImpl13restoreLayoutEN5boost13intrusive_ptrINS_11YamlMappingEEE@Base 1.1.0
 _ZN5cnoid14MainWindowImpl13startViewDragEPNS_4ViewE@Base 1.1.0
 _ZN5cnoid14MainWindowImpl14onLoadLayoutAsEv@Base 1.1.0
 _ZN5cnoid14MainWindowImpl14onSaveLayoutAsEv@Base 1.1.0
 _ZN5cnoid14MainWindowImpl15clearEmptyPanesEv@Base 1.1.0
 _ZN5cnoid14MainWindowImpl16clearAllPanesSubEP9QSplitter@Base 1.1.0
 _ZN5cnoid14MainWindowImpl18createDefaultPanesEv@Base 1.1.0
 _ZN5cnoid14MainWindowImpl18dragViewInsidePaneERK6QPoint@Base 1.1.0
 _ZN5cnoid14MainWindowImpl18dropViewInsidePaneEv@Base 1.1.0
 _ZN5cnoid14MainWindowImpl18storeSplitterStateEP9QSplitter@Base 1.1.0
 _ZN5cnoid14MainWindowImpl19dragViewOutsidePaneEv@Base 1.1.0
 _ZN5cnoid14MainWindowImpl19dropViewOutsidePaneEv@Base 1.1.0
 _ZN5cnoid14MainWindowImpl19onFullScreenToggledEb@Base 1.1.0
 _ZN5cnoid14MainWindowImpl20restoreDefaultLayoutEv@Base 1.1.0
 _ZN5cnoid14MainWindowImpl7addViewERKSsPNS_4ViewE@Base 1.1.0
 _ZN5cnoid14MainWindowImpl8dragViewEP11QMouseEvent@Base 1.1.0
 _ZN5cnoid14MainWindowImpl9showFirstEv@Base 1.1.0
 _ZN5cnoid14MainWindowImplC1EPNS_10MainWindowEPKcPNS_16ExtensionManagerE@Base 1.1.0
 _ZN5cnoid14MainWindowImplC2EPNS_10MainWindowEPKcPNS_16ExtensionManagerE@Base 1.1.0
 _ZN5cnoid14MainWindowImplD1Ev@Base 1.1.0
 _ZN5cnoid14MainWindowImplD2Ev@Base 1.1.0
 _ZN5cnoid14ProjectManager10initializeEPNS_16ExtensionManagerE@Base 1.1.0
 _ZN5cnoid14ProjectManager11loadProjectERKSs@Base 1.1.0
 _ZN5cnoid14ProjectManager11saveProjectERKSs@Base 1.1.0
 (optional=templinst)_ZN5cnoid14ProjectManager15connectArchiverERKSsS2_N5boost8functionIFbRNS_7ArchiveEEEENS4_IFvRKS5_EEE@Base 1.1.0
 _ZN5cnoid14ProjectManager19disconnectArchiversERKSs@Base 1.1.0
 _ZN5cnoid14ProjectManager23overwriteCurrentProjectEv@Base 1.1.0
 _ZN5cnoid14ProjectManager8instanceEv@Base 1.1.0
 _ZN5cnoid14ProjectManagerC1EPNS_16ExtensionManagerE@Base 1.1.0
 _ZN5cnoid14ProjectManagerC2EPNS_16ExtensionManagerE@Base 1.1.0
 _ZN5cnoid14ProjectManagerD1Ev@Base 1.1.0
 _ZN5cnoid14ProjectManagerD2Ev@Base 1.1.0
 _ZN5cnoid14SceneViewEventC1ERKS0_@Base 1.1.0
 _ZN5cnoid14SceneViewEventC1Ev@Base 1.1.0
 _ZN5cnoid14SceneViewEventC2ERKS0_@Base 1.1.0
 _ZN5cnoid14SceneViewEventC2Ev@Base 1.1.0
 _ZN5cnoid14SceneViewEventD1Ev@Base 1.1.0
 _ZN5cnoid14SceneViewEventD2Ev@Base 1.1.0
 _ZN5cnoid14Vector3SeqItem10initializeEPNS_16ExtensionManagerE@Base 1.1.0
 _ZN5cnoid14Vector3SeqItem12notifyUpdateEv@Base 1.1.0
 _ZN5cnoid14Vector3SeqItem15doPutPropertiesERNS_19PutPropertyFunctionE@Base 1.1.0
 _ZN5cnoid14Vector3SeqItem15loadPlainFormatERKSs@Base 1.1.0
 _ZN5cnoid14Vector3SeqItem17saveAsPlainFormatERKSs@Base 1.1.0
 _ZN5cnoid14Vector3SeqItem5storeERNS_7ArchiveE@Base 1.1.0
 _ZN5cnoid14Vector3SeqItem7restoreERKNS_7ArchiveE@Base 1.1.0
 _ZN5cnoid14Vector3SeqItemC1EN5boost10shared_ptrINS_10Vector3SeqEEE@Base 1.1.0
 _ZN5cnoid14Vector3SeqItemC1ERKS0_@Base 1.1.0
 _ZN5cnoid14Vector3SeqItemC1Ev@Base 1.1.0
 _ZN5cnoid14Vector3SeqItemC2EN5boost10shared_ptrINS_10Vector3SeqEEE@Base 1.1.0
 _ZN5cnoid14Vector3SeqItemC2ERKS0_@Base 1.1.0
 _ZN5cnoid14Vector3SeqItemC2Ev@Base 1.1.0
 _ZN5cnoid14Vector3SeqItemD0Ev@Base 1.1.0
 _ZN5cnoid14Vector3SeqItemD1Ev@Base 1.1.0
 _ZN5cnoid14Vector3SeqItemD2Ev@Base 1.1.0
 _ZN5cnoid15AttitudeDragger8attachToEPN3osg5GroupE@Base 1.1.0
 _ZN5cnoid15AttitudeDraggerC1Ev@Base 1.1.0
 _ZN5cnoid15AttitudeDraggerC2Ev@Base 1.1.0
 _ZN5cnoid15AttitudeDraggerD0Ev@Base 1.1.0
 _ZN5cnoid15AttitudeDraggerD1Ev@Base 1.1.0
 _ZN5cnoid15AttitudeDraggerD2Ev@Base 1.1.0
 _ZN5cnoid15DoubleScrollBar10initializeEv@Base 1.1.0
 _ZN5cnoid15DoubleScrollBar11qt_metacallEN11QMetaObject4CallEiPPv@Base 1.1.0
 _ZN5cnoid15DoubleScrollBar11qt_metacastEPKc@Base 1.1.0
 _ZN5cnoid15DoubleScrollBar14onValueChangedEi@Base 1.1.0
 _ZN5cnoid15DoubleScrollBar16staticMetaObjectE@Base 1.1.0
 _ZN5cnoid15DoubleScrollBarC1EN2Qt11OrientationEP7QWidget@Base 1.1.0
 _ZN5cnoid15DoubleScrollBarC1EP7QWidget@Base 1.1.0
 _ZN5cnoid15DoubleScrollBarC2EN2Qt11OrientationEP7QWidget@Base 1.1.0
 _ZN5cnoid15DoubleScrollBarC2EP7QWidget@Base 1.1.0
 _ZN5cnoid15DoubleScrollBarD0Ev@Base 1.1.0
 _ZN5cnoid15DoubleScrollBarD1Ev@Base 1.1.0
 _ZN5cnoid15DoubleScrollBarD2Ev@Base 1.1.0
 _ZN5cnoid15GraphWidgetImpl10changeModeENS_11GraphWidget4ModeE@Base 1.1.0
 _ZN5cnoid15GraphWidgetImpl10drawLimitsER8QPainterPNS_20GraphDataHandlerImplE@Base 1.1.0
 _ZN5cnoid15GraphWidgetImpl10moveScreenEdd@Base 1.1.0
 _ZN5cnoid15GraphWidgetImpl10showLimitsEb@Base 1.1.0
 _ZN5cnoid15GraphWidgetImpl10showRulersEb@Base 1.1.0
 _ZN5cnoid15GraphWidgetImpl10storeStateERNS_7ArchiveE@Base 1.1.0
 _ZN5cnoid15GraphWidgetImpl10updateDataEN5boost10shared_ptrINS_16GraphDataHandlerEEE@Base 1.1.0
 _ZN5cnoid15GraphWidgetImpl10zoomScreenEii@Base 1.1.0
 _ZN5cnoid15GraphWidgetImpl11onActivatedEv@Base 1.1.0
 _ZN5cnoid15GraphWidgetImpl11setGridSizeEdd@Base 1.1.0
 _ZN5cnoid15GraphWidgetImpl12restoreStateERKNS_7ArchiveE@Base 1.1.0
 _ZN5cnoid15GraphWidgetImpl12updateDomainEv@Base 1.1.0
 _ZN5cnoid15GraphWidgetImpl13onDeactivatedEv@Base 1.1.0
 _ZN5cnoid15GraphWidgetImpl14addDataHandlerEN5boost10shared_ptrINS_16GraphDataHandlerEEE@Base 1.1.0
 _ZN5cnoid15GraphWidgetImpl14changeEditModeENS_11GraphWidget8EditModeE@Base 1.1.0
 _ZN5cnoid15GraphWidgetImpl14drawTrajectoryER8QPainterRK5QRectPNS_20GraphDataHandlerImplE@Base 1.1.0
 _ZN5cnoid15GraphWidgetImpl14onFocusInEventEP11QFocusEvent@Base 1.1.0
 _ZN5cnoid15GraphWidgetImpl16doTrajectoryEditEii6QFlagsIN2Qt16KeyboardModifierEE@Base 1.1.0
 _ZN5cnoid15GraphWidgetImpl17clearDataHandlersEv@Base 1.1.0
 _ZN5cnoid15GraphWidgetImpl17enableTimeBarSyncEb@Base 1.1.0
 _ZN5cnoid15GraphWidgetImpl17setAutoScrollModeENS_11GraphWidget10ScrollModeE@Base 1.1.0
 _ZN5cnoid15GraphWidgetImpl17setCursorPositionEdbb@Base 1.1.0
 _ZN5cnoid15GraphWidgetImpl18onScreenPaintEventEP11QPaintEvent@Base 1.1.0
 _ZN5cnoid15GraphWidgetImpl18redoTrajectoryEditEv@Base 1.1.0
 _ZN5cnoid15GraphWidgetImpl18setTimeBarSyncModeEb@Base 1.1.0
 _ZN5cnoid15GraphWidgetImpl18setupConfigurationEv@Base 1.1.0
 _ZN5cnoid15GraphWidgetImpl18undoTrajectoryEditEv@Base 1.1.0
 _ZN5cnoid15GraphWidgetImpl19onHScrollbarChangedEd@Base 1.1.0
 _ZN5cnoid15GraphWidgetImpl19onScreenResizeEventEP12QResizeEvent@Base 1.1.0
 _ZN5cnoid15GraphWidgetImpl19onVScrollbarChangedEd@Base 1.1.0
 _ZN5cnoid15GraphWidgetImpl19setControlPointStepEii@Base 1.1.0
 _ZN5cnoid15GraphWidgetImpl19startTrajectoryEditEv@Base 1.1.0
 _ZN5cnoid15GraphWidgetImpl19updateControlPointsEPNS_20GraphDataHandlerImplE@Base 1.1.0
 _ZN5cnoid15GraphWidgetImpl20finishTrajectoryEditEv@Base 1.1.0
 _ZN5cnoid15GraphWidgetImpl21onScreenKeyPressEventEP9QKeyEvent@Base 1.1.0
 _ZN5cnoid15GraphWidgetImpl21setVerticalValueRangeEdd@Base 1.1.0
 _ZN5cnoid15GraphWidgetImpl22highlightControlPointsEb@Base 1.1.0
 _ZN5cnoid15GraphWidgetImpl22onScreenMouseMoveEventEP11QMouseEvent@Base 1.1.0
 _ZN5cnoid15GraphWidgetImpl23onScreenKeyReleaseEventEP9QKeyEvent@Base 1.1.0
 _ZN5cnoid15GraphWidgetImpl23storeOrgValuesToHistoryEii@Base 1.1.0
 _ZN5cnoid15GraphWidgetImpl26selectEditTargetByClickingEdd@Base 1.1.0
 _ZN5cnoid15GraphWidgetImpl28setCursorPositionWithScreenXEdbb@Base 1.1.0
 _ZN5cnoid15GraphWidgetImpl29onScreenMouseButtonPressEventEP11QMouseEvent@Base 1.1.0
 _ZN5cnoid15GraphWidgetImpl31onScreenMouseButtonReleaseEventEP11QMouseEvent@Base 1.1.0
 _ZN5cnoid15GraphWidgetImpl8drawGridER8QPainter@Base 1.1.0
 _ZN5cnoid15GraphWidgetImpl8showGridEb@Base 1.1.0
 _ZN5cnoid15GraphWidgetImplC1EPNS_11GraphWidgetEPNS_4ViewE@Base 1.1.0
 _ZN5cnoid15GraphWidgetImplC2EPNS_11GraphWidgetEPNS_4ViewE@Base 1.1.0
 _ZN5cnoid15GraphWidgetImplD1Ev@Base 1.1.0
 _ZN5cnoid15GraphWidgetImplD2Ev@Base 1.1.0
 _ZN5cnoid15ItemManagerImpl13registerClassEPNS_11ItemManager11FactoryBaseERKSsS5_@Base 1.1.0
 _ZN5cnoid15ItemManagerImpl14determineSaverERSt4listIN5boost10shared_ptrINS0_5SaverEEESaIS5_EERKSsSA_@Base 1.1.0
 _ZN5cnoid15ItemManagerImpl16addCreationPanelERKSsPNS_17ItemCreationPanelE@Base 1.1.0
 _ZN5cnoid15ItemManagerImpl17CreationPanelBase10createItemEN5boost13intrusive_ptrINS_4ItemEEE@Base 1.1.0
 _ZN5cnoid15ItemManagerImpl17CreationPanelBase8addPanelEPNS_17ItemCreationPanelE@Base 1.1.0
 _ZN5cnoid15ItemManagerImpl17CreationPanelBaseC1ERK7QStringN5boost13intrusive_ptrINS_4ItemEEE@Base 1.1.0
 _ZN5cnoid15ItemManagerImpl17CreationPanelBaseC2ERK7QStringN5boost13intrusive_ptrINS_4ItemEEE@Base 1.1.0
 _ZN5cnoid15ItemManagerImpl17CreationPanelBaseD0Ev@Base 1.1.0
 _ZN5cnoid15ItemManagerImpl17CreationPanelBaseD1Ev@Base 1.1.0
 _ZN5cnoid15ItemManagerImpl17CreationPanelBaseD2Ev@Base 1.1.0
 _ZN5cnoid15ItemManagerImpl18getClassIdentifierEN5boost13intrusive_ptrINS_4ItemEEERSsS5_@Base 1.1.0
 _ZN5cnoid15ItemManagerImpl18onNewItemActivatedEPNS0_17CreationPanelBaseE@Base 1.1.0
 _ZN5cnoid15ItemManagerImpl19onLoadItemActivatedEv@Base 1.1.0
 _ZN5cnoid15ItemManagerImpl22addCreationPanelFilterERKSsN5boost10shared_ptrINS_11ItemManager23CreationPanelFilterBaseEEEb@Base 1.1.0
 _ZN5cnoid15ItemManagerImpl23onSaveAllItemsActivatedEv@Base 1.1.0
 _ZN5cnoid15ItemManagerImpl24expandExtensionsToVectorERKSsRSt6vectorISsSaISsEE@Base 1.1.0
 _ZN5cnoid15ItemManagerImpl28getOrCreateCreationPanelBaseERKSs@Base 1.1.0
 _ZN5cnoid15ItemManagerImpl28onSaveSelectedItemsActivatedEv@Base 1.1.0
 _ZN5cnoid15ItemManagerImpl30onExportSelectedItemsActivatedEv@Base 1.1.0
 _ZN5cnoid15ItemManagerImpl30onReloadSelectedItemsActivatedEv@Base 1.1.0
 _ZN5cnoid15ItemManagerImpl30onSaveSelectedItemsAsActivatedEv@Base 1.1.0
 _ZN5cnoid15ItemManagerImpl31onLoadSpecificTypeItemActivatedEN5boost10shared_ptrINS0_6LoaderEEE@Base 1.1.0
 _ZN5cnoid15ItemManagerImpl33getSaverAndFilenameFromSaveDialogERSt4listIN5boost10shared_ptrINS0_5SaverEEESaIS5_EEbRKSsSA_RSs@Base 1.1.0
 _ZN5cnoid15ItemManagerImpl4loadEN5boost10shared_ptrINS0_6LoaderEEEPNS_4ItemERKSsS6_@Base 1.1.0
 _ZN5cnoid15ItemManagerImpl4loadEPNS_4ItemERKSsS2_S4_@Base 1.1.0
 _ZN5cnoid15ItemManagerImpl4saveEPNS_4ItemEbbSsRKSs@Base 1.1.0
 _ZN5cnoid15ItemManagerImpl5SaverD1Ev@Base 1.1.0
 _ZN5cnoid15ItemManagerImpl5SaverD2Ev@Base 1.1.0
 _ZN5cnoid15ItemManagerImpl6LoaderD0Ev@Base 1.1.0
 _ZN5cnoid15ItemManagerImpl6LoaderD1Ev@Base 1.1.0
 _ZN5cnoid15ItemManagerImpl6LoaderD2Ev@Base 1.1.0
 _ZN5cnoid15ItemManagerImpl6createERKSsS2_@Base 1.1.0
 _ZN5cnoid15ItemManagerImpl8addSaverERKSsS2_S2_S2_N5boost10shared_ptrINS_11ItemManager16FileFunctionBaseEEEi@Base 1.1.0
 _ZN5cnoid15ItemManagerImpl9ClassInfoD1Ev@Base 1.1.0
 _ZN5cnoid15ItemManagerImpl9ClassInfoD2Ev@Base 1.1.0
 _ZN5cnoid15ItemManagerImpl9addLoaderERKSsS2_S2_S2_N5boost10shared_ptrINS_11ItemManager16FileFunctionBaseEEEi@Base 1.1.0
 _ZN5cnoid15ItemManagerImpl9overwriteEPNS_4ItemEbRKSs@Base 1.1.0
 _ZN5cnoid15ItemManagerImplC1ERKSsRNS_11MenuManagerE@Base 1.1.0
 _ZN5cnoid15ItemManagerImplC2ERKSsRNS_11MenuManagerE@Base 1.1.0
 _ZN5cnoid15ItemManagerImplD1Ev@Base 1.1.0
 _ZN5cnoid15ItemManagerImplD2Ev@Base 1.1.0
 _ZN5cnoid15MenuManagerImpl10removeItemEP7QAction@Base 1.1.0
 _ZN5cnoid15MenuManagerImpl10setTopMenuEP7QWidget@Base 1.1.0
 _ZN5cnoid15MenuManagerImpl12addSeparatorEv@Base 1.1.0
 _ZN5cnoid15MenuManagerImpl12setReferenceEP7QAction@Base 1.1.0
 _ZN5cnoid15MenuManagerImpl14unsetReferenceEP7QAction@Base 1.1.0
 _ZN5cnoid15MenuManagerImpl15releaseAllItemsEv@Base 1.1.0
 _ZN5cnoid15MenuManagerImpl7addItemEP7QWidgetP7QAction@Base 1.1.0
 _ZN5cnoid15MenuManagerImpl7addItemERK7QString@Base 1.1.0
 _ZN5cnoid15MenuManagerImpl7setPathERK7QString@Base 1.1.0
 _ZN5cnoid15MenuManagerImpl8findPathERK7QStringb@Base 1.1.0
 _ZN5cnoid15MenuManagerImplC1EPNS_11MenuManagerEP7QWidget@Base 1.1.0
 _ZN5cnoid15MenuManagerImplC2EPNS_11MenuManagerEP7QWidget@Base 1.1.0
 _ZN5cnoid15MenuManagerImplD1Ev@Base 1.1.0
 _ZN5cnoid15MenuManagerImplD2Ev@Base 1.1.0
 _ZN5cnoid15MessageViewImpl5flushEv@Base 1.1.0
 _ZN5cnoid15MessageViewImplC1EPNS_11MessageViewE@Base 1.1.0
 _ZN5cnoid15MessageViewImplC2EPNS_11MessageViewE@Base 1.1.0
 _ZN5cnoid15SceneGLDrawableD0Ev@Base 1.1.0
 _ZN5cnoid15SceneGLDrawableD1Ev@Base 1.1.0
 _ZN5cnoid15SceneGLDrawableD2Ev@Base 1.1.0
 _ZN5cnoid15ToolBarAreaImpl10addToolBarEPNS_7ToolBarE@Base 1.1.0
 _ZN5cnoid15ToolBarAreaImpl11dragToolBarEPNS_7ToolBarERK6QPoint@Base 1.1.0
 _ZN5cnoid15ToolBarAreaImpl11resizeEventEP12QResizeEvent@Base 1.1.0
 _ZN5cnoid15ToolBarAreaImpl11storeLayoutEN5boost13intrusive_ptrINS_11YamlMappingEEE@Base 1.1.0
 _ZN5cnoid15ToolBarAreaImpl13removeToolBarEPNS_7ToolBarE@Base 1.1.0
 _ZN5cnoid15ToolBarAreaImpl13restoreLayoutEN5boost13intrusive_ptrINS_11YamlMappingEEE@Base 1.1.0
 _ZN5cnoid15ToolBarAreaImpl13setNewToolBarEPNS_7ToolBarERSt6vectorIiSaIiEE@Base 1.1.0
 _ZN5cnoid15ToolBarAreaImpl14getAllToolBarsERSt6vectorIPNS_7ToolBarESaIS3_EE@Base 1.1.0
 _ZN5cnoid15ToolBarAreaImpl14layoutToolBarsEv@Base 1.1.0
 _ZN5cnoid15ToolBarAreaImpl14setNewToolBarsEv@Base 1.1.0
 _ZN5cnoid15ToolBarAreaImpl20layoutToolBarRowPartERSt6vectorIPNS_7ToolBarESaIS3_EEiiii@Base 1.1.0
 _ZN5cnoid15ToolBarAreaImpl25normalizeLayoutPrioritiesERSt6vectorIPNS_7ToolBarESaIS3_EE@Base 1.1.0
 _ZN5cnoid15ToolBarAreaImpl34layoutToolBarRowWithDraggedToolBarERSt6vectorIPNS_7ToolBarESaIS3_EEii@Base 1.1.0
 _ZN5cnoid15ToolBarAreaImplC1EPNS_11ToolBarAreaE@Base 1.1.0
 _ZN5cnoid15ToolBarAreaImplC2EPNS_11ToolBarAreaE@Base 1.1.0
 _ZN5cnoid15ToolBarAreaImplD1Ev@Base 1.1.0
 _ZN5cnoid15ToolBarAreaImplD2Ev@Base 1.1.0
 _ZN5cnoid16ExtensionManager10addToolBarEPNS_7ToolBarE@Base 1.1.0
 _ZN5cnoid16ExtensionManager11itemManagerEv@Base 1.1.0
 _ZN5cnoid16ExtensionManager11menuManagerEv@Base 1.1.0
 _ZN5cnoid16ExtensionManager13PtrHolderBaseD0Ev@Base 1.1.0
 _ZN5cnoid16ExtensionManager13PtrHolderBaseD1Ev@Base 1.1.0
 _ZN5cnoid16ExtensionManager13PtrHolderBaseD2Ev@Base 1.1.0
 _ZN5cnoid16ExtensionManager13optionManagerEv@Base 1.1.0
 _ZN5cnoid16ExtensionManager16sigSystemUpdatedEv@Base 1.1.0
 _ZN5cnoid16ExtensionManager17sigReleaseRequestEv@Base 1.1.0
 _ZN5cnoid16ExtensionManager18notifySystemUpdateEv@Base 1.1.0
 (optional=templinst)_ZN5cnoid16ExtensionManager22connectProjectArchiverERKSsN5boost8functionIFbRNS_7ArchiveEEEENS4_IFvRKS5_EEE@Base 1.1.0
 _ZN5cnoid16ExtensionManager24timeSyncItemEngineMangerEv@Base 1.1.0
 (optional=templinst)_ZN5cnoid16ExtensionManager6manageIPNS_14ProjectManagerEEET_S4_@Base 1.1.0
 _ZN5cnoid16ExtensionManager7addViewEPNS_4ViewE@Base 1.1.0
 (optional=templinst)_ZN5cnoid16ExtensionManager9PtrHolderIN5boost13intrusive_ptrINS_8RootItemEEEED0Ev@Base 1.1.0
 (optional=templinst)_ZN5cnoid16ExtensionManager9PtrHolderIN5boost13intrusive_ptrINS_8RootItemEEEED1Ev@Base 1.1.0
 (optional=templinst)_ZN5cnoid16ExtensionManager9PtrHolderIN5boost13intrusive_ptrINS_8RootItemEEEED2Ev@Base 1.1.0
 (optional=templinst)_ZN5cnoid16ExtensionManager9PtrHolderIPNS_14ProjectManagerEED0Ev@Base 1.1.0
 (optional=templinst)_ZN5cnoid16ExtensionManager9PtrHolderIPNS_14ProjectManagerEED1Ev@Base 1.1.0
 (optional=templinst)_ZN5cnoid16ExtensionManager9PtrHolderIPNS_14ProjectManagerEED2Ev@Base 1.1.0
 (optional=templinst)_ZN5cnoid16ExtensionManager9PtrHolderIPNS_4ViewEED0Ev@Base 1.1.0
 (optional=templinst)_ZN5cnoid16ExtensionManager9PtrHolderIPNS_4ViewEED1Ev@Base 1.1.0
 (optional=templinst)_ZN5cnoid16ExtensionManager9PtrHolderIPNS_4ViewEED2Ev@Base 1.1.0
 (optional=templinst)_ZN5cnoid16ExtensionManager9PtrHolderIPNS_7ToolBarEED0Ev@Base 1.1.0
 (optional=templinst)_ZN5cnoid16ExtensionManager9PtrHolderIPNS_7ToolBarEED1Ev@Base 1.1.0
 (optional=templinst)_ZN5cnoid16ExtensionManager9PtrHolderIPNS_7ToolBarEED2Ev@Base 1.1.0
 _ZN5cnoid16ExtensionManager9manageSubEPNS0_13PtrHolderBaseE@Base 1.1.0
 _ZN5cnoid16ExtensionManagerC1ERKSsS2_b@Base 1.1.0
 _ZN5cnoid16ExtensionManagerC1ERKSsb@Base 1.1.0
 _ZN5cnoid16ExtensionManagerC2ERKSsS2_b@Base 1.1.0
 _ZN5cnoid16ExtensionManagerC2ERKSsb@Base 1.1.0
 _ZN5cnoid16ExtensionManagerD0Ev@Base 1.1.0
 _ZN5cnoid16ExtensionManagerD1Ev@Base 1.1.0
 _ZN5cnoid16ExtensionManagerD2Ev@Base 1.1.0
 _ZN5cnoid16GraphDataHandler10clearLinesEv@Base 1.1.0
 _ZN5cnoid16GraphDataHandler14setValueLimitsEdd@Base 1.1.0
 _ZN5cnoid16GraphDataHandler15addVerticalLineEdRKSs@Base 1.1.0
 _ZN5cnoid16GraphDataHandler17addHorizontalLineEdRKSs@Base 1.1.0
 _ZN5cnoid16GraphDataHandler17setVelocityLimitsEdd@Base 1.1.0
 _ZN5cnoid16GraphDataHandler18setFramePropertiesEidd@Base 1.1.0
 _ZN5cnoid16GraphDataHandler22setDataRequestCallbackEN5boost8functionIFviiPdEEE@Base 1.1.0
 _ZN5cnoid16GraphDataHandler23setDataModifiedCallbackEN5boost8functionIFviiPdEEE@Base 1.1.0
 _ZN5cnoid16GraphDataHandler6updateEv@Base 1.1.0
 _ZN5cnoid16GraphDataHandler8setColorEfff@Base 1.1.0
 _ZN5cnoid16GraphDataHandler8setLabelERKSs@Base 1.1.0
 _ZN5cnoid16GraphDataHandlerC1Ev@Base 1.1.0
 _ZN5cnoid16GraphDataHandlerC2Ev@Base 1.1.0
 _ZN5cnoid16GraphDataHandlerD1Ev@Base 1.1.0
 _ZN5cnoid16GraphDataHandlerD2Ev@Base 1.1.0
 _ZN5cnoid16ItemPropertyView10initializeEPNS_16ExtensionManagerE@Base 1.1.0
 _ZN5cnoid16ItemPropertyViewC1Ev@Base 1.1.0
 _ZN5cnoid16ItemPropertyViewC2Ev@Base 1.1.0
 _ZN5cnoid16ItemPropertyViewD0Ev@Base 1.1.0
 _ZN5cnoid16ItemPropertyViewD1Ev@Base 1.1.0
 _ZN5cnoid16ItemPropertyViewD2Ev@Base 1.1.0
 _ZN5cnoid16ItemTreeArchiver15restoreItemIterEPNS_7ArchiveERN5boost13intrusive_ptrINS_4ItemEEE@Base 1.1.0
 _ZN5cnoid16ItemTreeArchiver5storeEN5boost13intrusive_ptrINS_7ArchiveEEENS2_INS_4ItemEEE@Base 1.1.0
 _ZN5cnoid16ItemTreeArchiver7restoreEN5boost13intrusive_ptrINS_7ArchiveEEENS2_INS_4ItemEEE@Base 1.1.0
 _ZN5cnoid16ItemTreeArchiver9storeIterERN5boost13intrusive_ptrINS_7ArchiveEEEPNS_4ItemE@Base 1.1.0
 _ZN5cnoid16ItemTreeArchiverC1Ev@Base 1.1.0
 _ZN5cnoid16ItemTreeArchiverC2Ev@Base 1.1.0
 _ZN5cnoid16ItemTreeArchiverD1Ev@Base 1.1.0
 _ZN5cnoid16ItemTreeArchiverD2Ev@Base 1.1.0
 _ZN5cnoid16ItemTreeViewImpl10pasteItemsEv@Base 1.1.0
 _ZN5cnoid16ItemTreeViewImpl10selectItemEPNS_4ItemEb@Base 1.1.0
 _ZN5cnoid16ItemTreeViewImpl10storeStateERNS_7ArchiveE@Base 1.1.0
 _ZN5cnoid16ItemTreeViewImpl11onItemAddedEPNS_4ItemE@Base 1.1.0
 _ZN5cnoid16ItemTreeViewImpl12checkedItemsEv@Base 1.1.0
 _ZN5cnoid16ItemTreeViewImpl12dropMimeDataEP15QTreeWidgetItemiPK9QMimeDataN2Qt10DropActionE@Base 1.1.0
 _ZN5cnoid16ItemTreeViewImpl12restoreStateERKNS_7ArchiveE@Base 1.1.0
 _ZN5cnoid16ItemTreeViewImpl12storeItemIdsERNS_7ArchiveEPKcRKNS_8ItemListINS_4ItemEEE@Base 1.1.0
 _ZN5cnoid16ItemTreeViewImpl13isItemCheckedEPNS_4ItemE@Base 1.1.0
 _ZN5cnoid16ItemTreeViewImpl13onItemRemovedEPNS_4ItemEb@Base 1.1.0
 _ZN5cnoid16ItemTreeViewImpl13onTreeChangedEv@Base 1.1.0
 _ZN5cnoid16ItemTreeViewImpl14isItemSelectedEPNS_4ItemE@Base 1.1.0
 _ZN5cnoid16ItemTreeViewImpl14onRowsInsertedERK11QModelIndexii@Base 1.1.0
 (optional=templinst)_ZN5cnoid16ItemTreeViewImpl15forEachTopItemsERKNS_8ItemListINS_4ItemEEEN5boost8functionIFvPS2_EEE@Base 1.1.0
 _ZN5cnoid16ItemTreeViewImpl15mousePressEventEP11QMouseEvent@Base 1.1.0
 _ZN5cnoid16ItemTreeViewImpl16cutSelectedItemsEv@Base 1.1.0
 _ZN5cnoid16ItemTreeViewImpl17copySelectedItemsEv@Base 1.1.0
 _ZN5cnoid16ItemTreeViewImpl17restoreItemStatesERKNS_7ArchiveEPKcN5boost8functionIFvNS6_13intrusive_ptrINS_4ItemEEEEEE@Base 1.1.0
 _ZN5cnoid16ItemTreeViewImpl18forEachTopItemsSubEN5boost13intrusive_ptrINS_4ItemEEERNS_8ItemListIS3_EE@Base 1.1.0
 _ZN5cnoid16ItemTreeViewImpl18onSelectionChangedEv@Base 1.1.0
 _ZN5cnoid16ItemTreeViewImpl18storeExpandedItemsERNS_7ArchiveE@Base 1.1.0
 _ZN5cnoid16ItemTreeViewImpl19extractCheckedItemsEP15QTreeWidgetItem@Base 1.1.0
 _ZN5cnoid16ItemTreeViewImpl20restoreExpandedItemsERKNS_7ArchiveE@Base 1.1.0
 _ZN5cnoid16ItemTreeViewImpl21storeExpandedItemsSubEP15QTreeWidgetItemRNS_7ArchiveERN5boost13intrusive_ptrINS_12YamlSequenceEEE@Base 1.1.0
 _ZN5cnoid16ItemTreeViewImpl22onRowsAboutToBeRemovedERK11QModelIndexii@Base 1.1.0
 _ZN5cnoid16ItemTreeViewImpl25duplicateItemsInGivenListEN5boost13intrusive_ptrINS_4ItemEEES4_RNS_8ItemListIS3_EE@Base 1.1.0
 _ZN5cnoid16ItemTreeViewImpl28moveCutItemsToCopiedItemListEPNS_4ItemE@Base 1.1.0
 _ZN5cnoid16ItemTreeViewImpl29addCopiedItemToCopiedItemListEPNS_4ItemE@Base 1.1.0
 _ZN5cnoid16ItemTreeViewImpl29copySelectedItemsWithChildrenEv@Base 1.1.0
 _ZN5cnoid16ItemTreeViewImpl37extractSelectedItemsOfSubTreeTraverseEPNS_4ItemEPNS_12ItemListBaseE@Base 1.1.0
 _ZN5cnoid16ItemTreeViewImpl7addItemEP15QTreeWidgetItemPNS_4ItemE@Base 1.1.0
 _ZN5cnoid16ItemTreeViewImpl9checkItemEPNS_4ItemEb@Base 1.1.0
 _ZN5cnoid16ItemTreeViewImpl9dropEventEP10QDropEvent@Base 1.1.0
 _ZN5cnoid16ItemTreeViewImplC1EPNS_12ItemTreeViewEPNS_8RootItemEb@Base 1.1.0
 _ZN5cnoid16ItemTreeViewImplC2EPNS_12ItemTreeViewEPNS_8RootItemEb@Base 1.1.0
 _ZN5cnoid16ItemTreeViewImplD0Ev@Base 1.1.0
 _ZN5cnoid16ItemTreeViewImplD1Ev@Base 1.1.0
 _ZN5cnoid16ItemTreeViewImplD2Ev@Base 1.1.0
 _ZN5cnoid16MultiSeqItemBase10restoreSubERKNS_7ArchiveE@Base 1.1.0
 _ZN5cnoid16MultiSeqItemBase12notifyUpdateEv@Base 1.1.0
 _ZN5cnoid16MultiSeqItemBase18doPutPropertiesSubERNS_19PutPropertyFunctionEPNS_12MultiSeqBaseE@Base 1.1.0
 _ZN5cnoid16MultiSeqItemBase8storeSubERNS_7ArchiveE@Base 1.1.0
 _ZN5cnoid16MultiSeqItemBaseC1ERKS0_@Base 1.1.0
 _ZN5cnoid16MultiSeqItemBaseC1Ev@Base 1.1.0
 _ZN5cnoid16MultiSeqItemBaseC2ERKS0_@Base 1.1.0
 _ZN5cnoid16MultiSeqItemBaseC2Ev@Base 1.1.0
 _ZN5cnoid16MultiSeqItemBaseD0Ev@Base 1.1.0
 _ZN5cnoid16MultiSeqItemBaseD1Ev@Base 1.1.0
 _ZN5cnoid16MultiSeqItemBaseD2Ev@Base 1.1.0
 _ZN5cnoid16NormalVisualizerC1EPN3osg4NodeEfNS0_4ModeE@Base 1.1.0
 _ZN5cnoid16NormalVisualizerC2EPN3osg4NodeEfNS0_4ModeE@Base 1.1.0
 _ZN5cnoid16NormalVisualizerD0Ev@Base 1.1.0
 _ZN5cnoid16NormalVisualizerD1Ev@Base 1.1.0
 _ZN5cnoid16NormalVisualizerD2Ev@Base 1.1.0
 _ZN5cnoid16ToggleToolButtonC1EP7QWidget@Base 1.1.0
 _ZN5cnoid16ToggleToolButtonC2EP7QWidget@Base 1.1.0
 _ZN5cnoid16ToggleToolButtonD0Ev@Base 1.1.0
 _ZN5cnoid16ToggleToolButtonD1Ev@Base 1.1.0
 _ZN5cnoid16ToggleToolButtonD2Ev@Base 1.1.0
 _ZN5cnoid17ArchiveSharedDataD0Ev@Base 1.1.0
 _ZN5cnoid17ArchiveSharedDataD1Ev@Base 1.1.0
 _ZN5cnoid17ArchiveSharedDataD2Ev@Base 1.1.0
 _ZN5cnoid17DescriptionDialog14setDescriptionERK7QString@Base 1.1.0
 _ZN5cnoid17DescriptionDialogC1Ev@Base 1.1.0
 _ZN5cnoid17DescriptionDialogC2Ev@Base 1.1.0
 _ZN5cnoid17DescriptionDialogD0Ev@Base 1.1.0
 _ZN5cnoid17DescriptionDialogD1Ev@Base 1.1.0
 _ZN5cnoid17DescriptionDialogD2Ev@Base 1.1.0
 _ZN5cnoid17ItemCreationPanel24findPanelOnTheSameDialogERKSs@Base 1.1.0
 _ZN5cnoid17ItemCreationPanelD0Ev@Base 1.1.0
 _ZN5cnoid17ItemCreationPanelD1Ev@Base 1.1.0
 _ZN5cnoid17ItemCreationPanelD2Ev@Base 1.1.0
 _ZN5cnoid17PluginManagerImpl10PluginInfoC1Ev@Base 1.1.0
 _ZN5cnoid17PluginManagerImpl10PluginInfoC2Ev@Base 1.1.0
 _ZN5cnoid17PluginManagerImpl10PluginInfoD1Ev@Base 1.1.0
 _ZN5cnoid17PluginManagerImpl10PluginInfoD2Ev@Base 1.1.0
 _ZN5cnoid17PluginManagerImpl10loadPluginEi@Base 1.1.0
 _ZN5cnoid17PluginManagerImpl12unloadPluginEN5boost10shared_ptrINS0_10PluginInfoEEE@Base 1.1.0
 _ZN5cnoid17PluginManagerImpl12unloadPluginEi@Base 1.1.0
 _ZN5cnoid17PluginManagerImpl14loadAllPluginsEv@Base 1.1.0
 _ZN5cnoid17PluginManagerImpl15scanPluginFilesERKSsb@Base 1.1.0
 _ZN5cnoid17PluginManagerImpl16unloadAllPluginsEv@Base 1.1.0
 _ZN5cnoid17PluginManagerImpl18clearUnusedPluginsEv@Base 1.1.0
 _ZN5cnoid17PluginManagerImpl18onUnloadingRequestEv@Base 1.1.0
 _ZN5cnoid17PluginManagerImpl21guessActualPluginNameERKSs@Base 1.1.0
 _ZN5cnoid17PluginManagerImpl22onAboutDialogTriggeredEPNS0_10PluginInfoE@Base 1.1.0
 _ZN5cnoid17PluginManagerImpl28scanPluginFilesInDefaultPathERKSs@Base 1.1.0
 _ZN5cnoid17PluginManagerImpl35scanPluginFilesInDirectoyOfExecFileEv@Base 1.1.0
 _ZN5cnoid17PluginManagerImplC1Ev@Base 1.1.0
 _ZN5cnoid17PluginManagerImplC2Ev@Base 1.1.0
 _ZN5cnoid17PluginManagerImplD1Ev@Base 1.1.0
 _ZN5cnoid17PluginManagerImplD2Ev@Base 1.1.0
 _ZN5cnoid17callSynchronouslyERKN5boost8functionIFvvEEEi@Base 1.1.0
 _ZN5cnoid17showWarningDialogEPKc@Base 1.1.0
 _ZN5cnoid17showWarningDialogERK7QString@Base 1.1.0
 _ZN5cnoid17showWarningDialogERKN5boost12basic_formatIcSt11char_traitsIcESaIcEEE@Base 1.1.0
 _ZN5cnoid17showWarningDialogERKSs@Base 1.1.0
 _ZN5cnoid18ItemSelectionModel10initializeEv@Base 1.1.0
 _ZN5cnoid18ItemSelectionModel11qt_metacallEN11QMetaObject4CallEiPPv@Base 1.1.0
 _ZN5cnoid18ItemSelectionModel11qt_metacastEPKc@Base 1.1.0
 _ZN5cnoid18ItemSelectionModel16onCurrentChangedERK11QModelIndexS3_@Base 1.1.0
 _ZN5cnoid18ItemSelectionModel16staticMetaObjectE@Base 1.1.0
 _ZN5cnoid18ItemSelectionModel18onSelectionChangedERK14QItemSelectionS3_@Base 1.1.0
 _ZN5cnoid18ItemSelectionModel19onCurrentRowChangedERK11QModelIndexS3_@Base 1.1.0
 _ZN5cnoid18ItemSelectionModel22onCurrentColumnChangedERK11QModelIndexS3_@Base 1.1.0
 _ZN5cnoid18ItemSelectionModelC1EP18QAbstractItemModel@Base 1.1.0
 _ZN5cnoid18ItemSelectionModelC1EP18QAbstractItemModelP7QObject@Base 1.1.0
 _ZN5cnoid18ItemSelectionModelC2EP18QAbstractItemModel@Base 1.1.0
 _ZN5cnoid18ItemSelectionModelC2EP18QAbstractItemModelP7QObject@Base 1.1.0
 _ZN5cnoid18ItemSelectionModelD0Ev@Base 1.1.0
 _ZN5cnoid18ItemSelectionModelD1Ev@Base 1.1.0
 _ZN5cnoid18ItemSelectionModelD2Ev@Base 1.1.0
 _ZN5cnoid18ProjectManagerImpl11loadProjectERKSsb@Base 1.1.0
 _ZN5cnoid18ProjectManagerImpl11saveProjectERKSs@Base 1.1.0
 _ZN5cnoid18ProjectManagerImpl12ArchiverInfoC1ERKS1_@Base 1.1.0
 _ZN5cnoid18ProjectManagerImpl12ArchiverInfoC2ERKS1_@Base 1.1.0
 _ZN5cnoid18ProjectManagerImpl12ArchiverInfoD1Ev@Base 1.1.0
 _ZN5cnoid18ProjectManagerImpl12ArchiverInfoD2Ev@Base 1.1.0
 (optional=templinst)_ZN5cnoid18ProjectManagerImpl12storeObjectsINS_4ViewEEEbRN5boost13intrusive_ptrINS_7ArchiveEEEPKcSt6vectorIPT_SaISC_EE@Base 1.1.0
 (optional=templinst)_ZN5cnoid18ProjectManagerImpl12storeObjectsINS_7ToolBarEEEbRN5boost13intrusive_ptrINS_7ArchiveEEEPKcSt6vectorIPT_SaISC_EE@Base 1.1.0
 _ZN5cnoid18ProjectManagerImpl18onSigOptionsParsedERN5boost15program_options13variables_mapE@Base 1.1.0
 (optional=templinst)_ZN5cnoid18ProjectManagerImpl19restoreObjectStatesINS_4ViewEEEvPNS_7ArchiveES4_RKSt6vectorIPT_SaIS7_EE@Base 1.1.0
 (optional=templinst)_ZN5cnoid18ProjectManagerImpl19restoreObjectStatesINS_7ToolBarEEEvPNS_7ArchiveES4_RKSt6vectorIPT_SaIS7_EE@Base 1.1.0
 _ZN5cnoid18ProjectManagerImpl23openDialogToLoadProjectEv@Base 1.1.0
 _ZN5cnoid18ProjectManagerImpl23openDialogToSaveProjectEv@Base 1.1.0
 _ZN5cnoid18ProjectManagerImpl23overwriteCurrentProjectEv@Base 1.1.0
 _ZN5cnoid18ProjectManagerImpl25onPerspectiveCheckToggledEv@Base 1.1.0
 _ZN5cnoid18ProjectManagerImplC1EPNS_16ExtensionManagerE@Base 1.1.0
 _ZN5cnoid18ProjectManagerImplC2EPNS_16ExtensionManagerE@Base 1.1.0
 _ZN5cnoid18ProjectManagerImplD1Ev@Base 1.1.0
 _ZN5cnoid18ProjectManagerImplD2Ev@Base 1.1.0
 _ZN5cnoid18TimeSyncItemEngine12notifyUpdateEv@Base 1.1.0
 _ZN5cnoid18VrmlToOsgConverter7convertEN5boost13intrusive_ptrINS_8VrmlNodeEEE@Base 1.1.0
 _ZN5cnoid18VrmlToOsgConverterC1Ev@Base 1.1.0
 _ZN5cnoid18VrmlToOsgConverterC2Ev@Base 1.1.0
 _ZN5cnoid18VrmlToOsgConverterD1Ev@Base 1.1.0
 _ZN5cnoid18VrmlToOsgConverterD2Ev@Base 1.1.0
 _ZN5cnoid19PutPropertyFunctionD0Ev@Base 1.1.0
 _ZN5cnoid19PutPropertyFunctionD1Ev@Base 1.1.0
 _ZN5cnoid19PutPropertyFunctionD2Ev@Base 1.1.0
 _ZN5cnoid20ExtensionManagerImpl10setVersionERKSsb@Base 1.1.0
 _ZN5cnoid20ExtensionManagerImpl20deleteManagedObjectsEv@Base 1.1.0
 _ZN5cnoid20ExtensionManagerImplC1EPNS_16ExtensionManagerERKSs@Base 1.1.0
 _ZN5cnoid20ExtensionManagerImplC2EPNS_16ExtensionManagerERKSs@Base 1.1.0
 _ZN5cnoid20ExtensionManagerImplD1Ev@Base 1.1.0
 _ZN5cnoid20ExtensionManagerImplD2Ev@Base 1.1.0
 _ZN5cnoid20GraphDataHandlerImplC1Ev@Base 1.1.0
 _ZN5cnoid20GraphDataHandlerImplC2Ev@Base 1.1.0
 _ZN5cnoid20GraphDataHandlerImplD1Ev@Base 1.1.0
 _ZN5cnoid20GraphDataHandlerImplD2Ev@Base 1.1.0
 _ZN5cnoid20ItemPropertyViewImpl16updatePropertiesEv@Base 1.1.0
 _ZN5cnoid20ItemPropertyViewImpl22onItemSelectionChangedERKNS_8ItemListINS_4ItemEEE@Base 1.1.0
 _ZN5cnoid20ItemPropertyViewImplC1EPNS_16ItemPropertyViewE@Base 1.1.0
 _ZN5cnoid20ItemPropertyViewImplC2EPNS_16ItemPropertyViewE@Base 1.1.0
 _ZN5cnoid20ItemPropertyViewImplD0Ev@Base 1.1.0
 _ZN5cnoid20ItemPropertyViewImplD1Ev@Base 1.1.0
 _ZN5cnoid20ItemPropertyViewImplD2Ev@Base 1.1.0
 _ZN5cnoid20ItemPropertyViewImplclERKSsNS_9SelectionE@Base 1.1.0
 (optional=templinst)_ZN5cnoid20ItemPropertyViewImplclERKSsNS_9SelectionERKN5boost8functionIFbiEEE@Base 1.1.0
 _ZN5cnoid20ItemPropertyViewImplclERKSsS2_@Base 1.1.0
 (optional=templinst)_ZN5cnoid20ItemPropertyViewImplclERKSsS2_RKN5boost8functionIFbS2_EEE@Base 1.1.0
 _ZN5cnoid20ItemPropertyViewImplclERKSsb@Base 1.1.0
 (optional=templinst)_ZN5cnoid20ItemPropertyViewImplclERKSsbRKN5boost8functionIFbbEEE@Base 1.1.0
 _ZN5cnoid20ItemPropertyViewImplclERKSsd@Base 1.1.0
 (optional=templinst)_ZN5cnoid20ItemPropertyViewImplclERKSsdRKN5boost8functionIFbdEEE@Base 1.1.0
 _ZN5cnoid20ItemPropertyViewImplclERKSsi@Base 1.1.0
 (optional=templinst)_ZN5cnoid20ItemPropertyViewImplclERKSsiRKN5boost8functionIFbiEEE@Base 1.1.0
 _ZN5cnoid20ProjectPathSetEditor10initializeEPNS_16ExtensionManagerE@Base 1.1.0
 _ZN5cnoid22VrmlToOsgConverterImpl11convertNodeEPNS_8VrmlNodeE@Base 1.1.0
 _ZN5cnoid22VrmlToOsgConverterImpl14createMaterialEPNS_12VrmlMaterialE@Base 1.1.0
 _ZN5cnoid22VrmlToOsgConverterImpl16convertGroupNodeEPNS_9VrmlGroupE@Base 1.1.0
 _ZN5cnoid22VrmlToOsgConverterImpl16convertShapeNodeEPNS_8VrmlNodeE@Base 1.1.0
 _ZN5cnoid22VrmlToOsgConverterImpl19createTransformNodeEPNS_13VrmlTransformE@Base 1.1.0
 _ZN5cnoid22VrmlToOsgConverterImpl32createGeometryFromIndexedFaceSetEPNS_18VrmlIndexedFaceSetEf@Base 1.1.0
 _ZN5cnoid22VrmlToOsgConverterImpl7convertEPNS_8VrmlNodeE@Base 1.1.0
 _ZN5cnoid22VrmlToOsgConverterImplC1Ev@Base 1.1.0
 _ZN5cnoid22VrmlToOsgConverterImplC2Ev@Base 1.1.0
 _ZN5cnoid22VrmlToOsgConverterImplD1Ev@Base 1.1.0
 _ZN5cnoid22VrmlToOsgConverterImplD2Ev@Base 1.1.0
 _ZN5cnoid24replaceDirectoryVariableEPNS_17ArchiveSharedDataER7QStringRKS2_ii@Base 1.1.0
 _ZN5cnoid25MultiSeqItemCreationPanel14initializeItemEPNS_4ItemE@Base 1.1.0
 _ZN5cnoid25MultiSeqItemCreationPanel15initializePanelEPNS_4ItemE@Base 1.1.0
 _ZN5cnoid25MultiSeqItemCreationPanelC1ERK7QString@Base 1.1.0
 _ZN5cnoid25MultiSeqItemCreationPanelC2ERK7QString@Base 1.1.0
 _ZN5cnoid25MultiSeqItemCreationPanelD0Ev@Base 1.1.0
 _ZN5cnoid25MultiSeqItemCreationPanelD1Ev@Base 1.1.0
 _ZN5cnoid25MultiSeqItemCreationPanelD2Ev@Base 1.1.0
 _ZN5cnoid25TimeSyncItemEngineManager10initializeEv@Base 1.1.0
 (optional=templinst)_ZN5cnoid25TimeSyncItemEngineManager16addEngineFactoryEN5boost8functionIFNS1_13intrusive_ptrINS_18TimeSyncItemEngineEEEPNS_4ItemEEEE@Base 1.1.0
 _ZN5cnoid25TimeSyncItemEngineManagerC1ERKSs@Base 1.1.0
 _ZN5cnoid25TimeSyncItemEngineManagerC2ERKSs@Base 1.1.0
 _ZN5cnoid25TimeSyncItemEngineManagerD1Ev@Base 1.1.0
 _ZN5cnoid25TimeSyncItemEngineManagerD2Ev@Base 1.1.0
 _ZN5cnoid35findSubDirectoryOfDirectoryVariableEPNS_17ArchiveSharedDataERKN5boost11filesystem210basic_pathISsNS3_11path_traitsEEERSsRS6_@Base 1.1.0
 _ZN5cnoid3App10initializeEPKcS2_RK5QIconS2_@Base 1.1.0
 _ZN5cnoid3App12topDirectoryEv@Base 1.1.0
 _ZN5cnoid3App14shareDirectoryEv@Base 1.1.0
 _ZN5cnoid3App16programDirectoryEv@Base 1.1.0
 _ZN5cnoid3App4execEv@Base 1.1.0
 _ZN5cnoid3AppC1ERiRPPc@Base 1.1.0
 _ZN5cnoid3AppC2ERiRPPc@Base 1.1.0
 _ZN5cnoid3AppD0Ev@Base 1.1.0
 _ZN5cnoid3AppD1Ev@Base 1.1.0
 _ZN5cnoid3AppD2Ev@Base 1.1.0
 _ZN5cnoid4Item10addSubItemEN5boost13intrusive_ptrIS0_EE@Base 1.1.0
 _ZN5cnoid4Item10customDataEi@Base 1.1.0
 _ZN5cnoid4Item12addChildItemEN5boost13intrusive_ptrIS0_EE@Base 1.1.0
 _ZN5cnoid4Item12notifyUpdateEv@Base 1.1.0
 _ZN5cnoid4Item12pickSubItemsEPS0_RNS_12ItemListBaseE@Base 1.1.0
 _ZN5cnoid4Item13putPropertiesERNS_19PutPropertyFunctionE@Base 1.1.0
 _ZN5cnoid4Item13setCustomDataEiN5boost13intrusive_ptrINS_10ReferencedEEE@Base 1.1.0
 _ZN5cnoid4Item15clearCustomDataEi@Base 1.1.0
 _ZN5cnoid4Item15doPutPropertiesERNS_19PutPropertyFunctionE@Base 1.1.0
 _ZN5cnoid4Item15insertChildItemEN5boost13intrusive_ptrIS0_EES3_@Base 1.1.0
 _ZN5cnoid4Item17doInsertChildItemEPS0_S1_@Base 1.1.0
 _ZN5cnoid4Item17onConnectedToRootEv@Base 1.1.0
 _ZN5cnoid4Item17onPositionChangedEv@Base 1.1.0
 _ZN5cnoid4Item20detachFromParentItemEv@Base 1.1.0
 _ZN5cnoid4Item21sigClassUnregistered_E@Base 1.1.0
 _ZN5cnoid4Item22onDisconnectedFromRootEv@Base 1.1.0
 _ZN5cnoid4Item23detachFromParentItemSubEb@Base 1.1.0
 _ZN5cnoid4Item25callFuncOnConnectedToRootEv@Base 1.1.0
 _ZN5cnoid4Item26callSlotsOnPositionChangedEv@Base 1.1.0
 _ZN5cnoid4Item26clearLastAccessInformationEv@Base 1.1.0
 _ZN5cnoid4Item27updateLastAccessInformationERKSsS2_@Base 1.1.0
 _ZN5cnoid4Item33emitSigDetachedFromRootForSubTreeEv@Base 1.1.0
 _ZN5cnoid4Item4initEv@Base 1.1.0
 _ZN5cnoid4Item4loadERKSsPS0_S2_@Base 1.1.0
 _ZN5cnoid4Item4loadERKSsS2_@Base 1.1.0
 _ZN5cnoid4Item4saveERKSsS2_@Base 1.1.0
 _ZN5cnoid4Item5storeERNS_7ArchiveE@Base 1.1.0
 _ZN5cnoid4Item6reloadEv@Base 1.1.0
 _ZN5cnoid4Item7restoreERKNS_7ArchiveE@Base 1.1.0
 _ZN5cnoid4Item7setNameERKSs@Base 1.1.0
 _ZN5cnoid4Item8traverseEN5boost8functionIFvPS0_EEE@Base 1.1.0
 _ZN5cnoid4Item8traverseEPS0_RKN5boost8functionIFvS1_EEE@Base 1.1.0
 _ZN5cnoid4Item9overwriteEbRKSs@Base 1.1.0
 _ZN5cnoid4ItemC1ERKS0_@Base 1.1.0
 _ZN5cnoid4ItemC1ERKSs@Base 1.1.0
 _ZN5cnoid4ItemC1Ev@Base 1.1.0
 _ZN5cnoid4ItemC2ERKS0_@Base 1.1.0
 _ZN5cnoid4ItemC2ERKSs@Base 1.1.0
 _ZN5cnoid4ItemC2Ev@Base 1.1.0
 _ZN5cnoid4ItemD0Ev@Base 1.1.0
 _ZN5cnoid4ItemD1Ev@Base 1.1.0
 _ZN5cnoid4ItemD2Ev@Base 1.1.0
 _ZN5cnoid4Menu10initializeEv@Base 1.1.0
 _ZN5cnoid4Menu11onTriggeredEP7QAction@Base 1.1.0
 _ZN5cnoid4Menu11qt_metacallEN11QMetaObject4CallEiPPv@Base 1.1.0
 _ZN5cnoid4Menu11qt_metacastEPKc@Base 1.1.0
 _ZN5cnoid4Menu13onAboutToHideEv@Base 1.1.0
 _ZN5cnoid4Menu16staticMetaObjectE@Base 1.1.0
 _ZN5cnoid4MenuC1EP7QWidget@Base 1.1.0
 _ZN5cnoid4MenuC1ERK7QStringP7QWidget@Base 1.1.0
 _ZN5cnoid4MenuC2EP7QWidget@Base 1.1.0
 _ZN5cnoid4MenuC2ERK7QStringP7QWidget@Base 1.1.0
 _ZN5cnoid4MenuD0Ev@Base 1.1.0
 _ZN5cnoid4MenuD1Ev@Base 1.1.0
 _ZN5cnoid4MenuD2Ev@Base 1.1.0
 _ZN5cnoid4View10storeStateERNS_7ArchiveE@Base 1.1.0
 _ZN5cnoid4View11onActivatedEv@Base 1.1.0
 _ZN5cnoid4View12restoreStateERKNS_7ArchiveE@Base 1.1.0
 _ZN5cnoid4View13onDeactivatedEv@Base 1.1.0
 _ZN5cnoid4View18indicatorOnInfoBarEv@Base 1.1.0
 _ZN5cnoid4View20setDefaultLayoutAreaENS0_10LayoutAreaE@Base 1.1.0
 _ZN5cnoid4View7setNameERK7QString@Base 1.1.0
 _ZN5cnoid4View9hideEventEP10QHideEvent@Base 1.1.0
 _ZN5cnoid4View9setLayoutEP7QLayout@Base 1.1.0
 _ZN5cnoid4View9showEventEP10QShowEvent@Base 1.1.0
 _ZN5cnoid4ViewC1Ev@Base 1.1.0
 _ZN5cnoid4ViewC2Ev@Base 1.1.0
 _ZN5cnoid4ViewD0Ev@Base 1.1.0
 _ZN5cnoid4ViewD1Ev@Base 1.1.0
 _ZN5cnoid4ViewD2Ev@Base 1.1.0
 _ZN5cnoid6Action10initializeEv@Base 1.1.0
 _ZN5cnoid6Action11onTriggeredEb@Base 1.1.0
 _ZN5cnoid6Action11qt_metacallEN11QMetaObject4CallEiPPv@Base 1.1.0
 _ZN5cnoid6Action11qt_metacastEPKc@Base 1.1.0
 _ZN5cnoid6Action16staticMetaObjectE@Base 1.1.0
 _ZN5cnoid6Action9onToggledEb@Base 1.1.0
 _ZN5cnoid6ActionC1EP7QObject@Base 1.1.0
 _ZN5cnoid6ActionC1ERK5QIconP7QObject@Base 1.1.0
 _ZN5cnoid6ActionC1ERK5QIconRK7QStringP7QObject@Base 1.1.0
 _ZN5cnoid6ActionC1ERK7QStringP7QObject@Base 1.1.0
 _ZN5cnoid6ActionC2EP7QObject@Base 1.1.0
 _ZN5cnoid6ActionC2ERK5QIconP7QObject@Base 1.1.0
 _ZN5cnoid6ActionC2ERK5QIconRK7QStringP7QObject@Base 1.1.0
 _ZN5cnoid6ActionC2ERK7QStringP7QObject@Base 1.1.0
 _ZN5cnoid6ActionD0Ev@Base 1.1.0
 _ZN5cnoid6ActionD1Ev@Base 1.1.0
 _ZN5cnoid6ActionD2Ev@Base 1.1.0
 _ZN5cnoid6Dialog10initializeEv@Base 1.1.0
 _ZN5cnoid6Dialog10onAcceptedEv@Base 1.1.0
 _ZN5cnoid6Dialog10onFinishedEi@Base 1.1.0
 _ZN5cnoid6Dialog10onRejectedEv@Base 1.1.0
 _ZN5cnoid6Dialog11qt_metacallEN11QMetaObject4CallEiPPv@Base 1.1.0
 _ZN5cnoid6Dialog11qt_metacastEPKc@Base 1.1.0
 _ZN5cnoid6Dialog16staticMetaObjectE@Base 1.1.0
 _ZN5cnoid6DialogC1EP7QWidget6QFlagsIN2Qt10WindowTypeEE@Base 1.1.0
 _ZN5cnoid6DialogC2EP7QWidget6QFlagsIN2Qt10WindowTypeEE@Base 1.1.0
 _ZN5cnoid6DialogD0Ev@Base 1.1.0
 _ZN5cnoid6DialogD1Ev@Base 1.1.0
 _ZN5cnoid6DialogD2Ev@Base 1.1.0
 _ZN5cnoid6Plugin10addOldNameEPKc@Base 1.1.0
 _ZN5cnoid6Plugin10initializeEv@Base 1.1.0
 _ZN5cnoid6Plugin11descriptionEv@Base 1.1.0
 _ZN5cnoid6Plugin11numOldNamesEv@Base 1.1.0
 _ZN5cnoid6Plugin13numRequisitesEv@Base 1.1.0
 _ZN5cnoid6Plugin4nameEv@Base 1.1.0
 _ZN5cnoid6Plugin6dependEPKc@Base 1.1.0
 _ZN5cnoid6Plugin7oldNameEi@Base 1.1.0
 _ZN5cnoid6Plugin7requireEPKc@Base 1.1.0
 _ZN5cnoid6Plugin8LGPLtextEv@Base 1.1.0
 _ZN5cnoid6Plugin8finalizeEv@Base 1.1.0
 _ZN5cnoid6Plugin9requisiteEi@Base 1.1.0
 _ZN5cnoid6PluginC1EPKc@Base 1.1.0
 _ZN5cnoid6PluginC2EPKc@Base 1.1.0
 _ZN5cnoid6PluginD0Ev@Base 1.1.0
 _ZN5cnoid6PluginD1Ev@Base 1.1.0
 _ZN5cnoid6PluginD2Ev@Base 1.1.0
 _ZN5cnoid6Slider10initializeEv@Base 1.1.0
 _ZN5cnoid6Slider11qt_metacallEN11QMetaObject4CallEiPPv@Base 1.1.0
 _ZN5cnoid6Slider11qt_metacastEPKc@Base 1.1.0
 _ZN5cnoid6Slider14onValueChangedEi@Base 1.1.0
 _ZN5cnoid6Slider16staticMetaObjectE@Base 1.1.0
 _ZN5cnoid6SliderC1EN2Qt11OrientationEP7QWidget@Base 1.1.0
 _ZN5cnoid6SliderC1EP7QWidget@Base 1.1.0
 _ZN5cnoid6SliderC2EN2Qt11OrientationEP7QWidget@Base 1.1.0
 _ZN5cnoid6SliderC2EP7QWidget@Base 1.1.0
 _ZN5cnoid6SliderD0Ev@Base 1.1.0
 _ZN5cnoid6SliderD1Ev@Base 1.1.0
 _ZN5cnoid6SliderD2Ev@Base 1.1.0
 _ZN5cnoid7AppImpl10initializeEPKcS2_RK5QIconS2_@Base 1.1.0
 _ZN5cnoid7AppImpl11eventFilterEP7QObjectP6QEvent@Base 1.1.0
 _ZN5cnoid7AppImpl21showInformationDialogEv@Base 1.1.0
 _ZN5cnoid7AppImpl23findProgramTopDirectoryEv@Base 1.1.0
 _ZN5cnoid7AppImpl25processCommandLineOptionsEv@Base 1.1.0
 _ZN5cnoid7AppImpl4execEv@Base 1.1.0
 _ZN5cnoid7AppImplC1EPNS_3AppERiRPPc@Base 1.1.0
 _ZN5cnoid7AppImplC2EPNS_3AppERiRPPc@Base 1.1.0
 _ZN5cnoid7AppImplD0Ev@Base 1.1.0
 _ZN5cnoid7AppImplD1Ev@Base 1.1.0
 _ZN5cnoid7AppImplD2Ev@Base 1.1.0
 _ZN5cnoid7Archive11writeItemIdERKSsN5boost13intrusive_ptrINS_4ItemEEE@Base 1.1.0
 _ZN5cnoid7Archive14findSubArchiveERKSs@Base 1.1.0
 _ZN5cnoid7Archive14initSharedInfoERKSs@Base 1.1.0
 _ZN5cnoid7Archive14invalidArchiveEv@Base 1.1.0
 _ZN5cnoid7Archive14registerItemIdEPNS_4ItemEi@Base 1.1.0
 _ZN5cnoid7Archive17callPostProcessesEv@Base 1.1.0
 _ZN5cnoid7Archive20setCurrentParentItemEPNS_4ItemE@Base 1.1.0
 _ZN5cnoid7Archive20writeRelocatablePathERKSsS2_@Base 1.1.0
 _ZN5cnoid7Archive21inheritSharedInfoFromEN5boost13intrusive_ptrIS0_EE@Base 1.1.0
 _ZN5cnoid7ArchiveC1Eii@Base 1.1.0
 _ZN5cnoid7ArchiveC1Ev@Base 1.1.0
 _ZN5cnoid7ArchiveC2Eii@Base 1.1.0
 _ZN5cnoid7ArchiveC2Ev@Base 1.1.0
 _ZN5cnoid7ArchiveD0Ev@Base 1.1.0
 _ZN5cnoid7ArchiveD1Ev@Base 1.1.0
 _ZN5cnoid7ArchiveD2Ev@Base 1.1.0
 _ZN5cnoid7FileBar10initializeEPNS_16ExtensionManagerE@Base 1.1.0
 _ZN5cnoid7FileBar8instanceEv@Base 1.1.0
 _ZN5cnoid7FileBarC1Ev@Base 1.1.0
 _ZN5cnoid7FileBarC2Ev@Base 1.1.0
 _ZN5cnoid7FileBarD0Ev@Base 1.1.0
 _ZN5cnoid7FileBarD1Ev@Base 1.1.0
 _ZN5cnoid7FileBarD2Ev@Base 1.1.0
 _ZN5cnoid7InfoBar11qt_metacallEN11QMetaObject4CallEiPPv@Base 1.1.0
 _ZN5cnoid7InfoBar11qt_metacastEPKc@Base 1.1.0
 _ZN5cnoid7InfoBar12setIndicatorEP7QWidget@Base 1.1.0
 _ZN5cnoid7InfoBar14onFocusChangedEP7QWidgetS2_@Base 1.1.0
 _ZN5cnoid7InfoBar16staticMetaObjectE@Base 1.1.0
 _ZN5cnoid7InfoBar20onIndicatorDestroyedEP7QObject@Base 1.1.0
 _ZN5cnoid7InfoBar22removeCurrentIndicatorEv@Base 1.1.0
 _ZN5cnoid7InfoBar6notifyEPKc@Base 1.1.0
 _ZN5cnoid7InfoBar6notifyERK7QString@Base 1.1.0
 _ZN5cnoid7InfoBar6notifyERKSs@Base 1.1.0
 _ZN5cnoid7InfoBar8instanceEv@Base 1.1.0
 _ZN5cnoid7InfoBarC1Ev@Base 1.1.0
 _ZN5cnoid7InfoBarC2Ev@Base 1.1.0
 _ZN5cnoid7InfoBarD0Ev@Base 1.1.0
 _ZN5cnoid7InfoBarD1Ev@Base 1.1.0
 _ZN5cnoid7InfoBarD2Ev@Base 1.1.0
 _ZN5cnoid7SceneGL16dirtyDisplayListEv@Base 1.1.0
 _ZN5cnoid7SceneGL17setUseDisplayListEb@Base 1.1.0
 _ZN5cnoid7SceneGL18initializeDrawableEPNS_15SceneGLDrawableE@Base 1.1.0
 _ZN5cnoid7SceneGLC1ERKS0_RKN3osg6CopyOpE@Base 1.1.0
 _ZN5cnoid7SceneGLC1Ev@Base 1.1.0
 _ZN5cnoid7SceneGLC2ERKS0_RKN3osg6CopyOpE@Base 1.1.0
 _ZN5cnoid7SceneGLC2Ev@Base 1.1.0
 _ZN5cnoid7SceneGLD0Ev@Base 1.1.0
 _ZN5cnoid7SceneGLD1Ev@Base 1.1.0
 _ZN5cnoid7SceneGLD2Ev@Base 1.1.0
 _ZN5cnoid7SpinBox11qt_metacallEN11QMetaObject4CallEiPPv@Base 1.1.0
 _ZN5cnoid7SpinBox11qt_metacastEPKc@Base 1.1.0
 _ZN5cnoid7SpinBox14onValueChangedEi@Base 1.1.0
 _ZN5cnoid7SpinBox16staticMetaObjectE@Base 1.1.0
 _ZN5cnoid7SpinBox18onEditingFinishdedEv@Base 1.1.0
 _ZN5cnoid7SpinBoxC1EP7QWidget@Base 1.1.0
 _ZN5cnoid7SpinBoxC2EP7QWidget@Base 1.1.0
 _ZN5cnoid7SpinBoxD0Ev@Base 1.1.0
 _ZN5cnoid7SpinBoxD1Ev@Base 1.1.0
 _ZN5cnoid7SpinBoxD2Ev@Base 1.1.0
 _ZN5cnoid7TimeBar10initializeEPNS_16ExtensionManagerE@Base 1.1.0
 _ZN5cnoid7TimeBar10storeStateERNS_7ArchiveE@Base 1.1.0
 _ZN5cnoid7TimeBar12restoreStateERKNS_7ArchiveE@Base 1.1.0
 _ZN5cnoid7TimeBar12setFrameRateEd@Base 1.1.0
 _ZN5cnoid7TimeBar12setTimeRangeEdd@Base 1.1.0
 _ZN5cnoid7TimeBar12stopPlaybackEb@Base 1.1.0
 _ZN5cnoid7TimeBar13setRepeatModeEb@Base 1.1.0
 _ZN5cnoid7TimeBar13startPlaybackEv@Base 1.1.0
 _ZN5cnoid7TimeBar14sigTimeChangedEv@Base 1.1.0
 _ZN5cnoid7TimeBar15isDoingPlaybackEv@Base 1.1.0
 _ZN5cnoid7TimeBar15updateFillLevelEid@Base 1.1.0
 _ZN5cnoid7TimeBar18sigPlaybackStartedEv@Base 1.1.0
 _ZN5cnoid7TimeBar18sigPlaybackStoppedEv@Base 1.1.0
 _ZN5cnoid7TimeBar19stopFillLevelUpdateEi@Base 1.1.0
 _ZN5cnoid7TimeBar20startFillLevelUpdateEv@Base 1.1.0
 _ZN5cnoid7TimeBar22sigPlaybackInitializedEv@Base 1.1.0
 _ZN5cnoid7TimeBar7setTimeEd@Base 1.1.0
 _ZN5cnoid7TimeBar8instanceEv@Base 1.1.0
 _ZN5cnoid7TimeBarC1Ev@Base 1.1.0
 _ZN5cnoid7TimeBarC2Ev@Base 1.1.0
 _ZN5cnoid7TimeBarD0Ev@Base 1.1.0
 _ZN5cnoid7TimeBarD1Ev@Base 1.1.0
 _ZN5cnoid7TimeBarD2Ev@Base 1.1.0
 _ZN5cnoid7ToolBar10addSpacingEi@Base 1.1.0
 _ZN5cnoid7ToolBar10setEnabledEb@Base 1.1.0
 _ZN5cnoid7ToolBar10storeStateERNS_7ArchiveE@Base 1.1.0
 _ZN5cnoid7ToolBar11qt_metacallEN11QMetaObject4CallEiPPv@Base 1.1.0
 _ZN5cnoid7ToolBar11qt_metacastEPKc@Base 1.1.0
 _ZN5cnoid7ToolBar12addSeparatorEi@Base 1.1.0
 _ZN5cnoid7ToolBar12restoreStateERKNS_7ArchiveE@Base 1.1.0
 _ZN5cnoid7ToolBar14addRadioButtonEPKPKcRK7QString@Base 1.1.0
 _ZN5cnoid7ToolBar14addRadioButtonERK5QIconRK7QString@Base 1.1.0
 _ZN5cnoid7ToolBar14addRadioButtonERK7QStringS3_@Base 1.1.0
 _ZN5cnoid7ToolBar14changeIconSizeERK5QSize@Base 1.1.0
 _ZN5cnoid7ToolBar14setRadioButtonEPNS_10ToolButtonE@Base 1.1.0
 _ZN5cnoid7ToolBar15addToggleButtonEPKPKcRK7QString@Base 1.1.0
 _ZN5cnoid7ToolBar15addToggleButtonERK5QIconRK7QString@Base 1.1.0
 _ZN5cnoid7ToolBar15addToggleButtonERK7QStringS3_@Base 1.1.0
 _ZN5cnoid7ToolBar16staticMetaObjectE@Base 1.1.0
 _ZN5cnoid7ToolBar17changeIconSizeSubEP7QLayoutRK5QSize@Base 1.1.0
 _ZN5cnoid7ToolBar17currentRadioGroupEv@Base 1.1.0
 _ZN5cnoid7ToolBar20requestNewRadioGroupEv@Base 1.1.0
 _ZN5cnoid7ToolBar8addImageERK7QString@Base 1.1.0
 _ZN5cnoid7ToolBar8addLabelERK7QString@Base 1.1.0
 _ZN5cnoid7ToolBar9addActionEP7QAction@Base 1.1.0
 _ZN5cnoid7ToolBar9addButtonEPKPKcRK7QString@Base 1.1.0
 _ZN5cnoid7ToolBar9addButtonERK5QIconRK7QString@Base 1.1.0
 _ZN5cnoid7ToolBar9addButtonERK7QStringS3_@Base 1.1.0
 _ZN5cnoid7ToolBar9addWidgetEP7QWidget@Base 1.1.0
 _ZN5cnoid7ToolBarC1ERK7QString@Base 1.1.0
 _ZN5cnoid7ToolBarC2ERK7QString@Base 1.1.0
 _ZN5cnoid7ToolBarD0Ev@Base 1.1.0
 _ZN5cnoid7ToolBarD1Ev@Base 1.1.0
 _ZN5cnoid7ToolBarD2Ev@Base 1.1.0
 _ZN5cnoid8BBMarker6createERKN3osg15BoundingBoxImplINS1_5Vec3fEEERKNS1_5Vec4fEf@Base 1.1.0
 _ZN5cnoid8BBMarker9addMarkerEdddf@Base 1.1.0
 _ZN5cnoid8BBMarkerC1ERKN3osg15BoundingBoxImplINS1_5Vec3fEEERKNS1_5Vec4fE@Base 1.1.0
 _ZN5cnoid8BBMarkerC1ERKN3osg15BoundingBoxImplINS1_5Vec3fEEERKNS1_5Vec4fEf@Base 1.1.0
 _ZN5cnoid8BBMarkerC2ERKN3osg15BoundingBoxImplINS1_5Vec3fEEERKNS1_5Vec4fE@Base 1.1.0
 _ZN5cnoid8BBMarkerC2ERKN3osg15BoundingBoxImplINS1_5Vec3fEEERKNS1_5Vec4fEf@Base 1.1.0
 _ZN5cnoid8BBMarkerD0Ev@Base 1.1.0
 _ZN5cnoid8BBMarkerD1Ev@Base 1.1.0
 _ZN5cnoid8BBMarkerD2Ev@Base 1.1.0
 _ZN5cnoid8CheckBox10initializeEv@Base 1.1.0
 _ZN5cnoid8CheckBox11qt_metacallEN11QMetaObject4CallEiPPv@Base 1.1.0
 _ZN5cnoid8CheckBox11qt_metacastEPKc@Base 1.1.0
 _ZN5cnoid8CheckBox14onStateChangedEi@Base 1.1.0
 _ZN5cnoid8CheckBox16staticMetaObjectE@Base 1.1.0
 _ZN5cnoid8CheckBox9onToggledEb@Base 1.1.0
 _ZN5cnoid8CheckBoxC1EP7QWidget@Base 1.1.0
 _ZN5cnoid8CheckBoxC1ERK7QStringP7QWidget@Base 1.1.0
 _ZN5cnoid8CheckBoxC2EP7QWidget@Base 1.1.0
 _ZN5cnoid8CheckBoxC2ERK7QStringP7QWidget@Base 1.1.0
 _ZN5cnoid8CheckBoxD0Ev@Base 1.1.0
 _ZN5cnoid8CheckBoxD1Ev@Base 1.1.0
 _ZN5cnoid8CheckBoxD2Ev@Base 1.1.0
 _ZN5cnoid8ComboBox10enableI18nEPKc@Base 1.1.0
 _ZN5cnoid8ComboBox11addI18nItemEPKc@Base 1.1.0
 _ZN5cnoid8ComboBox11addI18nItemERK5QIconPKc@Base 1.1.0
 _ZN5cnoid8ComboBox11findOrgTextERKSsb@Base 1.1.0
 _ZN5cnoid8ComboBox11onActivatedEi@Base 1.1.0
 _ZN5cnoid8ComboBox11qt_metacallEN11QMetaObject4CallEiPPv@Base 1.1.0
 _ZN5cnoid8ComboBox11qt_metacastEPKc@Base 1.1.0
 _ZN5cnoid8ComboBox13onHighlightedEi@Base 1.1.0
 _ZN5cnoid8ComboBox16staticMetaObjectE@Base 1.1.0
 _ZN5cnoid8ComboBox17onEditTextChangedERK7QString@Base 1.1.0
 _ZN5cnoid8ComboBox21onCurrentIndexChangedEi@Base 1.1.0
 _ZN5cnoid8ComboBoxC1EP7QWidget@Base 1.1.0
 _ZN5cnoid8ComboBoxC2EP7QWidget@Base 1.1.0
 _ZN5cnoid8ComboBoxD0Ev@Base 1.1.0
 _ZN5cnoid8ComboBoxD1Ev@Base 1.1.0
 _ZN5cnoid8ComboBoxD2Ev@Base 1.1.0
 _ZN5cnoid8GraphBar10initializeEPNS_16ExtensionManagerE@Base 1.1.0
 _ZN5cnoid8GraphBar12releaseFocusEPNS_11GraphWidgetE@Base 1.1.0
 _ZN5cnoid8GraphBar18focusedGraphWidgetEv@Base 1.1.0
 _ZN5cnoid8GraphBar5focusEPNS_11GraphWidgetEb@Base 1.1.0
 _ZN5cnoid8GraphBar8instanceEv@Base 1.1.0
 _ZN5cnoid8GraphBarC1Ev@Base 1.1.0
 _ZN5cnoid8GraphBarC2Ev@Base 1.1.0
 _ZN5cnoid8GraphBarD0Ev@Base 1.1.0
 _ZN5cnoid8GraphBarD1Ev@Base 1.1.0
 _ZN5cnoid8GraphBarD2Ev@Base 1.1.0
 (optional=templinst)_ZN5cnoid8ItemListINS_4ItemEE19appendIfTypeMatchesEN5boost13intrusive_ptrIS1_EE@Base 1.1.0
 (optional=templinst)_ZN5cnoid8ItemListINS_4ItemEE5clearEv@Base 1.1.0
 (optional=templinst)_ZN5cnoid8ItemListINS_4ItemEED0Ev@Base 1.1.0
 (optional=templinst)_ZN5cnoid8ItemListINS_4ItemEED1Ev@Base 1.1.0
 (optional=templinst)_ZN5cnoid8ItemListINS_4ItemEED2Ev@Base 1.1.0
 _ZN5cnoid8ItemPath6folderEv@Base 1.1.0
 _ZN5cnoid8ItemPathC1ERKSs@Base 1.1.0
 _ZN5cnoid8ItemPathC2ERKSs@Base 1.1.0
 _ZN5cnoid8ItemPathD1Ev@Base 1.1.0
 _ZN5cnoid8ItemPathD2Ev@Base 1.1.0
 _ZN5cnoid8LGPLtextEv@Base 1.1.0
 _ZN5cnoid8LineEdit10initializeEv@Base 1.1.0
 _ZN5cnoid8LineEdit11qt_metacallEN11QMetaObject4CallEiPPv@Base 1.1.0
 _ZN5cnoid8LineEdit11qt_metacastEPKc@Base 1.1.0
 _ZN5cnoid8LineEdit12onTextEditedERK7QString@Base 1.1.0
 _ZN5cnoid8LineEdit13onTextChangedERK7QString@Base 1.1.0
 _ZN5cnoid8LineEdit15onReturnPressedEv@Base 1.1.0
 _ZN5cnoid8LineEdit16staticMetaObjectE@Base 1.1.0
 _ZN5cnoid8LineEdit17onEditingFinishedEv@Base 1.1.0
 _ZN5cnoid8LineEdit18onSelectionChangedEv@Base 1.1.0
 _ZN5cnoid8LineEdit23onCursorPositionChangedEii@Base 1.1.0
 _ZN5cnoid8LineEditC1EP7QWidget@Base 1.1.0
 _ZN5cnoid8LineEditC1ERK7QStringP7QWidget@Base 1.1.0
 _ZN5cnoid8LineEditC2EP7QWidget@Base 1.1.0
 _ZN5cnoid8LineEditC2ERK7QStringP7QWidget@Base 1.1.0
 _ZN5cnoid8LineEditD0Ev@Base 1.1.0
 _ZN5cnoid8LineEditD1Ev@Base 1.1.0
 _ZN5cnoid8LineEditD2Ev@Base 1.1.0
 _ZN5cnoid8RootItem10initializeEPNS_16ExtensionManagerE@Base 1.1.0
 _ZN5cnoid8RootItem12mainInstanceEv@Base 1.1.0
 _ZN5cnoid8RootItem12sigDestroyedEv@Base 1.1.0
 _ZN5cnoid8RootItem12sigItemAddedEv@Base 1.1.0
 _ZN5cnoid8RootItem14sigItemRemovedEv@Base 1.1.0
 _ZN5cnoid8RootItem14sigTreeChangedEv@Base 1.1.0
 _ZN5cnoid8RootItem15sigItemRemovingEv@Base 1.1.0
 _ZN5cnoid8RootItem18initializeInstanceEv@Base 1.1.0
 _ZN5cnoid8RootItem22notifyEventOnItemAddedEPNS_4ItemE@Base 1.1.0
 _ZN5cnoid8RootItem24notifyEventOnItemRemovedEPNS_4ItemEb@Base 1.1.0
 _ZN5cnoid8RootItem25notifyEventOnItemRemovingEPNS_4ItemEb@Base 1.1.0
 _ZN5cnoid8RootItem5storeERNS_7ArchiveE@Base 1.1.0
 _ZN5cnoid8RootItem7restoreERKNS_7ArchiveE@Base 1.1.0
 _ZN5cnoid8RootItemC1ERKS0_@Base 1.1.0
 _ZN5cnoid8RootItemC1ERKSs@Base 1.1.0
 _ZN5cnoid8RootItemC1Ev@Base 1.1.0
 _ZN5cnoid8RootItemC2ERKS0_@Base 1.1.0
 _ZN5cnoid8RootItemC2ERKSs@Base 1.1.0
 _ZN5cnoid8RootItemC2Ev@Base 1.1.0
 _ZN5cnoid8RootItemD0Ev@Base 1.1.0
 _ZN5cnoid8RootItemD1Ev@Base 1.1.0
 _ZN5cnoid8RootItemD2Ev@Base 1.1.0
 _ZN5cnoid8TreeView10onExpandedERK11QModelIndex@Base 1.1.0
 _ZN5cnoid8TreeView11onActivatedERK11QModelIndex@Base 1.1.0
 _ZN5cnoid8TreeView11onCollapsedERK11QModelIndex@Base 1.1.0
 _ZN5cnoid8TreeView11qt_metacallEN11QMetaObject4CallEiPPv@Base 1.1.0
 _ZN5cnoid8TreeView11qt_metacastEPKc@Base 1.1.0
 _ZN5cnoid8TreeView15onDoubleClickedERK11QModelIndex@Base 1.1.0
 _ZN5cnoid8TreeView16staticMetaObjectE@Base 1.1.0
 _ZN5cnoid8TreeView17onViewportEnteredEv@Base 1.1.0
 _ZN5cnoid8TreeView8setModelEP18QAbstractItemModel@Base 1.1.0
 _ZN5cnoid8TreeView9onClickedERK11QModelIndex@Base 1.1.0
 _ZN5cnoid8TreeView9onEnteredERK11QModelIndex@Base 1.1.0
 _ZN5cnoid8TreeView9onPressedERK11QModelIndex@Base 1.1.0
 _ZN5cnoid8TreeViewC1EP7QWidget@Base 1.1.0
 _ZN5cnoid8TreeViewC2EP7QWidget@Base 1.1.0
 _ZN5cnoid8TreeViewD0Ev@Base 1.1.0
 _ZN5cnoid8TreeViewD1Ev@Base 1.1.0
 _ZN5cnoid8TreeViewD2Ev@Base 1.1.0
 _ZN5cnoid9AppConfig10initializeERKSsS2_@Base 1.1.0
 _ZN5cnoid9AppConfig4loadERKSs@Base 1.1.0
 _ZN5cnoid9AppConfig4saveERKSs@Base 1.1.0
 _ZN5cnoid9AppConfig5flushEv@Base 1.1.0
 _ZN5cnoid9AppConfig7archiveEv@Base 1.1.0
 _ZN5cnoid9OsgViewer13requestRedrawEv@Base 1.1.0
 _ZN5cnoid9OsgViewer7paintGLEv@Base 1.1.0
 _ZN5cnoid9OsgViewerC1EP7QWidgetPK9QGLWidget6QFlagsIN2Qt10WindowTypeEE@Base 1.1.0
 _ZN5cnoid9OsgViewerC2EP7QWidgetPK9QGLWidget6QFlagsIN2Qt10WindowTypeEE@Base 1.1.0
 _ZN5cnoid9OsgViewerD0Ev@Base 1.1.0
 _ZN5cnoid9OsgViewerD1Ev@Base 1.1.0
 _ZN5cnoid9OsgViewerD2Ev@Base 1.1.0
 _ZN5cnoid9OsgWidget21convertToOsgKeySymbolEi@Base 1.1.0
 _ZN5cnoid9OsgWidget22convertToOsgModKeyMaskEi@Base 1.1.0
 _ZN5cnoid9OsgWidget27convertToOsgMouseButtonMaskEi@Base 1.1.0
 _ZN5cnoid9OsgWidget27convertToOsgScrollingMotionEP11QWheelEvent@Base 1.1.0
 _ZN5cnoid9OsgWidget8resizeGLEii@Base 1.1.0
 _ZN5cnoid9OsgWidgetC1EP7QWidgetPK9QGLWidget6QFlagsIN2Qt10WindowTypeEE@Base 1.1.0
 _ZN5cnoid9OsgWidgetC2EP7QWidgetPK9QGLWidget6QFlagsIN2Qt10WindowTypeEE@Base 1.1.0
 _ZN5cnoid9OsgWidgetD0Ev@Base 1.1.0
 _ZN5cnoid9OsgWidgetD1Ev@Base 1.1.0
 _ZN5cnoid9OsgWidgetD2Ev@Base 1.1.0
 _ZN5cnoid9SceneItem10initializeEPNS_16ExtensionManagerE@Base 1.1.0
 _ZN5cnoid9SceneItem15doPutPropertiesERNS_19PutPropertyFunctionE@Base 1.1.0
 _ZN5cnoid9SceneItem5storeERNS_7ArchiveE@Base 1.1.0
 _ZN5cnoid9SceneItem7restoreERKNS_7ArchiveE@Base 1.1.0
 _ZN5cnoid9SceneItem9loadSceneERKSs@Base 1.1.0
 _ZN5cnoid9SceneItemC1ERKS0_@Base 1.1.0
 _ZN5cnoid9SceneItemC1Ev@Base 1.1.0
 _ZN5cnoid9SceneItemC2ERKS0_@Base 1.1.0
 _ZN5cnoid9SceneItemC2Ev@Base 1.1.0
 _ZN5cnoid9SceneItemD0Ev@Base 1.1.0
 _ZN5cnoid9SceneItemD1Ev@Base 1.1.0
 _ZN5cnoid9SceneItemD2Ev@Base 1.1.0
 _ZN5cnoid9SceneView10initializeEPNS_16ExtensionManagerE@Base 1.1.0
 _ZN5cnoid9SceneView10storeStateERNS_7ArchiveE@Base 1.1.0
 _ZN5cnoid9SceneView12mainInstanceEv@Base 1.1.0
 _ZN5cnoid9SceneView12restoreStateERKNS_7ArchiveE@Base 1.1.0
 _ZN5cnoid9SceneView12toggleShadowEb@Base 1.1.0
 _ZN5cnoid9SceneView13requestRedrawEv@Base 1.1.0
 _ZN5cnoid9SceneView13setScreenSizeEii@Base 1.1.0
 _ZN5cnoid9SceneView14addSceneObjectEPNS_11SceneObjectE@Base 1.1.0
 _ZN5cnoid9SceneView15toggleFloorGridEb@Base 1.1.0
 _ZN5cnoid9SceneView15updateIndicatorERKSs@Base 1.1.0
 _ZN5cnoid9SceneView16getCameraControlEv@Base 1.1.0
 _ZN5cnoid9SceneView17removeSceneObjectEPNS_11SceneObjectE@Base 1.1.0
 _ZN5cnoid9SceneView18indicatorOnInfoBarEv@Base 1.1.0
 _ZN5cnoid9SceneView20addPreprocessingNodeEPN3osg4NodeE@Base 1.1.0
 _ZN5cnoid9SceneView20releaseCameraControlEPN3osg6CameraE@Base 1.1.0
 _ZN5cnoid9SceneView23removePreprocessingNodeEPN3osg4NodeE@Base 1.1.0
 _ZN5cnoid9SceneView6viewerEv@Base 1.1.0
 _ZN5cnoid9SceneView9saveImageERKSs@Base 1.1.0
 _ZN5cnoid9SceneViewC1Ev@Base 1.1.0
 _ZN5cnoid9SceneViewC2Ev@Base 1.1.0
 _ZN5cnoid9SceneViewD0Ev@Base 1.1.0
 _ZN5cnoid9SceneViewD1Ev@Base 1.1.0
 _ZN5cnoid9SceneViewD2Ev@Base 1.1.0
 _ZN5cnoid9ScrollBar10initializeEv@Base 1.1.0
 _ZN5cnoid9ScrollBar11qt_metacallEN11QMetaObject4CallEiPPv@Base 1.1.0
 _ZN5cnoid9ScrollBar11qt_metacastEPKc@Base 1.1.0
 _ZN5cnoid9ScrollBar14onValueChangedEi@Base 1.1.0
 _ZN5cnoid9ScrollBar16staticMetaObjectE@Base 1.1.0
 _ZN5cnoid9ScrollBarC1EN2Qt11OrientationEP7QWidget@Base 1.1.0
 _ZN5cnoid9ScrollBarC1EP7QWidget@Base 1.1.0
 _ZN5cnoid9ScrollBarC2EN2Qt11OrientationEP7QWidget@Base 1.1.0
 _ZN5cnoid9ScrollBarC2EP7QWidget@Base 1.1.0
 _ZN5cnoid9ScrollBarD0Ev@Base 1.1.0
 _ZN5cnoid9ScrollBarD1Ev@Base 1.1.0
 _ZN5cnoid9ScrollBarD2Ev@Base 1.1.0
 _ZN5cnoid9callLaterERKN5boost8functionIFvvEEEi@Base 1.1.0
 _ZN5osgDB10ObjectMarkD1Ev@Base 1.1.0
 _ZN5osgDB10ObjectMarkD2Ev@Base 1.1.0
 _ZN5osgDB12ReaderWriter10ReadResultD1Ev@Base 1.1.0
 _ZN5osgDB12ReaderWriter10ReadResultD2Ev@Base 1.1.0
 _ZN5osgDB14ObjectPropertyD1Ev@Base 1.1.0
 _ZN5osgDB14ObjectPropertyD2Ev@Base 1.1.0
 _ZN5osgFX5proxyE@Base 1.1.0
 _ZN5osgFX6Effect9setUpDemoEv@Base 1.1.0
 _ZN5osgFX8Registry14registerEffectEPKNS_6EffectE@Base 1.1.0
 _ZN5osgFX9Technique13techniqueNameEv@Base 1.1.0
 _ZN5osgFX9Technique16getOverrideChildEi@Base 1.1.0
 _ZN5osgFX9Technique20techniqueDescriptionEv@Base 1.1.0
 _ZN5osgFX9Technique8traverseERN3osg11NodeVisitorEPNS_6EffectE@Base 1.1.0
 _ZN5osgFX9TechniqueD0Ev@Base 1.1.0
 _ZN5osgFX9TechniqueD1Ev@Base 1.1.0
 _ZN5osgFX9TechniqueD2Ev@Base 1.1.0
 _ZN5osgGA15GUIEventHandler6handleERKNS_15GUIEventAdapterERNS_16GUIActionAdapterE@Base 1.1.0
 _ZN5osgGA15GUIEventHandler6handleERKNS_15GUIEventAdapterERNS_16GUIActionAdapterEPN3osg6ObjectEPNS6_11NodeVisitorE@Base 1.1.0
 _ZN5osgGA15GUIEventHandlerC1Ev@Base 1.1.0
 _ZN5osgGA15GUIEventHandlerD0Ev@Base 1.1.0
 _ZN5osgGA15GUIEventHandlerD1Ev@Base 1.1.0
 _ZN5osgGA15GUIEventHandlerD2Ev@Base 1.1.0
 _ZN5osgGA16GUIActionAdapter6asViewEv@Base 1.1.0
 _ZN5osgGA16GUIActionAdapterD0Ev@Base 1.1.0
 _ZN5osgGA16GUIActionAdapterD1Ev@Base 1.1.0
 _ZN5osgGA16GUIActionAdapterD2Ev@Base 1.1.0
 _ZN7QStringD1Ev@Base 1.1.0
 _ZN7QStringD2Ev@Base 1.1.0
 _ZN7QStringaSEPKc@Base 1.1.0
 (optional=templinst)_ZN7QVectorI7QPointFE13detach_helperEv@Base 1.1.0
 (optional=templinst)_ZN7QVectorI7QPointFE6resizeEi@Base 1.1.0
 (optional=templinst)_ZN7QVectorI7QPointFE7reallocEii@Base 1.1.0
 (optional=templinst)_ZN7QVectorI7QPointFED1Ev@Base 1.1.0
 (optional=templinst)_ZN7QVectorI7QPointFED2Ev@Base 1.1.0
 (optional=templinst)_ZN7QVectorIdE6appendERKd@Base 1.1.0
 (optional=templinst)_ZN7QVectorIdE7reallocEii@Base 1.1.0
 (optional=templinst)_ZN7QVectorIdED1Ev@Base 1.1.0
 (optional=templinst)_ZN7QVectorIdED2Ev@Base 1.1.0
 _ZN7QWidget4showEv@Base 1.1.0
 _ZN7QWidget6updateEiiii@Base 1.1.0
 _ZN8QPainter8drawLineERK7QPointFS2_@Base 1.1.0
 _ZN9QCheckBoxD0Ev@Base 1.1.0
 _ZN9QCheckBoxD1Ev@Base 1.1.0
 _ZN9QCheckBoxD2Ev@Base 1.1.0
 _ZN9osgViewer10ViewerBaseD0Ev@Base 1.1.0
 _ZN9osgViewer10ViewerBaseD1Ev@Base 1.1.0
 _ZN9osgViewer14GraphicsWindow11checkEventsEv@Base 1.1.0
 _ZN9osgViewer14GraphicsWindow12setSwapGroupEbjj@Base 1.1.0
 _ZN9osgViewer14GraphicsWindow13getWindowNameEv@Base 1.1.0
 _ZN9osgViewer14GraphicsWindow13setWindowNameERKSs@Base 1.1.0
 _ZN9osgViewer14GraphicsWindow15setSyncToVBlankEb@Base 1.1.0
 _ZN9osgViewer14GraphicsWindow18getWindowRectangleERiS1_S1_S1_@Base 1.1.0
 _ZN9osgViewer14GraphicsWindow18requestWarpPointerEff@Base 1.1.0
 _ZN9osgViewer14GraphicsWindow23requestContinuousUpdateEb@Base 1.1.0
 _ZN9osgViewer14GraphicsWindow32makeContextCurrentImplementationEPN3osg15GraphicsContextE@Base 1.1.0
 _ZN9osgViewer14GraphicsWindow32setWindowRectangleImplementationEiiii@Base 1.1.0
 _ZN9osgViewer14GraphicsWindow33setWindowDecorationImplementationEb@Base 1.1.0
 _ZN9osgViewer14GraphicsWindow34bindPBufferToTextureImplementationEj@Base 1.1.0
 _ZN9osgViewer14GraphicsWindow9setCursorENS0_11MouseCursorE@Base 1.1.0
 _ZN9osgViewer14GraphicsWindow9useCursorEb@Base 1.1.0
 _ZN9osgViewer14GraphicsWindowC1Ev@Base 1.1.0
 _ZN9osgViewer14GraphicsWindowC2Ev@Base 1.1.0
 _ZN9osgViewer14GraphicsWindowD0Ev@Base 1.1.0
 _ZN9osgViewer14GraphicsWindowD1Ev@Base 1.1.0
 _ZN9osgViewer14GraphicsWindowD2Ev@Base 1.1.0
 _ZN9osgViewer22GraphicsWindowEmbedded11raiseWindowEv@Base 1.1.0
 _ZN9osgViewer22GraphicsWindowEmbedded19closeImplementationEv@Base 1.1.0
 _ZN9osgViewer22GraphicsWindowEmbedded21realizeImplementationEv@Base 1.1.0
 _ZN9osgViewer22GraphicsWindowEmbedded25makeCurrentImplementationEv@Base 1.1.0
 _ZN9osgViewer22GraphicsWindowEmbedded25swapBuffersImplementationEv@Base 1.1.0
 _ZN9osgViewer22GraphicsWindowEmbedded26grabFocusIfPointerInWindowEv@Base 1.1.0
 _ZN9osgViewer22GraphicsWindowEmbedded28releaseContextImplementationEv@Base 1.1.0
 _ZN9osgViewer22GraphicsWindowEmbedded4initEv@Base 1.1.0
 _ZN9osgViewer22GraphicsWindowEmbedded9grabFocusEv@Base 1.1.0
 _ZN9osgViewer22GraphicsWindowEmbeddedC1Eiiii@Base 1.1.0
 _ZN9osgViewer22GraphicsWindowEmbeddedC2Eiiii@Base 1.1.0
 _ZN9osgViewer22GraphicsWindowEmbeddedD0Ev@Base 1.1.0
 _ZN9osgViewer22GraphicsWindowEmbeddedD1Ev@Base 1.1.0
 _ZN9osgViewer22GraphicsWindowEmbeddedD2Ev@Base 1.1.0
 _ZN9osgViewer4View6asViewEv@Base 1.1.0
 _ZN9osgViewer6Viewer10viewerInitEv@Base 1.1.0
 _ZN9osgViewer6Viewer14getViewerStatsEv@Base 1.1.0
 _ZN9osgViewer6Viewer14setViewerStatsEPN3osg5StatsE@Base 1.1.0
 _ZN9osgViewer6Viewer19getViewerFrameStampEv@Base 1.1.0
 _ZNK3osg10IndexArray12isSameKindAsEPKNS_6ObjectE@Base 1.1.0
 _ZNK3osg11NodeVisitor11getEyePointEv@Base 1.1.0
 _ZNK3osg11NodeVisitor11libraryNameEv@Base 1.1.0
 _ZNK3osg11NodeVisitor12getViewPointEv@Base 1.1.0
 _ZNK3osg11NodeVisitor21getDistanceToEyePointERKNS_5Vec3fEb@Base 1.1.0
 _ZNK3osg11NodeVisitor22getDistanceToViewPointERKNS_5Vec3fEb@Base 1.1.0
 _ZNK3osg11NodeVisitor23getDistanceFromEyePointERKNS_5Vec3fEb@Base 1.1.0
 _ZNK3osg11NodeVisitor9classNameEv@Base 1.1.0
 _ZNK3osg12DrawElements15getDrawElementsEv@Base 1.1.0
 _ZNK3osg12NodeCallback11libraryNameEv@Base 1.1.0
 _ZNK3osg12NodeCallback12isSameKindAsEPKNS_6ObjectE@Base 1.1.0
 _ZNK3osg12NodeCallback5cloneERKNS_6CopyOpE@Base 1.1.0
 _ZNK3osg12NodeCallback9classNameEv@Base 1.1.0
 _ZNK3osg12NodeCallback9cloneTypeEv@Base 1.1.0
 _ZNK3osg12PrimitiveSet11libraryNameEv@Base 1.1.0
 _ZNK3osg12PrimitiveSet12computeRangeEv@Base 1.1.0
 _ZNK3osg12PrimitiveSet12isSameKindAsEPKNS_6ObjectE@Base 1.1.0
 _ZNK3osg12PrimitiveSet14getDataPointerEv@Base 1.1.0
 _ZNK3osg12PrimitiveSet16getTotalDataSizeEv@Base 1.1.0
 _ZNK3osg12PrimitiveSet20supportsBufferObjectEv@Base 1.1.0
 _ZNK3osg12PrimitiveSet9classNameEv@Base 1.1.0
 (optional=templinst)_ZNK3osg13TemplateArrayINS_5Vec3fELNS_5Array4TypeE10ELi3ELi5126EE14getDataPointerEv@Base 1.1.0
 (optional=templinst)_ZNK3osg13TemplateArrayINS_5Vec3fELNS_5Array4TypeE10ELi3ELi5126EE14getNumElementsEv@Base 1.1.0
 (optional=templinst)_ZNK3osg13TemplateArrayINS_5Vec3fELNS_5Array4TypeE10ELi3ELi5126EE16getTotalDataSizeEv@Base 1.1.0
 (optional=templinst)_ZNK3osg13TemplateArrayINS_5Vec3fELNS_5Array4TypeE10ELi3ELi5126EE5cloneERKNS_6CopyOpE@Base 1.1.0
 (optional=templinst)_ZNK3osg13TemplateArrayINS_5Vec3fELNS_5Array4TypeE10ELi3ELi5126EE6acceptERNS_17ConstArrayVisitorE@Base 1.1.0
 (optional=templinst)_ZNK3osg13TemplateArrayINS_5Vec3fELNS_5Array4TypeE10ELi3ELi5126EE6acceptEjRNS_17ConstValueVisitorE@Base 1.1.0
 (optional=templinst)_ZNK3osg13TemplateArrayINS_5Vec3fELNS_5Array4TypeE10ELi3ELi5126EE7compareEjj@Base 1.1.0
 (optional=templinst)_ZNK3osg13TemplateArrayINS_5Vec3fELNS_5Array4TypeE10ELi3ELi5126EE9cloneTypeEv@Base 1.1.0
 (optional=templinst)_ZNK3osg13TemplateArrayINS_5Vec4fELNS_5Array4TypeE11ELi4ELi5126EE14getDataPointerEv@Base 1.1.0
 (optional=templinst)_ZNK3osg13TemplateArrayINS_5Vec4fELNS_5Array4TypeE11ELi4ELi5126EE14getNumElementsEv@Base 1.1.0
 (optional=templinst)_ZNK3osg13TemplateArrayINS_5Vec4fELNS_5Array4TypeE11ELi4ELi5126EE16getTotalDataSizeEv@Base 1.1.0
 (optional=templinst)_ZNK3osg13TemplateArrayINS_5Vec4fELNS_5Array4TypeE11ELi4ELi5126EE5cloneERKNS_6CopyOpE@Base 1.1.0
 (optional=templinst)_ZNK3osg13TemplateArrayINS_5Vec4fELNS_5Array4TypeE11ELi4ELi5126EE6acceptERNS_17ConstArrayVisitorE@Base 1.1.0
 (optional=templinst)_ZNK3osg13TemplateArrayINS_5Vec4fELNS_5Array4TypeE11ELi4ELi5126EE6acceptEjRNS_17ConstValueVisitorE@Base 1.1.0
 (optional=templinst)_ZNK3osg13TemplateArrayINS_5Vec4fELNS_5Array4TypeE11ELi4ELi5126EE7compareEjj@Base 1.1.0
 (optional=templinst)_ZNK3osg13TemplateArrayINS_5Vec4fELNS_5Array4TypeE11ELi4ELi5126EE9cloneTypeEv@Base 1.1.0
 _ZNK3osg15GraphicsContext5cloneERKNS_6CopyOpE@Base 1.1.0
 _ZNK3osg15GraphicsContext9cloneTypeEv@Base 1.1.0
 _ZNK3osg15MatrixTransform11libraryNameEv@Base 1.1.0
 _ZNK3osg15MatrixTransform12isSameKindAsEPKNS_6ObjectE@Base 1.1.0
 _ZNK3osg15MatrixTransform17asMatrixTransformEv@Base 1.1.0
 _ZNK3osg15MatrixTransform5cloneERKNS_6CopyOpE@Base 1.1.0
 _ZNK3osg15MatrixTransform9classNameEv@Base 1.1.0
 _ZNK3osg15MatrixTransform9cloneTypeEv@Base 1.1.0
 (optional=templinst)_ZNK3osg18TemplateIndexArrayIiLNS_5Array4TypeE3ELi1ELi5124EE14getDataPointerEv@Base 1.1.0
 (optional=templinst)_ZNK3osg18TemplateIndexArrayIiLNS_5Array4TypeE3ELi1ELi5124EE14getNumElementsEv@Base 1.1.0
 (optional=templinst)_ZNK3osg18TemplateIndexArrayIiLNS_5Array4TypeE3ELi1ELi5124EE16getTotalDataSizeEv@Base 1.1.0
 (optional=templinst)_ZNK3osg18TemplateIndexArrayIiLNS_5Array4TypeE3ELi1ELi5124EE5cloneERKNS_6CopyOpE@Base 1.1.0
 (optional=templinst)_ZNK3osg18TemplateIndexArrayIiLNS_5Array4TypeE3ELi1ELi5124EE5indexEj@Base 1.1.0
 (optional=templinst)_ZNK3osg18TemplateIndexArrayIiLNS_5Array4TypeE3ELi1ELi5124EE6acceptERNS_17ConstArrayVisitorE@Base 1.1.0
 (optional=templinst)_ZNK3osg18TemplateIndexArrayIiLNS_5Array4TypeE3ELi1ELi5124EE6acceptEjRNS_17ConstValueVisitorE@Base 1.1.0
 (optional=templinst)_ZNK3osg18TemplateIndexArrayIiLNS_5Array4TypeE3ELi1ELi5124EE7compareEjj@Base 1.1.0
 (optional=templinst)_ZNK3osg18TemplateIndexArrayIiLNS_5Array4TypeE3ELi1ELi5124EE9cloneTypeEv@Base 1.1.0
 (optional=templinst)_ZNK3osg18TemplateIndexArrayIjLNS_5Array4TypeE6ELi1ELi5125EE14getDataPointerEv@Base 1.1.0
 (optional=templinst)_ZNK3osg18TemplateIndexArrayIjLNS_5Array4TypeE6ELi1ELi5125EE14getNumElementsEv@Base 1.1.0
 (optional=templinst)_ZNK3osg18TemplateIndexArrayIjLNS_5Array4TypeE6ELi1ELi5125EE16getTotalDataSizeEv@Base 1.1.0
 (optional=templinst)_ZNK3osg18TemplateIndexArrayIjLNS_5Array4TypeE6ELi1ELi5125EE5cloneERKNS_6CopyOpE@Base 1.1.0
 (optional=templinst)_ZNK3osg18TemplateIndexArrayIjLNS_5Array4TypeE6ELi1ELi5125EE5indexEj@Base 1.1.0
 (optional=templinst)_ZNK3osg18TemplateIndexArrayIjLNS_5Array4TypeE6ELi1ELi5125EE6acceptERNS_17ConstArrayVisitorE@Base 1.1.0
 (optional=templinst)_ZNK3osg18TemplateIndexArrayIjLNS_5Array4TypeE6ELi1ELi5125EE6acceptEjRNS_17ConstValueVisitorE@Base 1.1.0
 (optional=templinst)_ZNK3osg18TemplateIndexArrayIjLNS_5Array4TypeE6ELi1ELi5125EE7compareEjj@Base 1.1.0
 (optional=templinst)_ZNK3osg18TemplateIndexArrayIjLNS_5Array4TypeE6ELi1ELi5125EE9cloneTypeEv@Base 1.1.0
 _ZNK3osg4Node11asTransformEv@Base 1.1.0
 _ZNK3osg4Node7asGeodeEv@Base 1.1.0
 _ZNK3osg4Node7asGroupEv@Base 1.1.0
 _ZNK3osg4Node8asSwitchEv@Base 1.1.0
 _ZNK3osg4Node8getBoundEv@Base 1.1.0
 _ZNK3osg4Node9asTerrainEv@Base 1.1.0
 _ZNK3osg4View11libraryNameEv@Base 1.1.0
 _ZNK3osg4View12isSameKindAsEPKNS_6ObjectE@Base 1.1.0
 _ZNK3osg4View5cloneERKNS_6CopyOpE@Base 1.1.0
 _ZNK3osg4View9classNameEv@Base 1.1.0
 _ZNK3osg4View9cloneTypeEv@Base 1.1.0
 _ZNK3osg5Array11libraryNameEv@Base 1.1.0
 _ZNK3osg5Array12isSameKindAsEPKNS_6ObjectE@Base 1.1.0
 _ZNK3osg5Geode11libraryNameEv@Base 1.1.0
 _ZNK3osg5Geode12isSameKindAsEPKNS_6ObjectE@Base 1.1.0
 _ZNK3osg5Geode5cloneERKNS_6CopyOpE@Base 1.1.0
 _ZNK3osg5Geode7asGeodeEv@Base 1.1.0
 _ZNK3osg5Geode9classNameEv@Base 1.1.0
 _ZNK3osg5Geode9cloneTypeEv@Base 1.1.0
 _ZNK3osg5Group12isSameKindAsEPKNS_6ObjectE@Base 1.1.0
 _ZNK3osg5Group5cloneERKNS_6CopyOpE@Base 1.1.0
 _ZNK3osg5Group7asGroupEv@Base 1.1.0
 _ZNK3osg5Group9cloneTypeEv@Base 1.1.0
 _ZNK3osg6Object12isSameKindAsEPKS0_@Base 1.1.0
 _ZNK3osg6Object16releaseGLObjectsEPNS_5StateE@Base 1.1.0
 _ZNK3osg7Matrixd7preMultERKNS_5Vec3dE@Base 1.1.0
 _ZNK3osg8Drawable10asGeometryEv@Base 1.1.0
 _ZNK3osg8Drawable13EventCallback11libraryNameEv@Base 1.1.0
 _ZNK3osg8Drawable13EventCallback12isSameKindAsEPKNS_6ObjectE@Base 1.1.0
 _ZNK3osg8Drawable13EventCallback5cloneERKNS_6CopyOpE@Base 1.1.0
 _ZNK3osg8Drawable13EventCallback9classNameEv@Base 1.1.0
 _ZNK3osg8Drawable13EventCallback9cloneTypeEv@Base 1.1.0
 _ZNK3osg8Drawable19getGLObjectSizeHintEv@Base 1.1.0
 _ZNK3osg8Drawable6acceptERNS0_21ConstAttributeFunctorE@Base 1.1.0
 _ZNK3osg8Drawable6acceptERNS_21PrimitiveIndexFunctorE@Base 1.1.0
 _ZNK3osg8Drawable8supportsERKNS0_16AttributeFunctorE@Base 1.1.0
 _ZNK3osg8Drawable8supportsERKNS0_21ConstAttributeFunctorE@Base 1.1.0
 _ZNK3osg8Drawable8supportsERKNS_16PrimitiveFunctorE@Base 1.1.0
 _ZNK3osg8Drawable8supportsERKNS_21PrimitiveIndexFunctorE@Base 1.1.0
 _ZNK3osg9Transform11asTransformEv@Base 1.1.0
 _ZNK3osg9Transform27asPositionAttitudeTransformEv@Base 1.1.0
 (optional=templinst)_ZNK5Eigen10MatrixBaseINS_6MatrixIdLi2ELi1ELi0ELi2ELi1EEEE4normEv@Base 1.1.0
 (optional=templinst)_ZNK5Eigen10MatrixBaseINS_6MatrixIdLi3ELi3ELi0ELi3ELi3EEEE11eulerAnglesElll@Base 1.1.0
 (optional=templinst)_ZNK5boost11filesystem210basic_pathISsNS0_11path_traitsEE11file_stringEv@Base 1.1.0
 (optional=templinst)_ZNK5boost11filesystem210basic_pathISsNS0_11path_traitsEE11parent_pathEv@Base 1.1.0
 (optional=templinst)_ZNK5boost11filesystem210basic_pathISsNS0_11path_traitsEE14root_directoryEv@Base 1.1.0
 (optional=templinst)_ZNK5boost11filesystem210basic_pathISsNS0_11path_traitsEE20external_file_stringEv@Base 1.1.0
 (optional=templinst)_ZNK5boost11filesystem210basic_pathISsNS0_11path_traitsEE25external_directory_stringEv@Base 1.1.0
 (optional=templinst)_ZNK5boost11filesystem210basic_pathISsNS0_11path_traitsEE5beginEv@Base 1.1.0
 (optional=templinst)_ZNK5boost11filesystem210basic_pathISsNS0_11path_traitsEE8filenameEv@Base 1.1.0
 (optional=templinst)_ZNK5boost11filesystem210basic_pathISsNS0_11path_traitsEE9root_nameEv@Base 1.1.0
 (optional=templinst)_ZNK5boost11filesystem222basic_filesystem_errorINS0_10basic_pathISsNS0_11path_traitsEEEE4whatEv@Base 1.1.0
 _ZNK5boost12bad_any_cast4whatEv@Base 1.1.0
 (optional=templinst)_ZNK5boost12basic_formatIcSt11char_traitsIcESaIcEE3strEv@Base 1.1.0
 (optional=templinst)_ZNK5boost12basic_formatIcSt11char_traitsIcESaIcEE4sizeEv@Base 1.1.0
 (optional=templinst)_ZNK5boost12basic_formatIcSt11char_traitsIcESaIcEE6getlocEv@Base 1.1.0
 (optional=templinst)_ZNK5boost14char_separatorIcSt11char_traitsIcEE10is_droppedEc@Base 1.1.0
 (optional=templinst)_ZNK5boost14char_separatorIcSt11char_traitsIcEE7is_keptEc@Base 1.1.0
 (optional=templinst)_ZNK5boost14dynamic_bitsetImSaImEE18m_check_invariantsEv@Base 1.1.0
 (optional=templinst)_ZNK5boost15optional_detail13optional_baseISt6localeE14is_initializedEv@Base 1.1.0
 (optional=templinst)_ZNK5boost15program_options11typed_valueISt6vectorISsSaISsEEcE10max_tokensEv@Base 1.1.0
 (optional=templinst)_ZNK5boost15program_options11typed_valueISt6vectorISsSaISsEEcE10min_tokensEv@Base 1.1.0
 (optional=templinst)_ZNK5boost15program_options11typed_valueISt6vectorISsSaISsEEcE10value_typeEv@Base 1.1.0
 (optional=templinst)_ZNK5boost15program_options11typed_valueISt6vectorISsSaISsEEcE11is_requiredEv@Base 1.1.0
 (optional=templinst)_ZNK5boost15program_options11typed_valueISt6vectorISsSaISsEEcE12is_composingEv@Base 1.1.0
 (optional=templinst)_ZNK5boost15program_options11typed_valueISt6vectorISsSaISsEEcE13apply_defaultERNS_3anyE@Base 1.1.0
 (optional=templinst)_ZNK5boost15program_options11typed_valueISt6vectorISsSaISsEEcE4nameEv@Base 1.1.0
 (optional=templinst)_ZNK5boost15program_options11typed_valueISt6vectorISsSaISsEEcE6notifyERKNS_3anyE@Base 1.1.0
 (optional=templinst)_ZNK5boost15program_options11typed_valueISt6vectorISsSaISsEEcE6xparseERNS_3anyERKS4_@Base 1.1.0
 (optional=templinst)_ZNK5boost16exception_detail10clone_implINS0_19error_info_injectorINS_11filesystem222basic_filesystem_errorINS3_10basic_pathISsNS3_11path_traitsEEEEEEEE5cloneEv@Base 1.1.0
 (optional=templinst)_ZNK5boost16exception_detail10clone_implINS0_19error_info_injectorINS_11filesystem222basic_filesystem_errorINS3_10basic_pathISsNS3_11path_traitsEEEEEEEE7rethrowEv@Base 1.1.0
 (optional=templinst)_ZNK5boost16exception_detail10clone_implINS0_19error_info_injectorINS_12bad_any_castEEEE5cloneEv@Base 1.1.0
 (optional=templinst)_ZNK5boost16exception_detail10clone_implINS0_19error_info_injectorINS_12bad_any_castEEEE7rethrowEv@Base 1.1.0
 (optional=templinst)_ZNK5boost16exception_detail10clone_implINS0_19error_info_injectorINS_15program_options20invalid_option_valueEEEE5cloneEv@Base 1.1.0
 (optional=templinst)_ZNK5boost16exception_detail10clone_implINS0_19error_info_injectorINS_15program_options20invalid_option_valueEEEE7rethrowEv@Base 1.1.0
 (optional=templinst)_ZNK5boost16exception_detail10clone_implINS0_19error_info_injectorINS_17bad_function_callEEEE5cloneEv@Base 1.1.0
 (optional=templinst)_ZNK5boost16exception_detail10clone_implINS0_19error_info_injectorINS_17bad_function_callEEEE7rethrowEv@Base 1.1.0
 (optional=templinst)_ZNK5boost16exception_detail10clone_implINS0_19error_info_injectorINS_2io12too_few_argsEEEE5cloneEv@Base 1.1.0
 (optional=templinst)_ZNK5boost16exception_detail10clone_implINS0_19error_info_injectorINS_2io12too_few_argsEEEE7rethrowEv@Base 1.1.0
 (optional=templinst)_ZNK5boost16exception_detail10clone_implINS0_19error_info_injectorINS_2io13too_many_argsEEEE5cloneEv@Base 1.1.0
 (optional=templinst)_ZNK5boost16exception_detail10clone_implINS0_19error_info_injectorINS_2io13too_many_argsEEEE7rethrowEv@Base 1.1.0
 (optional=templinst)_ZNK5boost16exception_detail10clone_implINS0_19error_info_injectorINS_2io17bad_format_stringEEEE5cloneEv@Base 1.1.0
 (optional=templinst)_ZNK5boost16exception_detail10clone_implINS0_19error_info_injectorINS_2io17bad_format_stringEEEE7rethrowEv@Base 1.1.0
 (optional=templinst)_ZNK5boost16exception_detail10clone_implINS0_19error_info_injectorINSt8ios_base7failureEEEE5cloneEv@Base 1.1.0
 (optional=templinst)_ZNK5boost16exception_detail10clone_implINS0_19error_info_injectorINSt8ios_base7failureEEEE7rethrowEv@Base 1.1.0
 _ZNK5boost2io12format_error4whatEv@Base 1.1.0
 _ZNK5boost2io12too_few_args4whatEv@Base 1.1.0
 _ZNK5boost2io13too_many_args4whatEv@Base 1.1.0
 _ZNK5boost2io17bad_format_string4whatEv@Base 1.1.0
 (optional=templinst)_ZNK5boost2io6detail19stream_format_stateIcSt11char_traitsIcEE8apply_onERSt9basic_iosIcS4_EPSt6locale@Base 1.1.0
 (optional=templinst)_ZNK5boost3any6holderIN5cnoid7TimeBar10LogicalSumEE4typeEv@Base 1.1.0
 (optional=templinst)_ZNK5boost3any6holderIN5cnoid7TimeBar10LogicalSumEE5cloneEv@Base 1.1.0
 (optional=templinst)_ZNK5boost3any6holderIN5cnoid7TimeBar14LogicalProductEE4typeEv@Base 1.1.0
 (optional=templinst)_ZNK5boost3any6holderIN5cnoid7TimeBar14LogicalProductEE5cloneEv@Base 1.1.0
 (optional=templinst)_ZNK5boost3any6holderINS_10last_valueIvEEE4typeEv@Base 1.1.0
 (optional=templinst)_ZNK5boost3any6holderINS_10last_valueIvEEE5cloneEv@Base 1.1.0
 (optional=templinst)_ZNK5boost3any6holderINS_8functionIFbdEEEE4typeEv@Base 1.1.0
 (optional=templinst)_ZNK5boost3any6holderINS_8functionIFbdEEEE5cloneEv@Base 1.1.0
 (optional=templinst)_ZNK5boost3any6holderINS_8functionIFvP7QActionEEEE4typeEv@Base 1.1.0
 (optional=templinst)_ZNK5boost3any6holderINS_8functionIFvP7QActionEEEE5cloneEv@Base 1.1.0
 (optional=templinst)_ZNK5boost3any6holderINS_8functionIFvPN5cnoid4ItemEEEEE4typeEv@Base 1.1.0
 (optional=templinst)_ZNK5boost3any6holderINS_8functionIFvPN5cnoid4ItemEEEEE5cloneEv@Base 1.1.0
 (optional=templinst)_ZNK5boost3any6holderINS_8functionIFvPN5cnoid4ItemEbEEEE4typeEv@Base 1.1.0
 (optional=templinst)_ZNK5boost3any6holderINS_8functionIFvPN5cnoid4ItemEbEEEE5cloneEv@Base 1.1.0
 (optional=templinst)_ZNK5boost3any6holderINS_8functionIFvRKN5cnoid8ItemListINS3_4ItemEEEEEEE4typeEv@Base 1.1.0
 (optional=templinst)_ZNK5boost3any6holderINS_8functionIFvRKN5cnoid8ItemListINS3_4ItemEEEEEEE5cloneEv@Base 1.1.0
 (optional=templinst)_ZNK5boost3any6holderINS_8functionIFvRNS_15program_options13variables_mapEEEEE4typeEv@Base 1.1.0
 (optional=templinst)_ZNK5boost3any6holderINS_8functionIFvRNS_15program_options13variables_mapEEEEE5cloneEv@Base 1.1.0
 (optional=templinst)_ZNK5boost3any6holderINS_8functionIFvbEEEE4typeEv@Base 1.1.0
 (optional=templinst)_ZNK5boost3any6holderINS_8functionIFvbEEEE5cloneEv@Base 1.1.0
 (optional=templinst)_ZNK5boost3any6holderINS_8functionIFvdEEEE4typeEv@Base 1.1.0
 (optional=templinst)_ZNK5boost3any6holderINS_8functionIFvdEEEE5cloneEv@Base 1.1.0
 (optional=templinst)_ZNK5boost3any6holderINS_8functionIFviEEEE4typeEv@Base 1.1.0
 (optional=templinst)_ZNK5boost3any6holderINS_8functionIFviEEEE5cloneEv@Base 1.1.0
 (optional=templinst)_ZNK5boost3any6holderINS_8functionIFvvEEEE4typeEv@Base 1.1.0
 (optional=templinst)_ZNK5boost3any6holderINS_8functionIFvvEEEE5cloneEv@Base 1.1.0
 (optional=templinst)_ZNK5boost3any6holderISt6vectorISsSaISsEEE4typeEv@Base 1.1.0
 (optional=templinst)_ZNK5boost3any6holderISt6vectorISsSaISsEEE5cloneEv@Base 1.1.0
 (optional=templinst)_ZNK5boost4_mfi3mf1IvN5cnoid15GraphWidgetImplENS_10shared_ptrINS2_16GraphDataHandlerEEEEclEPS3_S6_@Base 1.1.0
 _ZNK5boost6system12system_error4whatEv@Base 1.1.0
 _ZNK5boost6system14error_category10equivalentERKNS0_10error_codeEi@Base 1.1.0
 _ZNK5boost6system14error_category10equivalentEiRKNS0_15error_conditionE@Base 1.1.0
 _ZNK5boost6system14error_category23default_error_conditionEi@Base 1.1.0
 _ZNK5boost7bad_get4whatEv@Base 1.1.0
 (optional=templinst)_ZNK5boost7signals6detail18slot_call_iteratorINS1_11call_bound1IvE6callerIPKcNS_8functionIFvS7_EEEEENS1_23named_slot_map_iteratorEE5equalERKSD_@Base 1.1.0
 (optional=templinst)_ZNK5boost9function3IviiPdEclEiiS1_@Base 1.1.0
 _ZNK5cnoid10FolderItem11doDuplicateEv@Base 1.1.0
 _ZNK5cnoid10PushButton10metaObjectEv@Base 1.1.0
 _ZNK5cnoid10ToolButton10metaObjectEv@Base 1.1.0
 _ZNK5cnoid10TreeWidget10metaObjectEv@Base 1.1.0
 _ZNK5cnoid11ButtonGroup10metaObjectEv@Base 1.1.0
 _ZNK5cnoid11MenuManager10metaObjectEv@Base 1.1.0
 _ZNK5cnoid11RadioButton10metaObjectEv@Base 1.1.0
 _ZNK5cnoid11SceneObject11libraryNameEv@Base 1.1.0
 _ZNK5cnoid11SceneObject9classNameEv@Base 1.1.0
 _ZNK5cnoid11YamlMapping3getERKSsPKc@Base 1.1.0
 (optional=templinst)_ZNK5cnoid11YamlMapping3getISsEET_RKSsRKS2_@Base 1.1.0
 _ZNK5cnoid12ItemTreeView10metaObjectEv@Base 1.1.0
 (optional=templinst)_ZNK5cnoid12MultiSeqItemINS_13MultiValueSeqEE11doDuplicateEv@Base 1.1.0
 (optional=templinst)_ZNK5cnoid12MultiSeqItemINS_15MultiAffine3SeqEE11doDuplicateEv@Base 1.1.0
 _ZNK5cnoid12OsgOutlineFx10effectNameEv@Base 1.1.0
 _ZNK5cnoid12OsgOutlineFx11libraryNameEv@Base 1.1.0
 _ZNK5cnoid12OsgOutlineFx12effectAuthorEv@Base 1.1.0
 _ZNK5cnoid12OsgOutlineFx12isSameKindAsEPKN3osg6ObjectE@Base 1.1.0
 _ZNK5cnoid12OsgOutlineFx17effectDescriptionEv@Base 1.1.0
 _ZNK5cnoid12OsgOutlineFx5cloneERKN3osg6CopyOpE@Base 1.1.0
 _ZNK5cnoid12OsgOutlineFx9classNameEv@Base 1.1.0
 _ZNK5cnoid12OsgOutlineFx9cloneTypeEv@Base 1.1.0
 _ZNK5cnoid13DoubleSpinBox10metaObjectEv@Base 1.1.0
 _ZNK5cnoid14SceneViewEvent15updateIndicatorERKSs@Base 1.1.0
 _ZNK5cnoid14Vector3SeqItem11doDuplicateEv@Base 1.1.0
 _ZNK5cnoid15DoubleScrollBar10metaObjectEv@Base 1.1.0
 _ZNK5cnoid15SceneGLDrawable11libraryNameEv@Base 1.1.0
 _ZNK5cnoid15SceneGLDrawable12computeBoundEv@Base 1.1.0
 _ZNK5cnoid15SceneGLDrawable12isSameKindAsEPKN3osg6ObjectE@Base 1.1.0
 _ZNK5cnoid15SceneGLDrawable18drawImplementationERN3osg10RenderInfoE@Base 1.1.0
 _ZNK5cnoid15SceneGLDrawable5cloneERKN3osg6CopyOpE@Base 1.1.0
 _ZNK5cnoid15SceneGLDrawable6acceptERN3osg16PrimitiveFunctorE@Base 1.1.0
 _ZNK5cnoid15SceneGLDrawable9classNameEv@Base 1.1.0
 _ZNK5cnoid15SceneGLDrawable9cloneTypeEv@Base 1.1.0
 _ZNK5cnoid16ExtensionManager10textDomainEv@Base 1.1.0
 _ZNK5cnoid18ItemSelectionModel10metaObjectEv@Base 1.1.0
 _ZNK5cnoid4Item10customDataEi@Base 1.1.0
 _ZNK5cnoid4Item11doDuplicateEv@Base 1.1.0
 _ZNK5cnoid4Item12duplicateAllEv@Base 1.1.0
 _ZNK5cnoid4Item12findRootItemEv@Base 1.1.0
 _ZNK5cnoid4Item15duplicateAllSubEN5boost13intrusive_ptrIS0_EE@Base 1.1.0
 _ZNK5cnoid4Item8findItemERKSs@Base 1.1.0
 _ZNK5cnoid4Item8headItemEv@Base 1.1.0
 _ZNK5cnoid4Item9duplicateEv@Base 1.1.0
 _ZNK5cnoid4Item9isSubItemEv@Base 1.1.0
 _ZNK5cnoid4Menu10metaObjectEv@Base 1.1.0
 _ZNK5cnoid4View17defaultLayoutAreaEv@Base 1.1.0
 _ZNK5cnoid4View8isActiveEv@Base 1.1.0
 _ZNK5cnoid6Action10metaObjectEv@Base 1.1.0
 _ZNK5cnoid6Dialog10metaObjectEv@Base 1.1.0
 _ZNK5cnoid6Slider10metaObjectEv@Base 1.1.0
 _ZNK5cnoid7Archive14addPostProcessERKN5boost8functionIFvvEEE@Base 1.1.0
 _ZNK5cnoid7Archive17currentParentItemEv@Base 1.1.0
 _ZNK5cnoid7Archive19readRelocatablePathERKSsRSs@Base 1.1.0
 _ZNK5cnoid7Archive8findItemEi@Base 1.1.0
 _ZNK5cnoid7Archive9getItemIdEN5boost13intrusive_ptrINS_4ItemEEE@Base 1.1.0
 _ZNK5cnoid7InfoBar10metaObjectEv@Base 1.1.0
 _ZNK5cnoid7SceneGL14computeGLBoundEv@Base 1.1.0
 _ZNK5cnoid7SceneGL6acceptERN3osg16PrimitiveFunctorE@Base 1.1.0
 _ZNK5cnoid7SpinBox10metaObjectEv@Base 1.1.0
 _ZNK5cnoid7TimeBar15minimumSizeHintEv@Base 1.1.0
 _ZNK5cnoid7TimeBar17playbackFrameRateEv@Base 1.1.0
 _ZNK5cnoid7TimeBar18playbackSpeedScaleEv@Base 1.1.0
 _ZNK5cnoid7TimeBar7maxTimeEv@Base 1.1.0
 _ZNK5cnoid7TimeBar7minTimeEv@Base 1.1.0
 _ZNK5cnoid7TimeBar8sizeHintEv@Base 1.1.0
 _ZNK5cnoid7ToolBar10metaObjectEv@Base 1.1.0
 _ZNK5cnoid8CheckBox10metaObjectEv@Base 1.1.0
 _ZNK5cnoid8ComboBox10metaObjectEv@Base 1.1.0
 _ZNK5cnoid8ComboBox14currentOrgTextEv@Base 1.1.0
 (optional=templinst)_ZNK5cnoid8ItemListINS_4ItemEE8toSingleEb@Base 1.1.0
 _ZNK5cnoid8LineEdit10metaObjectEv@Base 1.1.0
 _ZNK5cnoid8RootItem11doDuplicateEv@Base 1.1.0
 _ZNK5cnoid8TreeView10metaObjectEv@Base 1.1.0
 _ZNK5cnoid8TreeView18itemSelectionModelEv@Base 1.1.0
 _ZNK5cnoid9SceneItem11doDuplicateEv@Base 1.1.0
 _ZNK5cnoid9ScrollBar10metaObjectEv@Base 1.1.0
 _ZNK5osgFX9Technique21getRequiredExtensionsERSt6vectorISsSaISsEE@Base 1.1.0
 _ZNK5osgGA15GUIEventHandler11libraryNameEv@Base 1.1.0
 _ZNK5osgGA15GUIEventHandler12isSameKindAsEPKN3osg6ObjectE@Base 1.1.0
 _ZNK5osgGA15GUIEventHandler5cloneERKN3osg6CopyOpE@Base 1.1.0
 _ZNK5osgGA15GUIEventHandler8getUsageERN3osg16ApplicationUsageE@Base 1.1.0
 _ZNK5osgGA15GUIEventHandler9classNameEv@Base 1.1.0
 _ZNK5osgGA15GUIEventHandler9cloneTypeEv@Base 1.1.0
 _ZNK7QString11toStdStringEv@Base 1.1.0
 _ZNK7osgUtil22LineSegmentIntersector12Intersection22getWorldIntersectPointEv@Base 1.1.0
 _ZNK7osgUtil22LineSegmentIntersector12Intersection23getWorldIntersectNormalEv@Base 1.1.0
 _ZNK9osgViewer14GraphicsWindow19getWindowDecorationEv@Base 1.1.0
 _ZNK9osgViewer22GraphicsWindowEmbedded11libraryNameEv@Base 1.1.0
 _ZNK9osgViewer22GraphicsWindowEmbedded12isSameKindAsEPKN3osg6ObjectE@Base 1.1.0
 _ZNK9osgViewer22GraphicsWindowEmbedded24isRealizedImplementationEv@Base 1.1.0
 _ZNK9osgViewer22GraphicsWindowEmbedded5validEv@Base 1.1.0
 _ZNK9osgViewer22GraphicsWindowEmbedded9classNameEv@Base 1.1.0
 _ZNK9osgViewer4View11libraryNameEv@Base 1.1.0
 _ZNK9osgViewer4View12isSameKindAsEPKN3osg6ObjectE@Base 1.1.0
 _ZNK9osgViewer4View5cloneERKN3osg6CopyOpE@Base 1.1.0
 _ZNK9osgViewer4View9classNameEv@Base 1.1.0
 _ZNK9osgViewer4View9cloneTypeEv@Base 1.1.0
 _ZNK9osgViewer6Viewer11libraryNameEv@Base 1.1.0
 _ZNK9osgViewer6Viewer12isSameKindAsEPKN3osg6ObjectE@Base 1.1.0
 _ZNK9osgViewer6Viewer14getViewerStatsEv@Base 1.1.0
 _ZNK9osgViewer6Viewer5cloneERKN3osg6CopyOpE@Base 1.1.0
 _ZNK9osgViewer6Viewer9classNameEv@Base 1.1.0
 _ZNK9osgViewer6Viewer9cloneTypeEv@Base 1.1.0
 (optional=templinst)_ZNKSt5ctypeIcE5widenEc@Base 1.1.0
 (optional=templinst)_ZNKSt6vectorIN3osg5Vec3fESaIS1_EE12_M_check_lenEmPKc@Base 1.1.0
 (optional=templinst)_ZNKSt6vectorIN5boost10shared_ptrIN5cnoid15ItemManagerImpl5SaverEEESaIS5_EE12_M_check_lenEmPKc@Base 1.1.0
 (optional=templinst)_ZNKSt6vectorIN5boost10shared_ptrIN5cnoid16GraphDataHandlerEEESaIS4_EE12_M_check_lenEmPKc@Base 1.1.0
 (optional=templinst)_ZNKSt6vectorIN5boost10shared_ptrIN5cnoid17PluginManagerImpl10PluginInfoEEESaIS5_EE12_M_check_lenEmPKc@Base 1.1.0
 (optional=templinst)_ZNKSt6vectorIN5boost13intrusive_ptrIN5cnoid8YamlNodeEEESaIS4_EE12_M_check_lenEmPKc@Base 1.1.0
 (optional=templinst)_ZNKSt6vectorIN5boost2io6detail11format_itemIcSt11char_traitsIcESaIcEEESaIS7_EE12_M_check_lenEmPKc@Base 1.1.0
 (optional=templinst)_ZNKSt6vectorIPKN5boost7signals9trackableESaIS4_EE12_M_check_lenEmPKc@Base 1.1.0
 (optional=templinst)_ZNKSt6vectorIPN3osg4NodeESaIS2_EE12_M_check_lenEmPKc@Base 1.1.0
 (optional=templinst)_ZNKSt6vectorIPN5cnoid17ItemCreationPanelESaIS2_EE12_M_check_lenEmPKc@Base 1.1.0
 (optional=templinst)_ZNKSt6vectorISsSaISsEE12_M_check_lenEmPKc@Base 1.1.0
 (optional=templinst)_ZNKSt6vectorIbSaIbEE12_M_check_lenEmPKc@Base 1.1.0
 (optional=templinst)_ZNKSt6vectorIdSaIdEE12_M_check_lenEmPKc@Base 1.1.0
 (optional=templinst)_ZNKSt6vectorImSaImEE12_M_check_lenEmPKc@Base 1.1.0
 (optional=templinst)_ZNKSt8_Rb_treeISsSt4pairIKSsN5boost15program_options14variable_valueEESt10_Select1stIS5_ESt4lessISsESaIS5_EE4findERS1_@Base 1.1.0
 (optional=templinst)_ZNSs12_S_constructIN9__gnu_cxx17__normal_iteratorIPKcSsEEEEPcT_S6_RKSaIcESt20forward_iterator_tag@Base 1.1.0
 (optional=templinst)_ZNSs6assignIN9__gnu_cxx17__normal_iteratorIPKcSsEEEERSsT_S6_@Base 1.1.0
 (optional=templinst)_ZNSt10_List_baseIN5boost10shared_ptrIN5cnoid11ItemManager23CreationPanelFilterBaseEEESaIS5_EE8_M_clearEv@Base 1.1.0
 (optional=templinst)_ZNSt10_List_baseIN5boost10shared_ptrIN5cnoid15ItemManagerImpl5SaverEEESaIS5_EE8_M_clearEv@Base 1.1.0
 (optional=templinst)_ZNSt10_List_baseIN5boost10shared_ptrIN5cnoid15ItemManagerImpl6LoaderEEESaIS5_EE8_M_clearEv@Base 1.1.0
 (optional=templinst)_ZNSt11_Deque_baseIN5boost13intrusive_ptrIN5cnoid4ItemEEESaIS4_EE17_M_initialize_mapEm@Base 1.1.0
 (optional=templinst)_ZNSt11_Deque_baseIN5boost13intrusive_ptrIN5cnoid4ItemEEESaIS4_EED1Ev@Base 1.1.0
 (optional=templinst)_ZNSt11_Deque_baseIN5boost13intrusive_ptrIN5cnoid4ItemEEESaIS4_EED2Ev@Base 1.1.0
 (optional=templinst)_ZNSt11_Deque_baseIPN5cnoid16ExtensionManager13PtrHolderBaseESaIS3_EE17_M_initialize_mapEm@Base 1.1.0
 (optional=templinst)_ZNSt11_Deque_baseIPN5cnoid16ExtensionManager13PtrHolderBaseESaIS3_EED1Ev@Base 1.1.0
 (optional=templinst)_ZNSt11_Deque_baseIPN5cnoid16ExtensionManager13PtrHolderBaseESaIS3_EED2Ev@Base 1.1.0
 (optional=templinst)_ZNSt11__copy_moveILb0ELb0ESt26random_access_iterator_tagE8__copy_mIPKSsPSsEET0_T_S7_S6_@Base 1.1.0
 (optional=templinst)_ZNSt11__copy_moveILb0ELb0ESt26random_access_iterator_tagE8__copy_mIPSsS3_EET0_T_S5_S4_@Base 1.1.0
 (optional=templinst)_ZNSt11__copy_moveILb0ELb1ESt26random_access_iterator_tagE8__copy_mIPKN5boost7signals9trackableEEEPT_PKS8_SB_S9_@Base 1.1.0
 (optional=templinst)_ZNSt11__copy_moveILb0ELb1ESt26random_access_iterator_tagE8__copy_mIPN3osg4NodeEEEPT_PKS6_S9_S7_@Base 1.1.0
 (optional=templinst)_ZNSt11__copy_moveILb0ELb1ESt26random_access_iterator_tagE8__copy_mIPN5boost13intrusive_ptrIN5cnoid4ItemEEEEEPT_PKS9_SC_SA_@Base 1.1.0
 (optional=templinst)_ZNSt11__copy_moveILb0ELb1ESt26random_access_iterator_tagE8__copy_mIPN5cnoid17ItemCreationPanelEEEPT_PKS6_S9_S7_@Base 1.1.0
 (optional=templinst)_ZNSt11__copy_moveILb0ELb1ESt26random_access_iterator_tagE8__copy_mIdEEPT_PKS3_S6_S4_@Base 1.1.0
 (optional=templinst)_ZNSt12_Destroy_auxILb0EE9__destroyIN9__gnu_cxx17__normal_iteratorIPSsSt6vectorISsSaISsEEEEEEvT_S9_@Base 1.1.0
 (optional=templinst)_ZNSt12_Destroy_auxILb0EE9__destroyIPN3osg7ref_ptrIN5osgFX9TechniqueEEEEEvT_S8_@Base 1.1.0
 (optional=templinst)_ZNSt12_Destroy_auxILb0EE9__destroyIPN5boost10shared_ptrIN5cnoid15ItemManagerImpl5SaverEEEEEvT_S9_@Base 1.1.0
 (optional=templinst)_ZNSt12_Destroy_auxILb0EE9__destroyIPN5boost10shared_ptrIN5cnoid16GraphDataHandlerEEEEEvT_S8_@Base 1.1.0
 (optional=templinst)_ZNSt12_Destroy_auxILb0EE9__destroyIPN5boost10shared_ptrIN5cnoid17PluginManagerImpl10PluginInfoEEEEEvT_S9_@Base 1.1.0
 (optional=templinst)_ZNSt12_Destroy_auxILb0EE9__destroyIPN5boost13intrusive_ptrIN5cnoid4ItemEEEEEvT_S8_@Base 1.1.0
 (optional=templinst)_ZNSt12_Destroy_auxILb0EE9__destroyIPN5boost13intrusive_ptrIN5cnoid8YamlNodeEEEEEvT_S8_@Base 1.1.0
 (optional=templinst)_ZNSt12_Destroy_auxILb0EE9__destroyIPN5boost15program_options12basic_optionIcEEEEvT_S7_@Base 1.1.0
 (optional=templinst)_ZNSt12_Destroy_auxILb0EE9__destroyIPN5boost2io6detail11format_itemIcSt11char_traitsIcESaIcEEEEEvT_SB_@Base 1.1.0
 (optional=templinst)_ZNSt12_Destroy_auxILb0EE9__destroyIPN5boost8functionIFNS2_13intrusive_ptrIN5cnoid18TimeSyncItemEngineEEEPNS5_4ItemEEEEEEvT_SD_@Base 1.1.0
 (optional=templinst)_ZNSt12_Destroy_auxILb0EE9__destroyIPSsEEvT_S3_@Base 1.1.0
 (optional=templinst)_ZNSt12_Vector_baseIN3osg7ref_ptrINS0_8StateSetEEESaIS3_EED1Ev@Base 1.1.0
 (optional=templinst)_ZNSt12_Vector_baseIN3osg7ref_ptrINS0_8StateSetEEESaIS3_EED2Ev@Base 1.1.0
 (optional=templinst)_ZNSt12_Vector_baseIN5boost10shared_ptrIN5cnoid15ItemManagerImpl5SaverEEESaIS5_EED1Ev@Base 1.1.0
 (optional=templinst)_ZNSt12_Vector_baseIN5boost10shared_ptrIN5cnoid15ItemManagerImpl5SaverEEESaIS5_EED2Ev@Base 1.1.0
 (optional=templinst)_ZNSt12_Vector_baseIN5boost10shared_ptrIN5cnoid17PluginManagerImpl10PluginInfoEEESaIS5_EED1Ev@Base 1.1.0
 (optional=templinst)_ZNSt12_Vector_baseIN5boost10shared_ptrIN5cnoid17PluginManagerImpl10PluginInfoEEESaIS5_EED2Ev@Base 1.1.0
 (optional=templinst)_ZNSt12_Vector_baseIN5boost2io6detail11format_itemIcSt11char_traitsIcESaIcEEESaIS7_EED1Ev@Base 1.1.0
 (optional=templinst)_ZNSt12_Vector_baseIN5boost2io6detail11format_itemIcSt11char_traitsIcESaIcEEESaIS7_EED2Ev@Base 1.1.0
 (optional=templinst)_ZNSt12_Vector_baseIN5boost8functionIFNS0_13intrusive_ptrIN5cnoid18TimeSyncItemEngineEEEPNS3_4ItemEEEESaIS9_EED1Ev@Base 1.1.0
 (optional=templinst)_ZNSt12_Vector_baseIN5boost8functionIFNS0_13intrusive_ptrIN5cnoid18TimeSyncItemEngineEEEPNS3_4ItemEEEESaIS9_EED2Ev@Base 1.1.0
 (optional=templinst)_ZNSt12_Vector_baseIPN5cnoid17ItemCreationPanelESaIS2_EED1Ev@Base 1.1.0
 (optional=templinst)_ZNSt12_Vector_baseIPN5cnoid17ItemCreationPanelESaIS2_EED2Ev@Base 1.1.0
 (optional=templinst)_ZNSt12_Vector_baseISsSaISsEED1Ev@Base 1.1.0
 (optional=templinst)_ZNSt12_Vector_baseISsSaISsEED2Ev@Base 1.1.0
 (optional=templinst)_ZNSt15_Deque_iteratorIN5boost13intrusive_ptrIN5cnoid4ItemEEERS4_PS4_EpLEl@Base 1.1.0
 (optional=templinst)_ZNSt20__copy_move_backwardILb0ELb0ESt26random_access_iterator_tagE13__copy_move_bIPN5boost10shared_ptrIN5cnoid15ItemManagerImpl5SaverEEES9_EET0_T_SB_SA_@Base 1.1.0
 (optional=templinst)_ZNSt20__copy_move_backwardILb0ELb0ESt26random_access_iterator_tagE13__copy_move_bIPN5boost10shared_ptrIN5cnoid16GraphDataHandlerEEES8_EET0_T_SA_S9_@Base 1.1.0
 (optional=templinst)_ZNSt20__copy_move_backwardILb0ELb0ESt26random_access_iterator_tagE13__copy_move_bIPN5boost10shared_ptrIN5cnoid17PluginManagerImpl10PluginInfoEEES9_EET0_T_SB_SA_@Base 1.1.0
 (optional=templinst)_ZNSt20__copy_move_backwardILb0ELb0ESt26random_access_iterator_tagE13__copy_move_bIPN5boost2io6detail11format_itemIcSt11char_traitsIcESaIcEEESB_EET0_T_SD_SC_@Base 1.1.0
 (optional=templinst)_ZNSt20__copy_move_backwardILb0ELb0ESt26random_access_iterator_tagE13__copy_move_bIPSsS3_EET0_T_S5_S4_@Base 1.1.0
 (optional=templinst)_ZNSt20__copy_move_backwardILb0ELb1ESt26random_access_iterator_tagE13__copy_move_bIPN5boost13intrusive_ptrIN5cnoid4ItemEEEEEPT_PKS9_SC_SA_@Base 1.1.0
 (optional=templinst)_ZNSt20__uninitialized_copyILb0EE13__uninit_copyIN9__gnu_cxx17__normal_iteratorIPKSsSt6vectorISsSaISsEEEEPSsEET0_T_SC_SB_@Base 1.1.0
 (optional=templinst)_ZNSt20__uninitialized_copyILb0EE13__uninit_copyIPN3osg7ref_ptrIN5osgFX9TechniqueEEES7_EET0_T_S9_S8_@Base 1.1.0
 (optional=templinst)_ZNSt20__uninitialized_copyILb0EE13__uninit_copyIPN5boost2io6detail11format_itemIcSt11char_traitsIcESaIcEEESA_EET0_T_SC_SB_@Base 1.1.0
 (optional=templinst)_ZNSt20__uninitialized_copyILb0EE13__uninit_copyIPSsS2_EET0_T_S4_S3_@Base 1.1.0
 (optional=templinst)_ZNSt22__uninitialized_fill_nILb0EE15__uninit_fill_nIPN5boost2io6detail11format_itemIcSt11char_traitsIcESaIcEEEmS9_EEvT_T0_RKT1_@Base 1.1.0
 (optional=templinst)_ZNSt3mapISsN5boost10shared_ptrIN5cnoid15ItemManagerImpl6LoaderEEESt4lessISsESaISt4pairIKSsS5_EEED1Ev@Base 1.1.0
 (optional=templinst)_ZNSt3mapISsN5boost10shared_ptrIN5cnoid15ItemManagerImpl6LoaderEEESt4lessISsESaISt4pairIKSsS5_EEED2Ev@Base 1.1.0
 (optional=templinst)_ZNSt3mapISsN5boost10shared_ptrIN5cnoid15ItemManagerImpl9ClassInfoEEESt4lessISsESaISt4pairIKSsS5_EEED1Ev@Base 1.1.0
 (optional=templinst)_ZNSt3mapISsN5boost10shared_ptrIN5cnoid15ItemManagerImpl9ClassInfoEEESt4lessISsESaISt4pairIKSsS5_EEED2Ev@Base 1.1.0
 (optional=templinst)_ZNSt3mapISsN5boost10shared_ptrIN5cnoid15ItemManagerImpl9ClassInfoEEESt4lessISsESaISt4pairIKSsS5_EEEixERS9_@Base 1.1.0
 (optional=templinst)_ZNSt3mapISsN5boost10shared_ptrIN5cnoid17PluginManagerImpl10PluginInfoEEESt4lessISsESaISt4pairIKSsS5_EEED1Ev@Base 1.1.0
 (optional=templinst)_ZNSt3mapISsN5boost10shared_ptrIN5cnoid17PluginManagerImpl10PluginInfoEEESt4lessISsESaISt4pairIKSsS5_EEED2Ev@Base 1.1.0
 (optional=templinst)_ZNSt3mapISsN5boost10shared_ptrIN5cnoid17PluginManagerImpl10PluginInfoEEESt4lessISsESaISt4pairIKSsS5_EEEixERS9_@Base 1.1.0
 (optional=templinst)_ZNSt3mapISsN5cnoid18ProjectManagerImpl12ArchiverInfoESt4lessISsESaISt4pairIKSsS2_EEED1Ev@Base 1.1.0
 (optional=templinst)_ZNSt3mapISsN5cnoid18ProjectManagerImpl12ArchiverInfoESt4lessISsESaISt4pairIKSsS2_EEED2Ev@Base 1.1.0
 (optional=templinst)_ZNSt3mapISsN5cnoid18ProjectManagerImpl12ArchiverInfoESt4lessISsESaISt4pairIKSsS2_EEEixERS6_@Base 1.1.0
 (optional=templinst)_ZNSt3mapISsPN5cnoid15ItemManagerImpl17CreationPanelBaseESt4lessISsESaISt4pairIKSsS3_EEED1Ev@Base 1.1.0
 (optional=templinst)_ZNSt3mapISsPN5cnoid15ItemManagerImpl17CreationPanelBaseESt4lessISsESaISt4pairIKSsS3_EEED2Ev@Base 1.1.0
 (optional=templinst)_ZNSt3mapISsS_ISsN5boost10shared_ptrIN5cnoid15ItemManagerImpl9ClassInfoEEESt4lessISsESaISt4pairIKSsS5_EEES7_SaIS8_IS9_SC_EEED1Ev@Base 1.1.0
 (optional=templinst)_ZNSt3mapISsS_ISsN5boost10shared_ptrIN5cnoid15ItemManagerImpl9ClassInfoEEESt4lessISsESaISt4pairIKSsS5_EEES7_SaIS8_IS9_SC_EEED2Ev@Base 1.1.0
 (optional=templinst)_ZNSt3mapISsS_ISsN5boost10shared_ptrIN5cnoid15ItemManagerImpl9ClassInfoEEESt4lessISsESaISt4pairIKSsS5_EEES7_SaIS8_IS9_SC_EEEixERS9_@Base 1.1.0
 (optional=templinst)_ZNSt3mapISsS_ISsN5cnoid18ProjectManagerImpl12ArchiverInfoESt4lessISsESaISt4pairIKSsS2_EEES4_SaIS5_IS6_S9_EEED1Ev@Base 1.1.0
 (optional=templinst)_ZNSt3mapISsS_ISsN5cnoid18ProjectManagerImpl12ArchiverInfoESt4lessISsESaISt4pairIKSsS2_EEES4_SaIS5_IS6_S9_EEED2Ev@Base 1.1.0
 (optional=templinst)_ZNSt3mapISsS_ISsN5cnoid18ProjectManagerImpl12ArchiverInfoESt4lessISsESaISt4pairIKSsS2_EEES4_SaIS5_IS6_S9_EEEixERS6_@Base 1.1.0
 (optional=templinst)_ZNSt3mapISsSt4listIN5boost10shared_ptrIN5cnoid15ItemManagerImpl5SaverEEESaIS6_EESt4lessISsESaISt4pairIKSsS8_EEED1Ev@Base 1.1.0
 (optional=templinst)_ZNSt3mapISsSt4listIN5boost10shared_ptrIN5cnoid15ItemManagerImpl5SaverEEESaIS6_EESt4lessISsESaISt4pairIKSsS8_EEED2Ev@Base 1.1.0
 (optional=templinst)_ZNSt3mapISsSt4listIN5boost10shared_ptrIN5cnoid15ItemManagerImpl5SaverEEESaIS6_EESt4lessISsESaISt4pairIKSsS8_EEEixERSC_@Base 1.1.0
 (optional=templinst)_ZNSt3mapISsSt4listIN5boost10shared_ptrIN5cnoid15ItemManagerImpl6LoaderEEESaIS6_EESt4lessISsESaISt4pairIKSsS8_EEED1Ev@Base 1.1.0
 (optional=templinst)_ZNSt3mapISsSt4listIN5boost10shared_ptrIN5cnoid15ItemManagerImpl6LoaderEEESaIS6_EESt4lessISsESaISt4pairIKSsS8_EEED2Ev@Base 1.1.0
 (optional=templinst)_ZNSt3mapISsSt4listIN5boost10shared_ptrIN5cnoid15ItemManagerImpl6LoaderEEESaIS6_EESt4lessISsESaISt4pairIKSsS8_EEEixERSC_@Base 1.1.0
 (optional=templinst)_ZNSt3mapISsSt6vectorIN5boost8functionIFNS1_13intrusive_ptrIN5cnoid18TimeSyncItemEngineEEEPNS4_4ItemEEEESaISA_EESt4lessISsESaISt4pairIKSsSC_EEED1Ev@Base 1.1.0
 (optional=templinst)_ZNSt3mapISsSt6vectorIN5boost8functionIFNS1_13intrusive_ptrIN5cnoid18TimeSyncItemEngineEEEPNS4_4ItemEEEESaISA_EESt4lessISsESaISt4pairIKSsSC_EEED2Ev@Base 1.1.0
 (optional=templinst)_ZNSt3setIN5boost10shared_ptrIN5cnoid15ItemManagerImpl5SaverEEESt4lessIS5_ESaIS5_EED1Ev@Base 1.1.0
 (optional=templinst)_ZNSt3setIN5boost10shared_ptrIN5cnoid15ItemManagerImpl5SaverEEESt4lessIS5_ESaIS5_EED2Ev@Base 1.1.0
 (optional=templinst)_ZNSt3setIN5boost10shared_ptrIN5cnoid15ItemManagerImpl6LoaderEEESt4lessIS5_ESaIS5_EED1Ev@Base 1.1.0
 (optional=templinst)_ZNSt3setIN5boost10shared_ptrIN5cnoid15ItemManagerImpl6LoaderEEESt4lessIS5_ESaIS5_EED2Ev@Base 1.1.0
 (optional=templinst)_ZNSt3setIN5boost13intrusive_ptrIN5cnoid9SceneItemEEESt4lessIS4_ESaIS4_EE5eraseESt23_Rb_tree_const_iteratorIS4_E@Base 1.1.0
 (optional=templinst)_ZNSt3setIN5boost13intrusive_ptrIN5cnoid9SceneItemEEESt4lessIS4_ESaIS4_EE6insertERKS4_@Base 1.1.0
 (optional=templinst)_ZNSt3setIPN5cnoid17ItemCreationPanelESt4lessIS2_ESaIS2_EED1Ev@Base 1.1.0
 (optional=templinst)_ZNSt3setIPN5cnoid17ItemCreationPanelESt4lessIS2_ESaIS2_EED2Ev@Base 1.1.0
 (optional=templinst)_ZNSt3setIPN5cnoid20ExtensionManagerImplESt4lessIS2_ESaIS2_EED1Ev@Base 1.1.0
 (optional=templinst)_ZNSt3setIPN5cnoid20ExtensionManagerImplESt4lessIS2_ESaIS2_EED2Ev@Base 1.1.0
 (optional=templinst)_ZNSt3setISsSt4lessISsESaISsEED1Ev@Base 1.1.0
 (optional=templinst)_ZNSt3setISsSt4lessISsESaISsEED2Ev@Base 1.1.0
 (optional=templinst)_ZNSt3setISt4pairISsN5boost10shared_ptrIN5cnoid11ItemManager23CreationPanelFilterBaseEEEESt4lessIS7_ESaIS7_EED1Ev@Base 1.1.0
 (optional=templinst)_ZNSt3setISt4pairISsN5boost10shared_ptrIN5cnoid11ItemManager23CreationPanelFilterBaseEEEESt4lessIS7_ESaIS7_EED2Ev@Base 1.1.0
 (optional=templinst)_ZNSt4listIN5boost10shared_ptrIN5cnoid11ItemManager23CreationPanelFilterBaseEEESaIS5_EE6removeERKS5_@Base 1.1.0
 (optional=templinst)_ZNSt4listIN5boost10shared_ptrIN5cnoid15ItemManagerImpl5SaverEEESaIS5_EE9push_backERKS5_@Base 1.1.0
 (optional=templinst)_ZNSt4listIN5boost10shared_ptrIN5cnoid15ItemManagerImpl6LoaderEEESaIS5_EE9push_backERKS5_@Base 1.1.0
 (optional=templinst)_ZNSt4pairIKSsN3osg7ref_ptrIKN5osgFX6EffectEEEED1Ev@Base 1.1.0
 (optional=templinst)_ZNSt4pairIKSsN3osg7ref_ptrIKN5osgFX6EffectEEEED2Ev@Base 1.1.0
 (optional=templinst)_ZNSt4pairIKSsN5boost10shared_ptrIN5cnoid15ItemManagerImpl6LoaderEEEED1Ev@Base 1.1.0
 (optional=templinst)_ZNSt4pairIKSsN5boost10shared_ptrIN5cnoid15ItemManagerImpl6LoaderEEEED2Ev@Base 1.1.0
 (optional=templinst)_ZNSt4pairIKSsN5boost10shared_ptrIN5cnoid15ItemManagerImpl9ClassInfoEEEEC1ERS0_RKS6_@Base 1.1.0
 (optional=templinst)_ZNSt4pairIKSsN5boost10shared_ptrIN5cnoid15ItemManagerImpl9ClassInfoEEEEC2ERS0_RKS6_@Base 1.1.0
 (optional=templinst)_ZNSt4pairIKSsN5boost10shared_ptrIN5cnoid15ItemManagerImpl9ClassInfoEEEED1Ev@Base 1.1.0
 (optional=templinst)_ZNSt4pairIKSsN5boost10shared_ptrIN5cnoid15ItemManagerImpl9ClassInfoEEEED2Ev@Base 1.1.0
 (optional=templinst)_ZNSt4pairIKSsN5boost10shared_ptrIN5cnoid17PluginManagerImpl10PluginInfoEEEED1Ev@Base 1.1.0
 (optional=templinst)_ZNSt4pairIKSsN5boost10shared_ptrIN5cnoid17PluginManagerImpl10PluginInfoEEEED2Ev@Base 1.1.0
 (optional=templinst)_ZNSt4pairIKSsN5cnoid18ProjectManagerImpl12ArchiverInfoEEC1ERS0_RKS3_@Base 1.1.0
 (optional=templinst)_ZNSt4pairIKSsN5cnoid18ProjectManagerImpl12ArchiverInfoEEC2ERS0_RKS3_@Base 1.1.0
 (optional=templinst)_ZNSt4pairIKSsN5cnoid18ProjectManagerImpl12ArchiverInfoEED1Ev@Base 1.1.0
 (optional=templinst)_ZNSt4pairIKSsN5cnoid18ProjectManagerImpl12ArchiverInfoEED2Ev@Base 1.1.0
 (optional=templinst)_ZNSt4pairIKSsSsEC1IPKcSsEERKS_IT_T0_E@Base 1.1.0
 (optional=templinst)_ZNSt4pairIKSsSsEC2IPKcSsEERKS_IT_T0_E@Base 1.1.0
 (optional=templinst)_ZNSt4pairIKSsSsED1Ev@Base 1.1.0
 (optional=templinst)_ZNSt4pairIKSsSsED2Ev@Base 1.1.0
 (optional=templinst)_ZNSt4pairIKSsSt3mapISsN5boost10shared_ptrIN5cnoid15ItemManagerImpl9ClassInfoEEESt4lessISsESaIS_IS0_S7_EEEEC1ERKSD_@Base 1.1.0
 (optional=templinst)_ZNSt4pairIKSsSt3mapISsN5boost10shared_ptrIN5cnoid15ItemManagerImpl9ClassInfoEEESt4lessISsESaIS_IS0_S7_EEEEC1ERS0_RKSC_@Base 1.1.0
 (optional=templinst)_ZNSt4pairIKSsSt3mapISsN5boost10shared_ptrIN5cnoid15ItemManagerImpl9ClassInfoEEESt4lessISsESaIS_IS0_S7_EEEEC2ERKSD_@Base 1.1.0
 (optional=templinst)_ZNSt4pairIKSsSt3mapISsN5boost10shared_ptrIN5cnoid15ItemManagerImpl9ClassInfoEEESt4lessISsESaIS_IS0_S7_EEEEC2ERS0_RKSC_@Base 1.1.0
 (optional=templinst)_ZNSt4pairIKSsSt3mapISsN5boost10shared_ptrIN5cnoid15ItemManagerImpl9ClassInfoEEESt4lessISsESaIS_IS0_S7_EEEED1Ev@Base 1.1.0
 (optional=templinst)_ZNSt4pairIKSsSt3mapISsN5boost10shared_ptrIN5cnoid15ItemManagerImpl9ClassInfoEEESt4lessISsESaIS_IS0_S7_EEEED2Ev@Base 1.1.0
 (optional=templinst)_ZNSt4pairIKSsSt3mapISsN5cnoid18ProjectManagerImpl12ArchiverInfoESt4lessISsESaIS_IS0_S4_EEEEC1ERS0_RKS9_@Base 1.1.0
 (optional=templinst)_ZNSt4pairIKSsSt3mapISsN5cnoid18ProjectManagerImpl12ArchiverInfoESt4lessISsESaIS_IS0_S4_EEEEC2ERS0_RKS9_@Base 1.1.0
 (optional=templinst)_ZNSt4pairIKSsSt3mapISsN5cnoid18ProjectManagerImpl12ArchiverInfoESt4lessISsESaIS_IS0_S4_EEEED1Ev@Base 1.1.0
 (optional=templinst)_ZNSt4pairIKSsSt3mapISsN5cnoid18ProjectManagerImpl12ArchiverInfoESt4lessISsESaIS_IS0_S4_EEEED2Ev@Base 1.1.0
 (optional=templinst)_ZNSt4pairIKSsSt4listIN5boost10shared_ptrIN5cnoid15ItemManagerImpl5SaverEEESaIS7_EEEC1ERKSA_@Base 1.1.0
 (optional=templinst)_ZNSt4pairIKSsSt4listIN5boost10shared_ptrIN5cnoid15ItemManagerImpl5SaverEEESaIS7_EEEC1ERS0_RKS9_@Base 1.1.0
 (optional=templinst)_ZNSt4pairIKSsSt4listIN5boost10shared_ptrIN5cnoid15ItemManagerImpl5SaverEEESaIS7_EEEC2ERKSA_@Base 1.1.0
 (optional=templinst)_ZNSt4pairIKSsSt4listIN5boost10shared_ptrIN5cnoid15ItemManagerImpl5SaverEEESaIS7_EEEC2ERS0_RKS9_@Base 1.1.0
 (optional=templinst)_ZNSt4pairIKSsSt4listIN5boost10shared_ptrIN5cnoid15ItemManagerImpl5SaverEEESaIS7_EEED1Ev@Base 1.1.0
 (optional=templinst)_ZNSt4pairIKSsSt4listIN5boost10shared_ptrIN5cnoid15ItemManagerImpl5SaverEEESaIS7_EEED2Ev@Base 1.1.0
 (optional=templinst)_ZNSt4pairIKSsSt4listIN5boost10shared_ptrIN5cnoid15ItemManagerImpl6LoaderEEESaIS7_EEEC1ERKSA_@Base 1.1.0
 (optional=templinst)_ZNSt4pairIKSsSt4listIN5boost10shared_ptrIN5cnoid15ItemManagerImpl6LoaderEEESaIS7_EEEC1ERS0_RKS9_@Base 1.1.0
 (optional=templinst)_ZNSt4pairIKSsSt4listIN5boost10shared_ptrIN5cnoid15ItemManagerImpl6LoaderEEESaIS7_EEEC2ERKSA_@Base 1.1.0
 (optional=templinst)_ZNSt4pairIKSsSt4listIN5boost10shared_ptrIN5cnoid15ItemManagerImpl6LoaderEEESaIS7_EEEC2ERS0_RKS9_@Base 1.1.0
 (optional=templinst)_ZNSt4pairIKSsSt4listIN5boost10shared_ptrIN5cnoid15ItemManagerImpl6LoaderEEESaIS7_EEED1Ev@Base 1.1.0
 (optional=templinst)_ZNSt4pairIKSsSt4listIN5boost10shared_ptrIN5cnoid15ItemManagerImpl6LoaderEEESaIS7_EEED2Ev@Base 1.1.0
 (optional=templinst)_ZNSt4pairISsN5boost10shared_ptrIN5cnoid11ItemManager23CreationPanelFilterBaseEEEED1Ev@Base 1.1.0
 (optional=templinst)_ZNSt4pairISsN5boost10shared_ptrIN5cnoid11ItemManager23CreationPanelFilterBaseEEEED2Ev@Base 1.1.0
 (optional=templinst)_ZNSt4pairISsN5boost10shared_ptrIN5cnoid17PluginManagerImpl10PluginInfoEEEED1Ev@Base 1.1.0
 (optional=templinst)_ZNSt4pairISsN5boost10shared_ptrIN5cnoid17PluginManagerImpl10PluginInfoEEEED2Ev@Base 1.1.0
 (optional=templinst)_ZNSt5dequeIN5boost13intrusive_ptrIN5cnoid4ItemEEESaIS4_EE15_M_erase_at_endESt15_Deque_iteratorIS4_RS4_PS4_E@Base 1.1.0
 (optional=templinst)_ZNSt5dequeIN5boost13intrusive_ptrIN5cnoid4ItemEEESaIS4_EE16_M_pop_front_auxEv@Base 1.1.0
 (optional=templinst)_ZNSt5dequeIN5boost13intrusive_ptrIN5cnoid4ItemEEESaIS4_EE16_M_push_back_auxERKS4_@Base 1.1.0
 (optional=templinst)_ZNSt5dequeIN5boost13intrusive_ptrIN5cnoid4ItemEEESaIS4_EE17_M_reallocate_mapEmb@Base 1.1.0
 (optional=templinst)_ZNSt5dequeIN5boost13intrusive_ptrIN5cnoid4ItemEEESaIS4_EE19_M_destroy_data_auxESt15_Deque_iteratorIS4_RS4_PS4_ESA_@Base 1.1.0
 (optional=templinst)_ZNSt5dequeIN5boost13intrusive_ptrIN5cnoid4ItemEEESaIS4_EE9push_backERKS4_@Base 1.1.0
 (optional=templinst)_ZNSt5dequeIN5boost13intrusive_ptrIN5cnoid4ItemEEESaIS4_EEC1ERKS6_@Base 1.1.0
 (optional=templinst)_ZNSt5dequeIN5boost13intrusive_ptrIN5cnoid4ItemEEESaIS4_EEC2ERKS6_@Base 1.1.0
 (optional=templinst)_ZNSt5dequeIN5boost13intrusive_ptrIN5cnoid4ItemEEESaIS4_EED1Ev@Base 1.1.0
 (optional=templinst)_ZNSt5dequeIN5boost13intrusive_ptrIN5cnoid4ItemEEESaIS4_EED2Ev@Base 1.1.0
 (optional=templinst)_ZNSt6vectorIN3osg5Vec3fESaIS1_EE13_M_insert_auxEN9__gnu_cxx17__normal_iteratorIPS1_S3_EERKS1_@Base 1.1.0
 (optional=templinst)_ZNSt6vectorIN3osg5Vec4fESaIS1_EE13_M_insert_auxEN9__gnu_cxx17__normal_iteratorIPS1_S3_EERKS1_@Base 1.1.0
 (optional=templinst)_ZNSt6vectorIN3osg7ref_ptrIN5osgFX9TechniqueEEESaIS4_EE13_M_insert_auxEN9__gnu_cxx17__normal_iteratorIPS4_S6_EERKS4_@Base 1.1.0
 (optional=templinst)_ZNSt6vectorIN5boost10shared_ptrIN5cnoid15ItemManagerImpl5SaverEEESaIS5_EE13_M_insert_auxEN9__gnu_cxx17__normal_iteratorIPS5_S7_EERKS5_@Base 1.1.0
 (optional=templinst)_ZNSt6vectorIN5boost10shared_ptrIN5cnoid15ItemManagerImpl5SaverEEESaIS5_EED1Ev@Base 1.1.0
 (optional=templinst)_ZNSt6vectorIN5boost10shared_ptrIN5cnoid15ItemManagerImpl5SaverEEESaIS5_EED2Ev@Base 1.1.0
 (optional=templinst)_ZNSt6vectorIN5boost10shared_ptrIN5cnoid16GraphDataHandlerEEESaIS4_EE13_M_insert_auxEN9__gnu_cxx17__normal_iteratorIPS4_S6_EERKS4_@Base 1.1.0
 (optional=templinst)_ZNSt6vectorIN5boost10shared_ptrIN5cnoid16GraphDataHandlerEEESaIS4_EED1Ev@Base 1.1.0
 (optional=templinst)_ZNSt6vectorIN5boost10shared_ptrIN5cnoid16GraphDataHandlerEEESaIS4_EED2Ev@Base 1.1.0
 (optional=templinst)_ZNSt6vectorIN5boost10shared_ptrIN5cnoid17PluginManagerImpl10PluginInfoEEESaIS5_EE13_M_insert_auxEN9__gnu_cxx17__normal_iteratorIPS5_S7_EERKS5_@Base 1.1.0
 (optional=templinst)_ZNSt6vectorIN5boost10shared_ptrIN5cnoid17PluginManagerImpl10PluginInfoEEESaIS5_EE9push_backERKS5_@Base 1.1.0
 (optional=templinst)_ZNSt6vectorIN5boost10shared_ptrIN5cnoid17PluginManagerImpl10PluginInfoEEESaIS5_EED1Ev@Base 1.1.0
 (optional=templinst)_ZNSt6vectorIN5boost10shared_ptrIN5cnoid17PluginManagerImpl10PluginInfoEEESaIS5_EED2Ev@Base 1.1.0
 (optional=templinst)_ZNSt6vectorIN5boost10shared_ptrINS0_15program_options18option_descriptionEEESaIS4_EED1Ev@Base 1.1.0
 (optional=templinst)_ZNSt6vectorIN5boost10shared_ptrINS0_15program_options18option_descriptionEEESaIS4_EED2Ev@Base 1.1.0
 (optional=templinst)_ZNSt6vectorIN5boost13intrusive_ptrIN5cnoid10ReferencedEEESaIS4_EE14_M_fill_insertEN9__gnu_cxx17__normal_iteratorIPS4_S6_EEmRKS4_@Base 1.1.0
 (optional=templinst)_ZNSt6vectorIN5boost13intrusive_ptrIN5cnoid10ReferencedEEESaIS4_EED1Ev@Base 1.1.0
 (optional=templinst)_ZNSt6vectorIN5boost13intrusive_ptrIN5cnoid10ReferencedEEESaIS4_EED2Ev@Base 1.1.0
 (optional=templinst)_ZNSt6vectorIN5boost13intrusive_ptrIN5cnoid18TimeSyncItemEngineEEESaIS4_EE13_M_insert_auxEN9__gnu_cxx17__normal_iteratorIPS4_S6_EERKS4_@Base 1.1.0
 (optional=templinst)_ZNSt6vectorIN5boost13intrusive_ptrIN5cnoid18TimeSyncItemEngineEEESaIS4_EED1Ev@Base 1.1.0
 (optional=templinst)_ZNSt6vectorIN5boost13intrusive_ptrIN5cnoid18TimeSyncItemEngineEEESaIS4_EED2Ev@Base 1.1.0
 (optional=templinst)_ZNSt6vectorIN5boost13intrusive_ptrIN5cnoid8YamlNodeEEESaIS4_EE13_M_insert_auxEN9__gnu_cxx17__normal_iteratorIPS4_S6_EERKS4_@Base 1.1.0
 (optional=templinst)_ZNSt6vectorIN5boost15program_options12basic_optionIcEESaIS3_EED1Ev@Base 1.1.0
 (optional=templinst)_ZNSt6vectorIN5boost15program_options12basic_optionIcEESaIS3_EED2Ev@Base 1.1.0
 (optional=templinst)_ZNSt6vectorIN5boost15program_options12basic_optionIcEESaIS3_EEaSERKS5_@Base 1.1.0
 (optional=templinst)_ZNSt6vectorIN5boost2io6detail11format_itemIcSt11char_traitsIcESaIcEEESaIS7_EE14_M_fill_assignEmRKS7_@Base 1.1.0
 (optional=templinst)_ZNSt6vectorIN5boost2io6detail11format_itemIcSt11char_traitsIcESaIcEEESaIS7_EE14_M_fill_insertEN9__gnu_cxx17__normal_iteratorIPS7_S9_EEmRKS7_@Base 1.1.0
 (optional=templinst)_ZNSt6vectorIN5boost2io6detail11format_itemIcSt11char_traitsIcESaIcEEESaIS7_EE6resizeEmS7_@Base 1.1.0
 (optional=templinst)_ZNSt6vectorIN5boost2io6detail11format_itemIcSt11char_traitsIcESaIcEEESaIS7_EEC1EmRKS7_RKS8_@Base 1.1.0
 (optional=templinst)_ZNSt6vectorIN5boost2io6detail11format_itemIcSt11char_traitsIcESaIcEEESaIS7_EEC2EmRKS7_RKS8_@Base 1.1.0
 (optional=templinst)_ZNSt6vectorIN5boost2io6detail11format_itemIcSt11char_traitsIcESaIcEEESaIS7_EED1Ev@Base 1.1.0
 (optional=templinst)_ZNSt6vectorIN5boost2io6detail11format_itemIcSt11char_traitsIcESaIcEEESaIS7_EED2Ev@Base 1.1.0
 (optional=templinst)_ZNSt6vectorIN5boost7signals10connectionESaIS2_EE13_M_insert_auxEN9__gnu_cxx17__normal_iteratorIPS2_S4_EERKS2_@Base 1.1.0
 (optional=templinst)_ZNSt6vectorIN5boost8functionIFNS0_13intrusive_ptrIN5cnoid18TimeSyncItemEngineEEEPNS3_4ItemEEEESaIS9_EE13_M_insert_auxEN9__gnu_cxx17__normal_iteratorIPS9_SB_EERKS9_@Base 1.1.0
 (optional=templinst)_ZNSt6vectorIN5boost8functionIFNS0_13intrusive_ptrIN5cnoid18TimeSyncItemEngineEEEPNS3_4ItemEEEESaIS9_EED1Ev@Base 1.1.0
 (optional=templinst)_ZNSt6vectorIN5boost8functionIFNS0_13intrusive_ptrIN5cnoid18TimeSyncItemEngineEEEPNS3_4ItemEEEESaIS9_EED2Ev@Base 1.1.0
 (optional=templinst)_ZNSt6vectorIP7QWidgetSaIS1_EE13_M_insert_auxEN9__gnu_cxx17__normal_iteratorIPS1_S3_EERKS1_@Base 1.1.0
 (optional=templinst)_ZNSt6vectorIP7QWidgetSaIS1_EED1Ev@Base 1.1.0
 (optional=templinst)_ZNSt6vectorIP7QWidgetSaIS1_EED2Ev@Base 1.1.0
 (optional=templinst)_ZNSt6vectorIPKN5boost7signals9trackableESaIS4_EE13_M_insert_auxEN9__gnu_cxx17__normal_iteratorIPS4_S6_EERKS4_@Base 1.1.0
 (optional=templinst)_ZNSt6vectorIPKN5boost7signals9trackableESaIS4_EED1Ev@Base 1.1.0
 (optional=templinst)_ZNSt6vectorIPKN5boost7signals9trackableESaIS4_EED2Ev@Base 1.1.0
 (optional=templinst)_ZNSt6vectorIPN3osg4NodeESaIS2_EE13_M_insert_auxEN9__gnu_cxx17__normal_iteratorIPS2_S4_EERKS2_@Base 1.1.0
 (optional=templinst)_ZNSt6vectorIPN3osg4NodeESaIS2_EE14_M_fill_insertEN9__gnu_cxx17__normal_iteratorIPS2_S4_EEmRKS2_@Base 1.1.0
 (optional=templinst)_ZNSt6vectorIPN3osg4NodeESaIS2_EE6insertEN9__gnu_cxx17__normal_iteratorIPS2_S4_EERKS2_@Base 1.1.0
 (optional=templinst)_ZNSt6vectorIPN3osg4NodeESaIS2_EE6resizeEmS2_@Base 1.1.0
 (optional=templinst)_ZNSt6vectorIPN3osg4NodeESaIS2_EED1Ev@Base 1.1.0
 (optional=templinst)_ZNSt6vectorIPN3osg4NodeESaIS2_EED2Ev@Base 1.1.0
 (optional=templinst)_ZNSt6vectorIPN3osg4NodeESaIS2_EEaSERKS4_@Base 1.1.0
 (optional=templinst)_ZNSt6vectorIPN5cnoid17ItemCreationPanelESaIS2_EE13_M_insert_auxEN9__gnu_cxx17__normal_iteratorIPS2_S4_EERKS2_@Base 1.1.0
 (optional=templinst)_ZNSt6vectorIPN5cnoid4ItemESaIS2_EE14_M_fill_insertEN9__gnu_cxx17__normal_iteratorIPS2_S4_EEmRKS2_@Base 1.1.0
 (optional=templinst)_ZNSt6vectorIPN5cnoid4ItemESaIS2_EED1Ev@Base 1.1.0
 (optional=templinst)_ZNSt6vectorIPN5cnoid4ItemESaIS2_EED2Ev@Base 1.1.0
 (optional=templinst)_ZNSt6vectorIPN5cnoid4ViewESaIS2_EE13_M_insert_auxEN9__gnu_cxx17__normal_iteratorIPS2_S4_EERKS2_@Base 1.1.0
 (optional=templinst)_ZNSt6vectorIPN5cnoid4ViewESaIS2_EED1Ev@Base 1.1.0
 (optional=templinst)_ZNSt6vectorIPN5cnoid4ViewESaIS2_EED2Ev@Base 1.1.0
 (optional=templinst)_ZNSt6vectorIPN5cnoid7ToolBarESaIS2_EE13_M_insert_auxEN9__gnu_cxx17__normal_iteratorIPS2_S4_EERKS2_@Base 1.1.0
 (optional=templinst)_ZNSt6vectorIPN5cnoid7ToolBarESaIS2_EE5eraseEN9__gnu_cxx17__normal_iteratorIPS2_S4_EE@Base 1.1.0
 (optional=templinst)_ZNSt6vectorIPN5cnoid7ToolBarESaIS2_EED1Ev@Base 1.1.0
 (optional=templinst)_ZNSt6vectorIPN5cnoid7ToolBarESaIS2_EED2Ev@Base 1.1.0
 (optional=templinst)_ZNSt6vectorISsSaISsEE13_M_insert_auxEN9__gnu_cxx17__normal_iteratorIPSsS1_EERKSs@Base 1.1.0
 (optional=templinst)_ZNSt6vectorISsSaISsEE9push_backERKSs@Base 1.1.0
 (optional=templinst)_ZNSt6vectorISsSaISsEEC1ERKS1_@Base 1.1.0
 (optional=templinst)_ZNSt6vectorISsSaISsEEC2ERKS1_@Base 1.1.0
 (optional=templinst)_ZNSt6vectorISsSaISsEED1Ev@Base 1.1.0
 (optional=templinst)_ZNSt6vectorISsSaISsEED2Ev@Base 1.1.0
 (optional=templinst)_ZNSt6vectorISsSaISsEEaSERKS1_@Base 1.1.0
 (optional=templinst)_ZNSt6vectorIbSaIbEE14_M_fill_insertESt13_Bit_iteratormb@Base 1.1.0
 (optional=templinst)_ZNSt6vectorIbSaIbEE6resizeEmb@Base 1.1.0
 (optional=templinst)_ZNSt6vectorIbSaIbEED1Ev@Base 1.1.0
 (optional=templinst)_ZNSt6vectorIbSaIbEED2Ev@Base 1.1.0
 (optional=templinst)_ZNSt6vectorIdSaIdEE14_M_fill_insertEN9__gnu_cxx17__normal_iteratorIPdS1_EEmRKd@Base 1.1.0
 (optional=templinst)_ZNSt6vectorIdSaIdEED1Ev@Base 1.1.0
 (optional=templinst)_ZNSt6vectorIdSaIdEED2Ev@Base 1.1.0
 (optional=templinst)_ZNSt6vectorIiSaIiEE13_M_insert_auxEN9__gnu_cxx17__normal_iteratorIPiS1_EERKi@Base 1.1.0
 (optional=templinst)_ZNSt6vectorIiSaIiEED1Ev@Base 1.1.0
 (optional=templinst)_ZNSt6vectorIiSaIiEED2Ev@Base 1.1.0
 (optional=templinst)_ZNSt6vectorIjSaIjEE13_M_insert_auxEN9__gnu_cxx17__normal_iteratorIPjS1_EERKj@Base 1.1.0
 (optional=templinst)_ZNSt6vectorImSaImEE14_M_fill_insertEN9__gnu_cxx17__normal_iteratorIPmS1_EEmRKm@Base 1.1.0
 (optional=templinst)_ZNSt6vectorItSaItEE13_M_insert_auxEN9__gnu_cxx17__normal_iteratorIPtS1_EERKt@Base 1.1.0
 (optional=templinst)_ZNSt8_Rb_treeI7QStringSt4pairIKS0_PN5cnoid4ViewEESt10_Select1stIS6_ESt4lessIS0_ESaIS6_EE15_M_insert_equalERKS6_@Base 1.1.0
 (optional=templinst)_ZNSt8_Rb_treeI7QStringSt4pairIKS0_PN5cnoid4ViewEESt10_Select1stIS6_ESt4lessIS0_ESaIS6_EE8_M_eraseEPSt13_Rb_tree_nodeIS6_E@Base 1.1.0
 (optional=templinst)_ZNSt8_Rb_treeI7QStringSt4pairIKS0_PN5cnoid7ToolBarEESt10_Select1stIS6_ESt4lessIS0_ESaIS6_EE10_M_insert_EPKSt18_Rb_tree_node_baseSF_RKS6_@Base 1.1.0
 (optional=templinst)_ZNSt8_Rb_treeI7QStringSt4pairIKS0_PN5cnoid7ToolBarEESt10_Select1stIS6_ESt4lessIS0_ESaIS6_EE16_M_insert_uniqueERKS6_@Base 1.1.0
 (optional=templinst)_ZNSt8_Rb_treeI7QStringSt4pairIKS0_PN5cnoid7ToolBarEESt10_Select1stIS6_ESt4lessIS0_ESaIS6_EE17_M_insert_unique_ESt23_Rb_tree_const_iteratorIS6_ERKS6_@Base 1.1.0
 (optional=templinst)_ZNSt8_Rb_treeI7QStringSt4pairIKS0_PN5cnoid7ToolBarEESt10_Select1stIS6_ESt4lessIS0_ESaIS6_EE8_M_eraseEPSt13_Rb_tree_nodeIS6_E@Base 1.1.0
 (optional=templinst)_ZNSt8_Rb_treeIN5boost10shared_ptrIN5cnoid15ItemManagerImpl5SaverEEES5_St9_IdentityIS5_ESt4lessIS5_ESaIS5_EE10_M_insert_EPKSt18_Rb_tree_node_baseSE_RKS5_@Base 1.1.0
 (optional=templinst)_ZNSt8_Rb_treeIN5boost10shared_ptrIN5cnoid15ItemManagerImpl5SaverEEES5_St9_IdentityIS5_ESt4lessIS5_ESaIS5_EE16_M_insert_uniqueERKS5_@Base 1.1.0
 (optional=templinst)_ZNSt8_Rb_treeIN5boost10shared_ptrIN5cnoid15ItemManagerImpl5SaverEEES5_St9_IdentityIS5_ESt4lessIS5_ESaIS5_EE8_M_eraseEPSt13_Rb_tree_nodeIS5_E@Base 1.1.0
 (optional=templinst)_ZNSt8_Rb_treeIN5boost10shared_ptrIN5cnoid15ItemManagerImpl6LoaderEEES5_St9_IdentityIS5_ESt4lessIS5_ESaIS5_EE10_M_insert_EPKSt18_Rb_tree_node_baseSE_RKS5_@Base 1.1.0
 (optional=templinst)_ZNSt8_Rb_treeIN5boost10shared_ptrIN5cnoid15ItemManagerImpl6LoaderEEES5_St9_IdentityIS5_ESt4lessIS5_ESaIS5_EE16_M_insert_uniqueERKS5_@Base 1.1.0
 (optional=templinst)_ZNSt8_Rb_treeIN5boost10shared_ptrIN5cnoid15ItemManagerImpl6LoaderEEES5_St9_IdentityIS5_ESt4lessIS5_ESaIS5_EE8_M_eraseEPSt13_Rb_tree_nodeIS5_E@Base 1.1.0
 (optional=templinst)_ZNSt8_Rb_treeIN5boost13intrusive_ptrIN5cnoid4ItemEEESt4pairIKS4_iESt10_Select1stIS7_ESt4lessIS4_ESaIS7_EE10_M_insert_EPKSt18_Rb_tree_node_baseSG_RKS7_@Base 1.1.0
 (optional=templinst)_ZNSt8_Rb_treeIN5boost13intrusive_ptrIN5cnoid4ItemEEESt4pairIKS4_iESt10_Select1stIS7_ESt4lessIS4_ESaIS7_EE16_M_insert_uniqueERKS7_@Base 1.1.0
 (optional=templinst)_ZNSt8_Rb_treeIN5boost13intrusive_ptrIN5cnoid4ItemEEESt4pairIKS4_iESt10_Select1stIS7_ESt4lessIS4_ESaIS7_EE17_M_insert_unique_ESt23_Rb_tree_const_iteratorIS7_ERKS7_@Base 1.1.0
 (optional=templinst)_ZNSt8_Rb_treeIN5boost13intrusive_ptrIN5cnoid4ItemEEESt4pairIKS4_iESt10_Select1stIS7_ESt4lessIS4_ESaIS7_EE8_M_eraseEPSt13_Rb_tree_nodeIS7_E@Base 1.1.0
 (optional=templinst)_ZNSt8_Rb_treeIN5boost13intrusive_ptrIN5cnoid9SceneItemEEES4_St9_IdentityIS4_ESt4lessIS4_ESaIS4_EE10_M_insert_EPKSt18_Rb_tree_node_baseSD_RKS4_@Base 1.1.0
 (optional=templinst)_ZNSt8_Rb_treeIN5boost13intrusive_ptrIN5cnoid9SceneItemEEES4_St9_IdentityIS4_ESt4lessIS4_ESaIS4_EE16_M_insert_uniqueERKS4_@Base 1.1.0
 (optional=templinst)_ZNSt8_Rb_treeIN5boost13intrusive_ptrIN5cnoid9SceneItemEEES4_St9_IdentityIS4_ESt4lessIS4_ESaIS4_EE4findERKS4_@Base 1.1.0
 (optional=templinst)_ZNSt8_Rb_treeIN5boost13intrusive_ptrIN5cnoid9SceneItemEEES4_St9_IdentityIS4_ESt4lessIS4_ESaIS4_EE8_M_eraseEPSt13_Rb_tree_nodeIS4_E@Base 1.1.0
 (optional=templinst)_ZNSt8_Rb_treeIN7osgUtil22LineSegmentIntersector12IntersectionES2_St9_IdentityIS2_ESt4lessIS2_ESaIS2_EE8_M_eraseEPSt13_Rb_tree_nodeIS2_E@Base 1.1.0
 (optional=templinst)_ZNSt8_Rb_treeIP7QActionS1_St9_IdentityIS1_ESt4lessIS1_ESaIS1_EE10_M_insert_EPKSt18_Rb_tree_node_baseSA_RKS1_@Base 1.1.0
 (optional=templinst)_ZNSt8_Rb_treeIP7QActionS1_St9_IdentityIS1_ESt4lessIS1_ESaIS1_EE12_M_erase_auxESt23_Rb_tree_const_iteratorIS1_E@Base 1.1.0
 (optional=templinst)_ZNSt8_Rb_treeIP7QActionS1_St9_IdentityIS1_ESt4lessIS1_ESaIS1_EE4findERKS1_@Base 1.1.0
 (optional=templinst)_ZNSt8_Rb_treeIP7QActionS1_St9_IdentityIS1_ESt4lessIS1_ESaIS1_EE8_M_eraseEPSt13_Rb_tree_nodeIS1_E@Base 1.1.0
 (optional=templinst)_ZNSt8_Rb_treeIPKN3osg6ObjectESt4pairIKS3_jESt10_Select1stIS6_ESt4lessIS3_ESaIS6_EE8_M_eraseEPSt13_Rb_tree_nodeIS6_E@Base 1.1.0
 (optional=templinst)_ZNSt8_Rb_treeIPN5cnoid12VrmlGeometryESt4pairIKS2_PN3osg8GeometryEESt10_Select1stIS8_ESt4lessIS2_ESaIS8_EE10_M_insert_EPKSt18_Rb_tree_node_baseSH_RKS8_@Base 1.1.0
 (optional=templinst)_ZNSt8_Rb_treeIPN5cnoid12VrmlGeometryESt4pairIKS2_PN3osg8GeometryEESt10_Select1stIS8_ESt4lessIS2_ESaIS8_EE16_M_insert_uniqueERKS8_@Base 1.1.0
 (optional=templinst)_ZNSt8_Rb_treeIPN5cnoid12VrmlGeometryESt4pairIKS2_PN3osg8GeometryEESt10_Select1stIS8_ESt4lessIS2_ESaIS8_EE8_M_eraseEPSt13_Rb_tree_nodeIS8_E@Base 1.1.0
 (optional=templinst)_ZNSt8_Rb_treeIPN5cnoid17ItemCreationPanelES2_St9_IdentityIS2_ESt4lessIS2_ESaIS2_EE10_M_insert_EPKSt18_Rb_tree_node_baseSB_RKS2_@Base 1.1.0
 (optional=templinst)_ZNSt8_Rb_treeIPN5cnoid17ItemCreationPanelES2_St9_IdentityIS2_ESt4lessIS2_ESaIS2_EE16_M_insert_uniqueERKS2_@Base 1.1.0
 (optional=templinst)_ZNSt8_Rb_treeIPN5cnoid17ItemCreationPanelES2_St9_IdentityIS2_ESt4lessIS2_ESaIS2_EE8_M_eraseEPSt13_Rb_tree_nodeIS2_E@Base 1.1.0
 (optional=templinst)_ZNSt8_Rb_treeIPN5cnoid20ExtensionManagerImplES2_St9_IdentityIS2_ESt4lessIS2_ESaIS2_EE10_M_insert_EPKSt18_Rb_tree_node_baseSB_RKS2_@Base 1.1.0
 (optional=templinst)_ZNSt8_Rb_treeIPN5cnoid20ExtensionManagerImplES2_St9_IdentityIS2_ESt4lessIS2_ESaIS2_EE8_M_eraseEPSt13_Rb_tree_nodeIS2_E@Base 1.1.0
 (optional=templinst)_ZNSt8_Rb_treeIPN5cnoid4ViewES2_St9_IdentityIS2_ESt4lessIS2_ESaIS2_EE10_M_insert_EPKSt18_Rb_tree_node_baseSB_RKS2_@Base 1.1.0
 (optional=templinst)_ZNSt8_Rb_treeIPN5cnoid4ViewES2_St9_IdentityIS2_ESt4lessIS2_ESaIS2_EE8_M_eraseEPSt13_Rb_tree_nodeIS2_E@Base 1.1.0
 (optional=templinst)_ZNSt8_Rb_treeIPN5cnoid8VrmlNodeESt4pairIKS2_PN3osg4NodeEESt10_Select1stIS8_ESt4lessIS2_ESaIS8_EE10_M_insert_EPKSt18_Rb_tree_node_baseSH_RKS8_@Base 1.1.0
 (optional=templinst)_ZNSt8_Rb_treeIPN5cnoid8VrmlNodeESt4pairIKS2_PN3osg4NodeEESt10_Select1stIS8_ESt4lessIS2_ESaIS8_EE16_M_insert_uniqueERKS8_@Base 1.1.0
 (optional=templinst)_ZNSt8_Rb_treeIPN5cnoid8VrmlNodeESt4pairIKS2_PN3osg4NodeEESt10_Select1stIS8_ESt4lessIS2_ESaIS8_EE8_M_eraseEPSt13_Rb_tree_nodeIS8_E@Base 1.1.0
 (optional=templinst)_ZNSt8_Rb_treeIPN5cnoid8VrmlNodeESt4pairIKS2_PN3osg8MaterialEESt10_Select1stIS8_ESt4lessIS2_ESaIS8_EE10_M_insert_EPKSt18_Rb_tree_node_baseSH_RKS8_@Base 1.1.0
 (optional=templinst)_ZNSt8_Rb_treeIPN5cnoid8VrmlNodeESt4pairIKS2_PN3osg8MaterialEESt10_Select1stIS8_ESt4lessIS2_ESaIS8_EE16_M_insert_uniqueERKS8_@Base 1.1.0
 (optional=templinst)_ZNSt8_Rb_treeIPN5cnoid8VrmlNodeESt4pairIKS2_PN3osg8MaterialEESt10_Select1stIS8_ESt4lessIS2_ESaIS8_EE8_M_eraseEPSt13_Rb_tree_nodeIS8_E@Base 1.1.0
 (optional=templinst)_ZNSt8_Rb_treeISsSsSt9_IdentityISsESt4lessISsESaISsEE10_M_insert_EPKSt18_Rb_tree_node_baseS8_RKSs@Base 1.1.0
 (optional=templinst)_ZNSt8_Rb_treeISsSsSt9_IdentityISsESt4lessISsESaISsEE16_M_insert_uniqueERKSs@Base 1.1.0
 (optional=templinst)_ZNSt8_Rb_treeISsSsSt9_IdentityISsESt4lessISsESaISsEE8_M_eraseEPSt13_Rb_tree_nodeISsE@Base 1.1.0
 (optional=templinst)_ZNSt8_Rb_treeISsSt4pairIKSsN3osg7ref_ptrIKN5osgFX6EffectEEEESt10_Select1stIS8_ESt4lessISsESaIS8_EE10_M_insert_EPKSt18_Rb_tree_node_baseSH_RKS8_@Base 1.1.0
 (optional=templinst)_ZNSt8_Rb_treeISsSt4pairIKSsN3osg7ref_ptrIKN5osgFX6EffectEEEESt10_Select1stIS8_ESt4lessISsESaIS8_EE16_M_insert_uniqueERKS8_@Base 1.1.0
 (optional=templinst)_ZNSt8_Rb_treeISsSt4pairIKSsN3osg7ref_ptrIKN5osgFX6EffectEEEESt10_Select1stIS8_ESt4lessISsESaIS8_EE17_M_insert_unique_ESt23_Rb_tree_const_iteratorIS8_ERKS8_@Base 1.1.0
 (optional=templinst)_ZNSt8_Rb_treeISsSt4pairIKSsN5boost10shared_ptrIN5cnoid15ItemManagerImpl6LoaderEEEESt10_Select1stIS8_ESt4lessISsESaIS8_EE10_M_insert_EPKSt18_Rb_tree_node_baseSH_RKS8_@Base 1.1.0
 (optional=templinst)_ZNSt8_Rb_treeISsSt4pairIKSsN5boost10shared_ptrIN5cnoid15ItemManagerImpl6LoaderEEEESt10_Select1stIS8_ESt4lessISsESaIS8_EE16_M_insert_uniqueERKS8_@Base 1.1.0
 (optional=templinst)_ZNSt8_Rb_treeISsSt4pairIKSsN5boost10shared_ptrIN5cnoid15ItemManagerImpl6LoaderEEEESt10_Select1stIS8_ESt4lessISsESaIS8_EE17_M_insert_unique_ESt23_Rb_tree_const_iteratorIS8_ERKS8_@Base 1.1.0
 (optional=templinst)_ZNSt8_Rb_treeISsSt4pairIKSsN5boost10shared_ptrIN5cnoid15ItemManagerImpl6LoaderEEEESt10_Select1stIS8_ESt4lessISsESaIS8_EE8_M_eraseEPSt13_Rb_tree_nodeIS8_E@Base 1.1.0
 (optional=templinst)_ZNSt8_Rb_treeISsSt4pairIKSsN5boost10shared_ptrIN5cnoid15ItemManagerImpl9ClassInfoEEEESt10_Select1stIS8_ESt4lessISsESaIS8_EE10_M_insert_EPKSt18_Rb_tree_node_baseSH_RKS8_@Base 1.1.0
 (optional=templinst)_ZNSt8_Rb_treeISsSt4pairIKSsN5boost10shared_ptrIN5cnoid15ItemManagerImpl9ClassInfoEEEESt10_Select1stIS8_ESt4lessISsESaIS8_EE16_M_insert_uniqueERKS8_@Base 1.1.0
 (optional=templinst)_ZNSt8_Rb_treeISsSt4pairIKSsN5boost10shared_ptrIN5cnoid15ItemManagerImpl9ClassInfoEEEESt10_Select1stIS8_ESt4lessISsESaIS8_EE17_M_insert_unique_ESt23_Rb_tree_const_iteratorIS8_ERKS8_@Base 1.1.0
 (optional=templinst)_ZNSt8_Rb_treeISsSt4pairIKSsN5boost10shared_ptrIN5cnoid15ItemManagerImpl9ClassInfoEEEESt10_Select1stIS8_ESt4lessISsESaIS8_EE4findERS1_@Base 1.1.0
 (optional=templinst)_ZNSt8_Rb_treeISsSt4pairIKSsN5boost10shared_ptrIN5cnoid15ItemManagerImpl9ClassInfoEEEESt10_Select1stIS8_ESt4lessISsESaIS8_EE7_M_copyEPKSt13_Rb_tree_nodeIS8_EPSG_@Base 1.1.0
 (optional=templinst)_ZNSt8_Rb_treeISsSt4pairIKSsN5boost10shared_ptrIN5cnoid15ItemManagerImpl9ClassInfoEEEESt10_Select1stIS8_ESt4lessISsESaIS8_EE8_M_eraseEPSt13_Rb_tree_nodeIS8_E@Base 1.1.0
 (optional=templinst)_ZNSt8_Rb_treeISsSt4pairIKSsN5boost10shared_ptrIN5cnoid15ItemManagerImpl9ClassInfoEEEESt10_Select1stIS8_ESt4lessISsESaIS8_EEC1ERKSE_@Base 1.1.0
 (optional=templinst)_ZNSt8_Rb_treeISsSt4pairIKSsN5boost10shared_ptrIN5cnoid15ItemManagerImpl9ClassInfoEEEESt10_Select1stIS8_ESt4lessISsESaIS8_EEC2ERKSE_@Base 1.1.0
 (optional=templinst)_ZNSt8_Rb_treeISsSt4pairIKSsN5boost10shared_ptrIN5cnoid17PluginManagerImpl10PluginInfoEEEESt10_Select1stIS8_ESt4lessISsESaIS8_EE10_M_insert_EPKSt18_Rb_tree_node_baseSH_RKS8_@Base 1.1.0
 (optional=templinst)_ZNSt8_Rb_treeISsSt4pairIKSsN5boost10shared_ptrIN5cnoid17PluginManagerImpl10PluginInfoEEEESt10_Select1stIS8_ESt4lessISsESaIS8_EE11equal_rangeERS1_@Base 1.1.0
 (optional=templinst)_ZNSt8_Rb_treeISsSt4pairIKSsN5boost10shared_ptrIN5cnoid17PluginManagerImpl10PluginInfoEEEESt10_Select1stIS8_ESt4lessISsESaIS8_EE12_M_erase_auxESt23_Rb_tree_const_iteratorIS8_ESG_@Base 1.1.0
 (optional=templinst)_ZNSt8_Rb_treeISsSt4pairIKSsN5boost10shared_ptrIN5cnoid17PluginManagerImpl10PluginInfoEEEESt10_Select1stIS8_ESt4lessISsESaIS8_EE16_M_insert_uniqueERKS8_@Base 1.1.0
 (optional=templinst)_ZNSt8_Rb_treeISsSt4pairIKSsN5boost10shared_ptrIN5cnoid17PluginManagerImpl10PluginInfoEEEESt10_Select1stIS8_ESt4lessISsESaIS8_EE17_M_insert_unique_ESt23_Rb_tree_const_iteratorIS8_ERKS8_@Base 1.1.0
 (optional=templinst)_ZNSt8_Rb_treeISsSt4pairIKSsN5boost10shared_ptrIN5cnoid17PluginManagerImpl10PluginInfoEEEESt10_Select1stIS8_ESt4lessISsESaIS8_EE4findERS1_@Base 1.1.0
 (optional=templinst)_ZNSt8_Rb_treeISsSt4pairIKSsN5boost10shared_ptrIN5cnoid17PluginManagerImpl10PluginInfoEEEESt10_Select1stIS8_ESt4lessISsESaIS8_EE5clearEv@Base 1.1.0
 (optional=templinst)_ZNSt8_Rb_treeISsSt4pairIKSsN5boost10shared_ptrIN5cnoid17PluginManagerImpl10PluginInfoEEEESt10_Select1stIS8_ESt4lessISsESaIS8_EE5eraseERS1_@Base 1.1.0
 (optional=templinst)_ZNSt8_Rb_treeISsSt4pairIKSsN5boost10shared_ptrIN5cnoid17PluginManagerImpl10PluginInfoEEEESt10_Select1stIS8_ESt4lessISsESaIS8_EE8_M_eraseEPSt13_Rb_tree_nodeIS8_E@Base 1.1.0
 (optional=templinst)_ZNSt8_Rb_treeISsSt4pairIKSsN5boost15program_options14variable_valueEESt10_Select1stIS5_ESt4lessISsESaIS5_EE8_M_eraseEPSt13_Rb_tree_nodeIS5_E@Base 1.1.0
 (optional=templinst)_ZNSt8_Rb_treeISsSt4pairIKSsN5cnoid18ProjectManagerImpl12ArchiverInfoEESt10_Select1stIS5_ESt4lessISsESaIS5_EE10_M_insert_EPKSt18_Rb_tree_node_baseSE_RKS5_@Base 1.1.0
 (optional=templinst)_ZNSt8_Rb_treeISsSt4pairIKSsN5cnoid18ProjectManagerImpl12ArchiverInfoEESt10_Select1stIS5_ESt4lessISsESaIS5_EE16_M_insert_uniqueERKS5_@Base 1.1.0
 (optional=templinst)_ZNSt8_Rb_treeISsSt4pairIKSsN5cnoid18ProjectManagerImpl12ArchiverInfoEESt10_Select1stIS5_ESt4lessISsESaIS5_EE17_M_insert_unique_ESt23_Rb_tree_const_iteratorIS5_ERKS5_@Base 1.1.0
 (optional=templinst)_ZNSt8_Rb_treeISsSt4pairIKSsN5cnoid18ProjectManagerImpl12ArchiverInfoEESt10_Select1stIS5_ESt4lessISsESaIS5_EE7_M_copyEPKSt13_Rb_tree_nodeIS5_EPSD_@Base 1.1.0
 (optional=templinst)_ZNSt8_Rb_treeISsSt4pairIKSsN5cnoid18ProjectManagerImpl12ArchiverInfoEESt10_Select1stIS5_ESt4lessISsESaIS5_EE8_M_eraseEPSt13_Rb_tree_nodeIS5_E@Base 1.1.0
 (optional=templinst)_ZNSt8_Rb_treeISsSt4pairIKSsN5cnoid18ProjectManagerImpl12ArchiverInfoEESt10_Select1stIS5_ESt4lessISsESaIS5_EEC1ERKSB_@Base 1.1.0
 (optional=templinst)_ZNSt8_Rb_treeISsSt4pairIKSsN5cnoid18ProjectManagerImpl12ArchiverInfoEESt10_Select1stIS5_ESt4lessISsESaIS5_EEC2ERKSB_@Base 1.1.0
 (optional=templinst)_ZNSt8_Rb_treeISsSt4pairIKSsPN5cnoid15ItemManagerImpl17CreationPanelBaseEESt10_Select1stIS6_ESt4lessISsESaIS6_EE8_M_eraseEPSt13_Rb_tree_nodeIS6_E@Base 1.1.0
 (optional=templinst)_ZNSt8_Rb_treeISsSt4pairIKSsSsESt10_Select1stIS2_ESt4lessISsESaIS2_EE10_M_insert_EPKSt18_Rb_tree_node_baseSB_RKS2_@Base 1.1.0
 (optional=templinst)_ZNSt8_Rb_treeISsSt4pairIKSsSsESt10_Select1stIS2_ESt4lessISsESaIS2_EE11equal_rangeERS1_@Base 1.1.0
 (optional=templinst)_ZNSt8_Rb_treeISsSt4pairIKSsSsESt10_Select1stIS2_ESt4lessISsESaIS2_EE15_M_insert_equalERKS2_@Base 1.1.0
 (optional=templinst)_ZNSt8_Rb_treeISsSt4pairIKSsSsESt10_Select1stIS2_ESt4lessISsESaIS2_EE8_M_eraseEPSt13_Rb_tree_nodeIS2_E@Base 1.1.0
 (optional=templinst)_ZNSt8_Rb_treeISsSt4pairIKSsSt3mapISsN5boost10shared_ptrIN5cnoid15ItemManagerImpl9ClassInfoEEESt4lessISsESaIS0_IS1_S8_EEEESt10_Select1stISE_ESA_SaISE_EE10_M_insert_EPKSt18_Rb_tree_node_baseSL_RKSE_@Base 1.1.0
 (optional=templinst)_ZNSt8_Rb_treeISsSt4pairIKSsSt3mapISsN5boost10shared_ptrIN5cnoid15ItemManagerImpl9ClassInfoEEESt4lessISsESaIS0_IS1_S8_EEEESt10_Select1stISE_ESA_SaISE_EE11equal_rangeERS1_@Base 1.1.0
 (optional=templinst)_ZNSt8_Rb_treeISsSt4pairIKSsSt3mapISsN5boost10shared_ptrIN5cnoid15ItemManagerImpl9ClassInfoEEESt4lessISsESaIS0_IS1_S8_EEEESt10_Select1stISE_ESA_SaISE_EE12_M_erase_auxESt23_Rb_tree_const_iteratorISE_ESK_@Base 1.1.0
 (optional=templinst)_ZNSt8_Rb_treeISsSt4pairIKSsSt3mapISsN5boost10shared_ptrIN5cnoid15ItemManagerImpl9ClassInfoEEESt4lessISsESaIS0_IS1_S8_EEEESt10_Select1stISE_ESA_SaISE_EE16_M_insert_uniqueERKSE_@Base 1.1.0
 (optional=templinst)_ZNSt8_Rb_treeISsSt4pairIKSsSt3mapISsN5boost10shared_ptrIN5cnoid15ItemManagerImpl9ClassInfoEEESt4lessISsESaIS0_IS1_S8_EEEESt10_Select1stISE_ESA_SaISE_EE17_M_insert_unique_ESt23_Rb_tree_const_iteratorISE_ERKSE_@Base 1.1.0
 (optional=templinst)_ZNSt8_Rb_treeISsSt4pairIKSsSt3mapISsN5boost10shared_ptrIN5cnoid15ItemManagerImpl9ClassInfoEEESt4lessISsESaIS0_IS1_S8_EEEESt10_Select1stISE_ESA_SaISE_EE4findERS1_@Base 1.1.0
 (optional=templinst)_ZNSt8_Rb_treeISsSt4pairIKSsSt3mapISsN5boost10shared_ptrIN5cnoid15ItemManagerImpl9ClassInfoEEESt4lessISsESaIS0_IS1_S8_EEEESt10_Select1stISE_ESA_SaISE_EE5clearEv@Base 1.1.0
 (optional=templinst)_ZNSt8_Rb_treeISsSt4pairIKSsSt3mapISsN5boost10shared_ptrIN5cnoid15ItemManagerImpl9ClassInfoEEESt4lessISsESaIS0_IS1_S8_EEEESt10_Select1stISE_ESA_SaISE_EE5eraseERS1_@Base 1.1.0
 (optional=templinst)_ZNSt8_Rb_treeISsSt4pairIKSsSt3mapISsN5boost10shared_ptrIN5cnoid15ItemManagerImpl9ClassInfoEEESt4lessISsESaIS0_IS1_S8_EEEESt10_Select1stISE_ESA_SaISE_EE8_M_eraseEPSt13_Rb_tree_nodeISE_E@Base 1.1.0
 (optional=templinst)_ZNSt8_Rb_treeISsSt4pairIKSsSt3mapISsN5cnoid18ProjectManagerImpl12ArchiverInfoESt4lessISsESaIS0_IS1_S5_EEEESt10_Select1stISB_ES7_SaISB_EE10_M_insert_EPKSt18_Rb_tree_node_baseSI_RKSB_@Base 1.1.0
 (optional=templinst)_ZNSt8_Rb_treeISsSt4pairIKSsSt3mapISsN5cnoid18ProjectManagerImpl12ArchiverInfoESt4lessISsESaIS0_IS1_S5_EEEESt10_Select1stISB_ES7_SaISB_EE11equal_rangeERS1_@Base 1.1.0
 (optional=templinst)_ZNSt8_Rb_treeISsSt4pairIKSsSt3mapISsN5cnoid18ProjectManagerImpl12ArchiverInfoESt4lessISsESaIS0_IS1_S5_EEEESt10_Select1stISB_ES7_SaISB_EE12_M_erase_auxESt23_Rb_tree_const_iteratorISB_ESH_@Base 1.1.0
 (optional=templinst)_ZNSt8_Rb_treeISsSt4pairIKSsSt3mapISsN5cnoid18ProjectManagerImpl12ArchiverInfoESt4lessISsESaIS0_IS1_S5_EEEESt10_Select1stISB_ES7_SaISB_EE16_M_insert_uniqueERKSB_@Base 1.1.0
 (optional=templinst)_ZNSt8_Rb_treeISsSt4pairIKSsSt3mapISsN5cnoid18ProjectManagerImpl12ArchiverInfoESt4lessISsESaIS0_IS1_S5_EEEESt10_Select1stISB_ES7_SaISB_EE17_M_insert_unique_ESt23_Rb_tree_const_iteratorISB_ERKSB_@Base 1.1.0
 (optional=templinst)_ZNSt8_Rb_treeISsSt4pairIKSsSt3mapISsN5cnoid18ProjectManagerImpl12ArchiverInfoESt4lessISsESaIS0_IS1_S5_EEEESt10_Select1stISB_ES7_SaISB_EE5clearEv@Base 1.1.0
 (optional=templinst)_ZNSt8_Rb_treeISsSt4pairIKSsSt3mapISsN5cnoid18ProjectManagerImpl12ArchiverInfoESt4lessISsESaIS0_IS1_S5_EEEESt10_Select1stISB_ES7_SaISB_EE8_M_eraseEPSt13_Rb_tree_nodeISB_E@Base 1.1.0
 (optional=templinst)_ZNSt8_Rb_treeISsSt4pairIKSsSt4listIN5boost10shared_ptrIN5cnoid15ItemManagerImpl5SaverEEESaIS8_EEESt10_Select1stISB_ESt4lessISsESaISB_EE10_M_insert_EPKSt18_Rb_tree_node_baseSK_RKSB_@Base 1.1.0
 (optional=templinst)_ZNSt8_Rb_treeISsSt4pairIKSsSt4listIN5boost10shared_ptrIN5cnoid15ItemManagerImpl5SaverEEESaIS8_EEESt10_Select1stISB_ESt4lessISsESaISB_EE16_M_insert_uniqueERKSB_@Base 1.1.0
 (optional=templinst)_ZNSt8_Rb_treeISsSt4pairIKSsSt4listIN5boost10shared_ptrIN5cnoid15ItemManagerImpl5SaverEEESaIS8_EEESt10_Select1stISB_ESt4lessISsESaISB_EE17_M_insert_unique_ESt23_Rb_tree_const_iteratorISB_ERKSB_@Base 1.1.0
 (optional=templinst)_ZNSt8_Rb_treeISsSt4pairIKSsSt4listIN5boost10shared_ptrIN5cnoid15ItemManagerImpl5SaverEEESaIS8_EEESt10_Select1stISB_ESt4lessISsESaISB_EE8_M_eraseEPSt13_Rb_tree_nodeISB_E@Base 1.1.0
 (optional=templinst)_ZNSt8_Rb_treeISsSt4pairIKSsSt4listIN5boost10shared_ptrIN5cnoid15ItemManagerImpl6LoaderEEESaIS8_EEESt10_Select1stISB_ESt4lessISsESaISB_EE10_M_insert_EPKSt18_Rb_tree_node_baseSK_RKSB_@Base 1.1.0
 (optional=templinst)_ZNSt8_Rb_treeISsSt4pairIKSsSt4listIN5boost10shared_ptrIN5cnoid15ItemManagerImpl6LoaderEEESaIS8_EEESt10_Select1stISB_ESt4lessISsESaISB_EE16_M_insert_uniqueERKSB_@Base 1.1.0
 (optional=templinst)_ZNSt8_Rb_treeISsSt4pairIKSsSt4listIN5boost10shared_ptrIN5cnoid15ItemManagerImpl6LoaderEEESaIS8_EEESt10_Select1stISB_ESt4lessISsESaISB_EE17_M_insert_unique_ESt23_Rb_tree_const_iteratorISB_ERKSB_@Base 1.1.0
 (optional=templinst)_ZNSt8_Rb_treeISsSt4pairIKSsSt4listIN5boost10shared_ptrIN5cnoid15ItemManagerImpl6LoaderEEESaIS8_EEESt10_Select1stISB_ESt4lessISsESaISB_EE8_M_eraseEPSt13_Rb_tree_nodeISB_E@Base 1.1.0
 (optional=templinst)_ZNSt8_Rb_treeISsSt4pairIKSsSt6vectorIN5boost8functionIFNS3_13intrusive_ptrIN5cnoid18TimeSyncItemEngineEEEPNS6_4ItemEEEESaISC_EEESt10_Select1stISF_ESt4lessISsESaISF_EE10_M_insert_EPKSt18_Rb_tree_node_baseSO_RKSF_@Base 1.1.0
 (optional=templinst)_ZNSt8_Rb_treeISsSt4pairIKSsSt6vectorIN5boost8functionIFNS3_13intrusive_ptrIN5cnoid18TimeSyncItemEngineEEEPNS6_4ItemEEEESaISC_EEESt10_Select1stISF_ESt4lessISsESaISF_EE11equal_rangeERS1_@Base 1.1.0
 (optional=templinst)_ZNSt8_Rb_treeISsSt4pairIKSsSt6vectorIN5boost8functionIFNS3_13intrusive_ptrIN5cnoid18TimeSyncItemEngineEEEPNS6_4ItemEEEESaISC_EEESt10_Select1stISF_ESt4lessISsESaISF_EE12_M_erase_auxESt23_Rb_tree_const_iteratorISF_ESN_@Base 1.1.0
 (optional=templinst)_ZNSt8_Rb_treeISsSt4pairIKSsSt6vectorIN5boost8functionIFNS3_13intrusive_ptrIN5cnoid18TimeSyncItemEngineEEEPNS6_4ItemEEEESaISC_EEESt10_Select1stISF_ESt4lessISsESaISF_EE16_M_insert_uniqueERKSF_@Base 1.1.0
 (optional=templinst)_ZNSt8_Rb_treeISsSt4pairIKSsSt6vectorIN5boost8functionIFNS3_13intrusive_ptrIN5cnoid18TimeSyncItemEngineEEEPNS6_4ItemEEEESaISC_EEESt10_Select1stISF_ESt4lessISsESaISF_EE17_M_insert_unique_ESt23_Rb_tree_const_iteratorISF_ERKSF_@Base 1.1.0
 (optional=templinst)_ZNSt8_Rb_treeISsSt4pairIKSsSt6vectorIN5boost8functionIFNS3_13intrusive_ptrIN5cnoid18TimeSyncItemEngineEEEPNS6_4ItemEEEESaISC_EEESt10_Select1stISF_ESt4lessISsESaISF_EE8_M_eraseEPSt13_Rb_tree_nodeISF_E@Base 1.1.0
 (optional=templinst)_ZNSt8_Rb_treeISt4pairISsN5boost10shared_ptrIN5cnoid11ItemManager23CreationPanelFilterBaseEEEES7_St9_IdentityIS7_ESt4lessIS7_ESaIS7_EE10_M_insert_EPKSt18_Rb_tree_node_baseSG_RKS7_@Base 1.1.0
 (optional=templinst)_ZNSt8_Rb_treeISt4pairISsN5boost10shared_ptrIN5cnoid11ItemManager23CreationPanelFilterBaseEEEES7_St9_IdentityIS7_ESt4lessIS7_ESaIS7_EE16_M_insert_uniqueERKS7_@Base 1.1.0
 (optional=templinst)_ZNSt8_Rb_treeISt4pairISsN5boost10shared_ptrIN5cnoid11ItemManager23CreationPanelFilterBaseEEEES7_St9_IdentityIS7_ESt4lessIS7_ESaIS7_EE8_M_eraseEPSt13_Rb_tree_nodeIS7_E@Base 1.1.0
 (optional=templinst)_ZNSt8_Rb_treeIiSt4pairIKidESt10_Select1stIS2_ESt4lessIiESaIS2_EE10_M_insert_EPKSt18_Rb_tree_node_baseSB_RKS2_@Base 1.1.0
 (optional=templinst)_ZNSt8_Rb_treeIiSt4pairIKidESt10_Select1stIS2_ESt4lessIiESaIS2_EE12_M_erase_auxESt23_Rb_tree_const_iteratorIS2_ESA_@Base 1.1.0
 (optional=templinst)_ZNSt8_Rb_treeIiSt4pairIKidESt10_Select1stIS2_ESt4lessIiESaIS2_EE16_M_insert_uniqueERKS2_@Base 1.1.0
 (optional=templinst)_ZNSt8_Rb_treeIiSt4pairIKidESt10_Select1stIS2_ESt4lessIiESaIS2_EE17_M_insert_unique_ESt23_Rb_tree_const_iteratorIS2_ERKS2_@Base 1.1.0
 (optional=templinst)_ZNSt8_Rb_treeIiSt4pairIKidESt10_Select1stIS2_ESt4lessIiESaIS2_EE8_M_eraseEPSt13_Rb_tree_nodeIS2_E@Base 1.1.0
 (optional=templinst)_ZNSt8multimapISsSsSt4lessISsESaISt4pairIKSsSsEEED1Ev@Base 1.1.0
 (optional=templinst)_ZNSt8multimapISsSsSt4lessISsESaISt4pairIKSsSsEEED2Ev@Base 1.1.0
 (optional=templinst)_ZNSt8multisetIN7osgUtil22LineSegmentIntersector12IntersectionESt4lessIS2_ESaIS2_EED1Ev@Base 1.1.0
 (optional=templinst)_ZNSt8multisetIN7osgUtil22LineSegmentIntersector12IntersectionESt4lessIS2_ESaIS2_EED2Ev@Base 1.1.0
 _ZSt10__fill_n_aIPN5boost2io6detail11format_itemIcSt11char_traitsIcESaIcEEEmS7_EN9__gnu_cxx11__enable_ifIXntsrSt11__is_scalarIT1_E7__valueET_E6__typeESE_T0_RKSC_@Base 1.1.0
 (optional=templinst)_ZSt13__adjust_heapIN9__gnu_cxx17__normal_iteratorIPPN5cnoid7ToolBarESt6vectorIS4_SaIS4_EEEElS4_NS3_17LayoutPriorityCmpEEvT_T0_SC_T1_T2_@Base 1.1.0
 (optional=templinst)_ZSt13__adjust_heapIPclcEvT_T0_S2_T1_@Base 1.1.0
 (optional=templinst)_ZSt13binary_searchIPKccEbT_S2_RKT0_@Base 1.1.0
 (optional=templinst)_ZSt13copy_backwardIPPN3osg4NodeES3_ET0_T_S5_S4_@Base 1.1.0
 (optional=templinst)_ZSt13copy_backwardIPdS0_ET0_T_S2_S1_@Base 1.1.0
 (optional=templinst)_ZSt13copy_backwardIPmS0_ET0_T_S2_S1_@Base 1.1.0
 (optional=templinst)_ZSt16__insertion_sortIN9__gnu_cxx17__normal_iteratorIPPN5cnoid7ToolBarESt6vectorIS4_SaIS4_EEEENS3_17LayoutPriorityCmpEEvT_SB_T0_@Base 1.1.0
 (optional=templinst)_ZSt16__insertion_sortIPcEvT_S1_@Base 1.1.0
 (optional=templinst)_ZSt16__introsort_loopIN9__gnu_cxx17__normal_iteratorIPPN5cnoid7ToolBarESt6vectorIS4_SaIS4_EEEElNS3_17LayoutPriorityCmpEEvT_SB_T0_T1_@Base 1.1.0
 (optional=templinst)_ZSt16__introsort_loopIPclEvT_S1_T0_@Base 1.1.0
 (optional=templinst)_ZSt4copyIN9__gnu_cxx17__normal_iteratorIPKPN3osg4NodeESt6vectorIS4_SaIS4_EEEENS1_IPS4_S9_EEET0_T_SE_SD_@Base 1.1.0
 _ZSt4fillSt13_Bit_iteratorS_RKb@Base 1.1.0
 (optional=templinst)_ZSt6removeIN9__gnu_cxx17__normal_iteratorIPPN5cnoid4ViewESt6vectorIS4_SaIS4_EEEES4_ET_SA_SA_RKT0_@Base 1.1.0
 (optional=templinst)_ZSt7find_ifIN5boost7signals6detail23named_slot_map_iteratorENS2_11is_callableEET_S5_S5_T0_@Base 1.1.0
 _ZSt8__fill_aIPN5boost2io6detail11format_itemIcSt11char_traitsIcESaIcEEES7_EN9__gnu_cxx11__enable_ifIXntsrSt11__is_scalarIT0_E7__valueEvE6__typeET_SG_RKSC_@Base 1.1.0
 (optional=templinst)_ZSt9__find_ifIN9__gnu_cxx17__normal_iteratorIPKcSsEEN5boost9algorithm6detail10is_any_ofFIcEEET_SA_SA_T0_St26random_access_iterator_tag@Base 1.1.0
 (optional=templinst)_ZSt9__find_ifIN9__gnu_cxx17__normal_iteratorIPcSsEEN5boost22escaped_list_separatorIcSt11char_traitsIcEE7char_eqEET_SA_SA_T0_St26random_access_iterator_tag@Base 1.1.0
 (optional=templinst)_ZSteqIcEN9__gnu_cxx11__enable_ifIXsrSt9__is_charIT_E7__valueEbE6__typeERKSbIS3_St11char_traitsIS3_ESaIS3_EESC_@Base 1.1.0
 (optional=templinst)_ZStltISsN5boost10shared_ptrIN5cnoid11ItemManager23CreationPanelFilterBaseEEEEbRKSt4pairIT_T0_ESB_@Base 1.1.0
 (optional=templinst)_ZStplIcSt11char_traitsIcESaIcEESbIT_T0_T1_EPKS3_RKS6_@Base 1.1.0
 (optional=templinst)_ZStplIcSt11char_traitsIcESaIcEESbIT_T0_T1_ERKS6_PKS3_@Base 1.1.0
 (optional=templinst)_ZStplIcSt11char_traitsIcESaIcEESbIT_T0_T1_ERKS6_S8_@Base 1.1.0
 _ZTIFbdE@Base 1.1.0
 _ZTIFvRKN5cnoid8ItemListINS_4ItemEEEE@Base 1.1.0
 _ZTIFvRN5boost15program_options13variables_mapEE@Base 1.1.0
 _ZTIFvvE@Base 1.1.0
 _ZTIN3osg10IndexArrayE@Base 1.1.0
 _ZTIN3osg11MixinVectorINS_5Vec3fEEE@Base 1.1.0
 _ZTIN3osg11MixinVectorINS_5Vec4fEEE@Base 1.1.0
 _ZTIN3osg11MixinVectorIiEE@Base 1.1.0
 _ZTIN3osg11MixinVectorIjEE@Base 1.1.0
 _ZTIN3osg11MixinVectorItEE@Base 1.1.0
 _ZTIN3osg12DrawElementsE@Base 1.1.0
 _ZTIN3osg12NodeCallbackE@Base 1.1.0
 _ZTIN3osg13TemplateArrayINS_5Vec3fELNS_5Array4TypeE10ELi3ELi5126EEE@Base 1.1.0
 _ZTIN3osg13TemplateArrayINS_5Vec4fELNS_5Array4TypeE11ELi4ELi5126EEE@Base 1.1.0
 _ZTIN3osg18TemplateIndexArrayIiLNS_5Array4TypeE3ELi1ELi5124EEE@Base 1.1.0
 _ZTIN3osg18TemplateIndexArrayIjLNS_5Array4TypeE6ELi1ELi5125EEE@Base 1.1.0
 _ZTIN3osg8Drawable13EventCallbackE@Base 1.1.0
 _ZTIN5boost10last_valueIvEE@Base 1.1.0
 _ZTIN5boost11filesystem222basic_filesystem_errorINS0_10basic_pathISsNS0_11path_traitsEEEEE@Base 1.1.0
 _ZTIN5boost12bad_any_castE@Base 1.1.0
 _ZTIN5boost12noncopyable_11noncopyableE@Base 1.1.0
 _ZTIN5boost13function_baseE@Base 1.1.0
 _ZTIN5boost15program_options11typed_valueISt6vectorISsSaISsEEcEE@Base 1.1.0
 _ZTIN5boost15program_options14value_semanticE@Base 1.1.0
 _ZTIN5boost15program_options16typed_value_baseE@Base 1.1.0
 _ZTIN5boost15program_options20invalid_option_valueE@Base 1.1.0
 _ZTIN5boost15program_options22abstract_variables_mapE@Base 1.1.0
 _ZTIN5boost15program_options5errorE@Base 1.1.0
 _ZTIN5boost16bad_lexical_castE@Base 1.1.0
 _ZTIN5boost16base_from_memberINS_10shared_ptrINS_2io18basic_altstringbufIcSt11char_traitsIcESaIcEEEEELi0EEE@Base 1.1.0
 _ZTIN5boost16exception_detail10clone_baseE@Base 1.1.0
 _ZTIN5boost16exception_detail10clone_implINS0_19error_info_injectorINS_11filesystem222basic_filesystem_errorINS3_10basic_pathISsNS3_11path_traitsEEEEEEEEE@Base 1.1.0
 _ZTIN5boost16exception_detail10clone_implINS0_19error_info_injectorINS_12bad_any_castEEEEE@Base 1.1.0
 _ZTIN5boost16exception_detail10clone_implINS0_19error_info_injectorINS_15program_options20invalid_option_valueEEEEE@Base 1.1.0
 _ZTIN5boost16exception_detail10clone_implINS0_19error_info_injectorINS_17bad_function_callEEEEE@Base 1.1.0
 _ZTIN5boost16exception_detail10clone_implINS0_19error_info_injectorINS_2io12too_few_argsEEEEE@Base 1.1.0
 _ZTIN5boost16exception_detail10clone_implINS0_19error_info_injectorINS_2io13too_many_argsEEEEE@Base 1.1.0
 _ZTIN5boost16exception_detail10clone_implINS0_19error_info_injectorINS_2io17bad_format_stringEEEEE@Base 1.1.0
 _ZTIN5boost16exception_detail10clone_implINS0_19error_info_injectorINSt8ios_base7failureEEEEE@Base 1.1.0
 _ZTIN5boost16exception_detail19error_info_injectorINS_11filesystem222basic_filesystem_errorINS2_10basic_pathISsNS2_11path_traitsEEEEEEE@Base 1.1.0
 _ZTIN5boost16exception_detail19error_info_injectorINS_12bad_any_castEEE@Base 1.1.0
 _ZTIN5boost16exception_detail19error_info_injectorINS_15program_options20invalid_option_valueEEE@Base 1.1.0
 _ZTIN5boost16exception_detail19error_info_injectorINS_17bad_function_callEEE@Base 1.1.0
 _ZTIN5boost16exception_detail19error_info_injectorINS_2io12too_few_argsEEE@Base 1.1.0
 _ZTIN5boost16exception_detail19error_info_injectorINS_2io13too_many_argsEEE@Base 1.1.0
 _ZTIN5boost16exception_detail19error_info_injectorINS_2io17bad_format_stringEEE@Base 1.1.0
 _ZTIN5boost16exception_detail19error_info_injectorINSt8ios_base7failureEEE@Base 1.1.0
 _ZTIN5boost17bad_function_callE@Base 1.1.0
 _ZTIN5boost18escaped_list_errorE@Base 1.1.0
 _ZTIN5boost2io12format_errorE@Base 1.1.0
 _ZTIN5boost2io12too_few_argsE@Base 1.1.0
 _ZTIN5boost2io13too_many_argsE@Base 1.1.0
 _ZTIN5boost2io17bad_format_stringE@Base 1.1.0
 _ZTIN5boost2io18basic_altstringbufIcSt11char_traitsIcESaIcEEE@Base 1.1.0
 _ZTIN5boost2io22basic_oaltstringstreamIcSt11char_traitsIcESaIcEEE@Base 1.1.0
 _ZTIN5boost3_bi6bind_tIbNS_4_mfi3mf0Ib7QWidgetEENS0_5list1INS0_5valueIPN5cnoid10MainWindowEEEEEEE@Base 1.1.0
 _ZTIN5boost3_bi6bind_tIbNS_4_mfi3mf0IbN5cnoid14LazySignalBaseEEENS0_5list1INS0_5valueIPS5_EEEEEE@Base 1.1.0
 _ZTIN5boost3_bi6bind_tIbNS_4_mfi3mf1IbN5cnoid11TimeBarImplEdEENS0_5list2INS0_5valueIPS5_EENS_3argILi1EEEEEEE@Base 1.1.0
 _ZTIN5boost3_bi6bind_tIbNS_4_mfi3mf2IbN5cnoid12ItemTreeViewENS_13intrusive_ptrINS4_4ItemEEEbEENS0_5list3INS0_5valueIPS5_EENS_3argILi1EEENSB_IbEEEEEE@Base 1.1.0
 _ZTIN5boost3_bi6bind_tIbNS_4_mfi3mf3IbN5cnoid15GraphWidgetImplEdbbEENS0_5list4INS0_5valueIPS5_EENS_3argILi1EEENS8_IbEESD_EEEE@Base 1.1.0
 _ZTIN5boost3_bi6bind_tIbPFbPN5cnoid12MultiSeqBaseEdENS0_5list2INS0_5valueIS4_EENS_3argILi1EEEEEEE@Base 1.1.0
 _ZTIN5boost3_bi6bind_tIbPFbPN5cnoid12MultiSeqBaseEiENS0_5list2INS0_5valueIS4_EENS_3argILi1EEEEEEE@Base 1.1.0
 _ZTIN5boost3_bi6bind_tIbPFbPN5cnoid12MultiSeqItemINS2_13MultiValueSeqEEERKSsRSoENS0_5list3INS_3argILi1EEENSD_ILi2EEENSD_ILi3EEEEEEE@Base 1.1.0
 _ZTIN5boost3_bi6bind_tIbPFbPN5cnoid4ItemERKSsENS0_5list2INS0_5valueIS4_EENS_3argILi1EEEEEEE@Base 1.1.0
 _ZTIN5boost3_bi6bind_tIbPFbPN5cnoid9SceneItemERKSsRSoENS0_5list3INS_3argILi1EEENSB_ILi2EEENSB_ILi3EEEEEEE@Base 1.1.0
 _ZTIN5boost3_bi6bind_tIvNS_4_mfi3mf0IvN5cnoid10LazyCallerEEENS0_5list1INS0_5valueIPS5_EEEEEE@Base 1.1.0
 _ZTIN5boost3_bi6bind_tIvNS_4_mfi3mf0IvN5cnoid11TimeBarImplEEENS0_5list1INS0_5valueIPS5_EEEEEE@Base 1.1.0
 _ZTIN5boost3_bi6bind_tIvNS_4_mfi3mf0IvN5cnoid12GraphBarImplEEENS0_5list1INS0_5valueIPS5_EEEEEE@Base 1.1.0
 _ZTIN5boost3_bi6bind_tIvNS_4_mfi3mf0IvN5cnoid13SceneViewImplEEENS0_5list1INS0_5valueIPS5_EEEEEE@Base 1.1.0
 _ZTIN5boost3_bi6bind_tIvNS_4_mfi3mf0IvN5cnoid14MainWindowImplEEENS0_5list1INS0_5valueIPS5_EEEEEE@Base 1.1.0
 _ZTIN5boost3_bi6bind_tIvNS_4_mfi3mf0IvN5cnoid14ProjectManagerEEENS0_5list1INS0_5valueIPS5_EEEEEE@Base 1.1.0
 _ZTIN5boost3_bi6bind_tIvNS_4_mfi3mf0IvN5cnoid15GraphWidgetImplEEENS0_5list1INS0_5valueIPS5_EEEEEE@Base 1.1.0
 _ZTIN5boost3_bi6bind_tIvNS_4_mfi3mf0IvN5cnoid15ItemManagerImplEEENS0_5list1INS0_5valueIPS5_EEEEEE@Base 1.1.0
 _ZTIN5boost3_bi6bind_tIvNS_4_mfi3mf0IvN5cnoid15ToolBarAreaImplEEENS0_5list1INS0_5valueIPS5_EEEEEE@Base 1.1.0
 _ZTIN5boost3_bi6bind_tIvNS_4_mfi3mf0IvN5cnoid16ItemTreeViewImplEEENS0_5list1INS0_5valueIPS5_EEEEEE@Base 1.1.0
 _ZTIN5boost3_bi6bind_tIvNS_4_mfi3mf0IvN5cnoid17PluginManagerImplEEENS0_5list1INS0_5valueIPS5_EEEEEE@Base 1.1.0
 _ZTIN5boost3_bi6bind_tIvNS_4_mfi3mf0IvN5cnoid18ProjectManagerImplEEENS0_5list1INS0_5valueIPS5_EEEEEE@Base 1.1.0
 _ZTIN5boost3_bi6bind_tIvNS_4_mfi3mf0IvN5cnoid20ItemPropertyViewImplEEENS0_5list1INS0_5valueIPS5_EEEEEE@Base 1.1.0
 _ZTIN5boost3_bi6bind_tIvNS_4_mfi3mf0IvN5cnoid7AppImplEEENS0_5list1INS0_5valueIPS5_EEEEEE@Base 1.1.0
 _ZTIN5boost3_bi6bind_tIvNS_4_mfi3mf0IvN5cnoid7TimeBarEEENS0_5list1INS0_5valueIPS5_EEEEEE@Base 1.1.0
 _ZTIN5boost3_bi6bind_tIvNS_4_mfi3mf1IvN5cnoid11TimeBarImplEdEENS0_5list2INS0_5valueIPS5_EENS_3argILi1EEEEEEE@Base 1.1.0
 _ZTIN5boost3_bi6bind_tIvNS_4_mfi3mf1IvN5cnoid12GraphBarImplEbEENS0_5list2INS0_5valueIPS5_EENS_3argILi1EEEEEEE@Base 1.1.0
 _ZTIN5boost3_bi6bind_tIvNS_4_mfi3mf1IvN5cnoid12GraphBarImplEdEENS0_5list2INS0_5valueIPS5_EENS_3argILi1EEEEEEE@Base 1.1.0
 _ZTIN5boost3_bi6bind_tIvNS_4_mfi3mf1IvN5cnoid12GraphBarImplEiEENS0_5list2INS0_5valueIPS5_EENS_3argILi1EEEEEEE@Base 1.1.0
 _ZTIN5boost3_bi6bind_tIvNS_4_mfi3mf1IvN5cnoid13SceneViewImplEbEENS0_5list2INS0_5valueIPS5_EENS_3argILi1EEEEEEE@Base 1.1.0
 _ZTIN5boost3_bi6bind_tIvNS_4_mfi3mf1IvN5cnoid13SceneViewImplEiEENS0_5list2INS0_5valueIPS5_EENS_3argILi1EEEEEEE@Base 1.1.0
 _ZTIN5boost3_bi6bind_tIvNS_4_mfi3mf1IvN5cnoid14MainWindowImplEbEENS0_5list2INS0_5valueIPS5_EENS_3argILi1EEEEEEE@Base 1.1.0
 _ZTIN5boost3_bi6bind_tIvNS_4_mfi3mf1IvN5cnoid15GraphWidgetImplENS_10shared_ptrINS4_16GraphDataHandlerEEEEENS0_5list2INS0_5valueIPS5_EENSB_IS8_EEEEEE@Base 1.1.0
 _ZTIN5boost3_bi6bind_tIvNS_4_mfi3mf1IvN5cnoid15GraphWidgetImplEdEENS0_5list2INS0_5valueIPS5_EENS_3argILi1EEEEEEE@Base 1.1.0
 _ZTIN5boost3_bi6bind_tIvNS_4_mfi3mf1IvN5cnoid16ItemTreeViewImplEPNS4_4ItemEEENS0_5list2INS0_5valueIPS5_EENS_3argILi1EEEEEEE@Base 1.1.0
 _ZTIN5boost3_bi6bind_tIvNS_4_mfi3mf1IvN5cnoid17PluginManagerImplEPNS5_10PluginInfoEEENS0_5list2INS0_5valueIPS5_EENSA_IS7_EEEEEE@Base 1.1.0
 _ZTIN5boost3_bi6bind_tIvNS_4_mfi3mf1IvN5cnoid18ProjectManagerImplERNS_15program_options13variables_mapEEENS0_5list2INS0_5valueIPS5_EENS_3argILi1EEEEEEE@Base 1.1.0
 _ZTIN5boost3_bi6bind_tIvNS_4_mfi3mf1IvN5cnoid20ItemPropertyViewImplERKNS4_8ItemListINS4_4ItemEEEEENS0_5list2INS0_5valueIPS5_EENS_3argILi1EEEEEEE@Base 1.1.0
 _ZTIN5boost3_bi6bind_tIvNS_4_mfi3mf2IvN5cnoid13SceneViewImplEbbEENS0_5list3INS0_5valueIPS5_EENS_3argILi1EEENS8_IbEEEEEE@Base 1.1.0
 _ZTIN5boost3_bi6bind_tIvNS_4_mfi3mf2IvN5cnoid16ItemTreeViewImplEPNS4_4ItemEPNS4_12ItemListBaseEEENS0_5list3INS0_5valueIPS5_EENS_3argILi1EEENSC_IS9_EEEEEE@Base 1.1.0
 _ZTIN5boost3_bi6bind_tIvNS_4_mfi3mf2IvN5cnoid16ItemTreeViewImplEPNS4_4ItemEbEENS0_5list3INS0_5valueIPS5_EENS_3argILi1EEENSD_ILi2EEEEEEE@Base 1.1.0
 _ZTIN5boost3_bi6bind_tIvPFvNS_10shared_ptrIN5cnoid15ItemManagerImpl6LoaderEEEENS0_5list1INS0_5valueIS6_EEEEEE@Base 1.1.0
 _ZTIN5boost3_bi6bind_tIvPFvPN5cnoid15ItemManagerImpl17CreationPanelBaseEENS0_5list1INS0_5valueIS5_EEEEEE@Base 1.1.0
 _ZTIN5boost3any11placeholderE@Base 1.1.0
 _ZTIN5boost3any6holderIN5cnoid7TimeBar10LogicalSumEEE@Base 1.1.0
 _ZTIN5boost3any6holderIN5cnoid7TimeBar14LogicalProductEEE@Base 1.1.0
 _ZTIN5boost3any6holderINS_10last_valueIvEEEE@Base 1.1.0
 _ZTIN5boost3any6holderINS_8functionIFbdEEEEE@Base 1.1.0
 _ZTIN5boost3any6holderINS_8functionIFvP7QActionEEEEE@Base 1.1.0
 _ZTIN5boost3any6holderINS_8functionIFvPN5cnoid4ItemEEEEEE@Base 1.1.0
 _ZTIN5boost3any6holderINS_8functionIFvPN5cnoid4ItemEbEEEEE@Base 1.1.0
 _ZTIN5boost3any6holderINS_8functionIFvRKN5cnoid8ItemListINS3_4ItemEEEEEEEE@Base 1.1.0
 _ZTIN5boost3any6holderINS_8functionIFvRNS_15program_options13variables_mapEEEEEE@Base 1.1.0
 _ZTIN5boost3any6holderINS_8functionIFvbEEEEE@Base 1.1.0
 _ZTIN5boost3any6holderINS_8functionIFvdEEEEE@Base 1.1.0
 _ZTIN5boost3any6holderINS_8functionIFviEEEEE@Base 1.1.0
 _ZTIN5boost3any6holderINS_8functionIFvvEEEEE@Base 1.1.0
 _ZTIN5boost3any6holderISt6vectorISsSaISsEEEE@Base 1.1.0
 _ZTIN5boost6detail15sp_counted_baseE@Base 1.1.0
 _ZTIN5boost6detail17sp_counted_impl_pIN5cnoid10Vector3SeqEEE@Base 1.1.0
 _ZTIN5boost6detail17sp_counted_impl_pIN5cnoid10YamlReaderEEE@Base 1.1.0
 _ZTIN5boost6detail17sp_counted_impl_pIN5cnoid11ItemManager12FileFunctionINS2_12MultiSeqItemINS2_13MultiValueSeqEEEEEEE@Base 1.1.0
 _ZTIN5boost6detail17sp_counted_impl_pIN5cnoid11ItemManager12FileFunctionINS2_9SceneItemEEEEE@Base 1.1.0
 _ZTIN5boost6detail17sp_counted_impl_pIN5cnoid13MultiValueSeqEEE@Base 1.1.0
 _ZTIN5boost6detail17sp_counted_impl_pIN5cnoid15ItemManagerImpl5SaverEEE@Base 1.1.0
 _ZTIN5boost6detail17sp_counted_impl_pIN5cnoid15ItemManagerImpl6LoaderEEE@Base 1.1.0
 _ZTIN5boost6detail17sp_counted_impl_pIN5cnoid15ItemManagerImpl9ClassInfoEEE@Base 1.1.0
 _ZTIN5boost6detail17sp_counted_impl_pIN5cnoid15MultiAffine3SeqEEE@Base 1.1.0
 _ZTIN5boost6detail17sp_counted_impl_pIN5cnoid17PluginManagerImpl10PluginInfoEEE@Base 1.1.0
 _ZTIN5boost6detail17sp_counted_impl_pINS_11filesystem222basic_filesystem_errorINS2_10basic_pathISsNS2_11path_traitsEEEE5m_impEEE@Base 1.1.0
 _ZTIN5boost6detail17sp_counted_impl_pINS_11filesystem26detail11dir_itr_impINS2_10basic_pathISsNS2_11path_traitsEEEEEEE@Base 1.1.0
 _ZTIN5boost6detail17sp_counted_impl_pINS_7signals6detail9slot_base6data_tEEE@Base 1.1.0
 _ZTIN5boost6detail18sp_counted_impl_pdIPNS_2io18basic_altstringbufIcSt11char_traitsIcESaIcEEENS2_22basic_oaltstringstreamIcS5_S6_E5No_OpEEE@Base 1.1.0
 _ZTIN5boost6system12system_errorE@Base 1.1.0
 _ZTIN5boost6system14error_categoryE@Base 1.1.0
 _ZTIN5boost7bad_getE@Base 1.1.0
 _ZTIN5boost7signals6detail20group_bridge_compareISt4lessIiEiEE@Base 1.1.0
 _ZTIN5boost7signals9trackableE@Base 1.1.0
 _ZTIN5boost8functionIFbdEEE@Base 1.1.0
 _ZTIN5boost8functionIFvP7QActionEEE@Base 1.1.0
 _ZTIN5boost8functionIFvPN5cnoid4ItemEEEE@Base 1.1.0
 _ZTIN5boost8functionIFvPN5cnoid4ItemEbEEE@Base 1.1.0
 _ZTIN5boost8functionIFvRKN5cnoid8ItemListINS1_4ItemEEEEEE@Base 1.1.0
 _ZTIN5boost8functionIFvRNS_15program_options13variables_mapEEEE@Base 1.1.0
 _ZTIN5boost8functionIFvbEEE@Base 1.1.0
 _ZTIN5boost8functionIFvdEEE@Base 1.1.0
 _ZTIN5boost8functionIFviEEE@Base 1.1.0
 _ZTIN5boost8functionIFvvEEE@Base 1.1.0
 _ZTIN5boost9algorithm6detail13token_finderFINS1_10is_any_ofFIcEEEE@Base 1.1.0
 _ZTIN5boost9exceptionE@Base 1.1.0
 _ZTIN5boost9function0IvEE@Base 1.1.0
 _ZTIN5boost9function1IbdEE@Base 1.1.0
 _ZTIN5boost9function1IvP7QActionEE@Base 1.1.0
 _ZTIN5boost9function1IvPN5cnoid4ItemEEE@Base 1.1.0
 _ZTIN5boost9function1IvRKN5cnoid8ItemListINS1_4ItemEEEEE@Base 1.1.0
 _ZTIN5boost9function1IvRNS_15program_options13variables_mapEEE@Base 1.1.0
 _ZTIN5boost9function1IvbEE@Base 1.1.0
 _ZTIN5boost9function1IvdEE@Base 1.1.0
 _ZTIN5boost9function1IviEE@Base 1.1.0
 _ZTIN5boost9function2IvPN5cnoid4ItemEbEE@Base 1.1.0
 _ZTIN5boost9iostreams6detail16linked_streambufIcSt11char_traitsIcEEE@Base 1.1.0
 _ZTIN5boost9iostreams6deviceINS0_6outputEcEE@Base 1.1.0
 _ZTIN5cnoid10FolderItemE@Base 1.1.0
 _ZTIN5cnoid10HSeparatorE@Base 1.1.0
 _ZTIN5cnoid10LazySignalIN5boost6signalIFvvENS1_10last_valueIvEEiSt4lessIiENS1_8functionIS3_EEEEEE@Base 1.1.0
 _ZTIN5cnoid10MainWindowE@Base 1.1.0
 _ZTIN5cnoid10PushButtonE@Base 1.1.0
 _ZTIN5cnoid10ReferencedE@Base 1.1.0
 _ZTIN5cnoid10ToolButtonE@Base 1.1.0
 _ZTIN5cnoid10TreeWidgetE@Base 1.1.0
 _ZTIN5cnoid10VSeparatorE@Base 1.1.0
 _ZTIN5cnoid10YamlReader14MappingFactoryINS_7ArchiveEEE@Base 1.1.0
 _ZTIN5cnoid10YamlReader18MappingFactoryBaseE@Base 1.1.0
 _ZTIN5cnoid11ButtonGroupE@Base 1.1.0
 _ZTIN5cnoid11CrossMarkerE@Base 1.1.0
 _ZTIN5cnoid11GraphWidgetE@Base 1.1.0
 _ZTIN5cnoid11ItemManager11FactoryBaseE@Base 1.1.0
 _ZTIN5cnoid11ItemManager12FileFunctionINS_12MultiSeqItemINS_13MultiValueSeqEEEEE@Base 1.1.0
 _ZTIN5cnoid11ItemManager12FileFunctionINS_9SceneItemEEE@Base 1.1.0
 _ZTIN5cnoid11ItemManager16FileFunctionBaseE@Base 1.1.0
 _ZTIN5cnoid11ItemManager7FactoryINS_10FolderItemEEE@Base 1.1.0
 _ZTIN5cnoid11ItemManager7FactoryINS_12MultiSeqItemINS_13MultiValueSeqEEEEE@Base 1.1.0
 _ZTIN5cnoid11ItemManager7FactoryINS_12MultiSeqItemINS_15MultiAffine3SeqEEEEE@Base 1.1.0
 _ZTIN5cnoid11ItemManager7FactoryINS_14Vector3SeqItemEEE@Base 1.1.0
 _ZTIN5cnoid11ItemManager7FactoryINS_8RootItemEEE@Base 1.1.0
 _ZTIN5cnoid11ItemManager7FactoryINS_9SceneItemEEE@Base 1.1.0
 _ZTIN5cnoid11MenuManagerE@Base 1.1.0
 _ZTIN5cnoid11MessageViewE@Base 1.1.0
 _ZTIN5cnoid11RadioButtonE@Base 1.1.0
 _ZTIN5cnoid11SceneMarkerE@Base 1.1.0
 _ZTIN5cnoid11SceneObjectE@Base 1.1.0
 _ZTIN5cnoid11TimeBarImplE@Base 1.1.0
 _ZTIN5cnoid11ToolBarAreaE@Base 1.1.0
 _ZTIN5cnoid12ItemListBaseE@Base 1.1.0
 _ZTIN5cnoid12ItemTreeViewE@Base 1.1.0
 _ZTIN5cnoid12MultiSeqItemINS_13MultiValueSeqEEE@Base 1.1.0
 _ZTIN5cnoid12MultiSeqItemINS_15MultiAffine3SeqEEE@Base 1.1.0
 _ZTIN5cnoid12OsgOutlineFxE@Base 1.1.0
 _ZTIN5cnoid12SphereMarkerE@Base 1.1.0
 _ZTIN5cnoid12ToggleButtonE@Base 1.1.0
 _ZTIN5cnoid12VrmlGeometryE@Base 1.1.0
 _ZTIN5cnoid13DoubleSpinBoxE@Base 1.1.0
 _ZTIN5cnoid13HSeparatorBoxE@Base 1.1.0
 _ZTIN5cnoid13SceneViewImplE@Base 1.1.0
 _ZTIN5cnoid13VrmlTransformE@Base 1.1.0
 _ZTIN5cnoid14LazySignalBaseE@Base 1.1.0
 _ZTIN5cnoid14Vector3SeqItemE@Base 1.1.0
 _ZTIN5cnoid15AttitudeDraggerE@Base 1.1.0
 _ZTIN5cnoid15DoubleScrollBarE@Base 1.1.0
 _ZTIN5cnoid15ItemManagerImpl17CreationPanelBaseE@Base 1.1.0
 _ZTIN5cnoid15ItemManagerImpl6LoaderE@Base 1.1.0
 _ZTIN5cnoid15SceneGLDrawableE@Base 1.1.0
 _ZTIN5cnoid16ExtensionManager13PtrHolderBaseE@Base 1.1.0
 _ZTIN5cnoid16ExtensionManager9PtrHolderIN5boost13intrusive_ptrINS_8RootItemEEEEE@Base 1.1.0
 _ZTIN5cnoid16ExtensionManager9PtrHolderIPNS_14ProjectManagerEEE@Base 1.1.0
 _ZTIN5cnoid16ExtensionManager9PtrHolderIPNS_4ViewEEE@Base 1.1.0
 _ZTIN5cnoid16ExtensionManager9PtrHolderIPNS_7ToolBarEEE@Base 1.1.0
 _ZTIN5cnoid16ExtensionManagerE@Base 1.1.0
 _ZTIN5cnoid16ItemPropertyViewE@Base 1.1.0
 _ZTIN5cnoid16ItemTreeViewImplE@Base 1.1.0
 _ZTIN5cnoid16MultiSeqItemBaseE@Base 1.1.0
 _ZTIN5cnoid16NormalVisualizerE@Base 1.1.0
 _ZTIN5cnoid16ToggleToolButtonE@Base 1.1.0
 _ZTIN5cnoid17ArchiveSharedDataE@Base 1.1.0
 _ZTIN5cnoid17DescriptionDialogE@Base 1.1.0
 _ZTIN5cnoid17ItemCreationPanelE@Base 1.1.0
 _ZTIN5cnoid17VrmlProtoInstanceE@Base 1.1.0
 _ZTIN5cnoid18ItemSelectionModelE@Base 1.1.0
 _ZTIN5cnoid18VrmlIndexedFaceSetE@Base 1.1.0
 _ZTIN5cnoid18VrmlIndexedLineSetE@Base 1.1.0
 _ZTIN5cnoid19PutPropertyFunctionE@Base 1.1.0
 _ZTIN5cnoid20ItemPropertyViewImplE@Base 1.1.0
 _ZTIN5cnoid25MultiSeqItemCreationPanelE@Base 1.1.0
 _ZTIN5cnoid3AppE@Base 1.1.0
 _ZTIN5cnoid4ItemE@Base 1.1.0
 _ZTIN5cnoid4MenuE@Base 1.1.0
 _ZTIN5cnoid4ViewE@Base 1.1.0
 _ZTIN5cnoid6ActionE@Base 1.1.0
 _ZTIN5cnoid6DialogE@Base 1.1.0
 _ZTIN5cnoid6PluginE@Base 1.1.0
 _ZTIN5cnoid6SliderE@Base 1.1.0
 _ZTIN5cnoid7AppImplE@Base 1.1.0
 _ZTIN5cnoid7ArchiveE@Base 1.1.0
 _ZTIN5cnoid7FileBarE@Base 1.1.0
 _ZTIN5cnoid7InfoBarE@Base 1.1.0
 _ZTIN5cnoid7SceneGLE@Base 1.1.0
 _ZTIN5cnoid7SpinBoxE@Base 1.1.0
 _ZTIN5cnoid7TimeBar10LogicalSumE@Base 1.1.0
 _ZTIN5cnoid7TimeBar14LogicalProductE@Base 1.1.0
 _ZTIN5cnoid7TimeBarE@Base 1.1.0
 _ZTIN5cnoid7ToolBarE@Base 1.1.0
 _ZTIN5cnoid8BBMarkerE@Base 1.1.0
 _ZTIN5cnoid8CheckBoxE@Base 1.1.0
 _ZTIN5cnoid8ComboBoxE@Base 1.1.0
 _ZTIN5cnoid8GraphBarE@Base 1.1.0
 _ZTIN5cnoid8ItemListINS_4ItemEEE@Base 1.1.0
 _ZTIN5cnoid8LineEditE@Base 1.1.0
 _ZTIN5cnoid8RootItemE@Base 1.1.0
 _ZTIN5cnoid8TreeViewE@Base 1.1.0
 _ZTIN5cnoid9OsgViewerE@Base 1.1.0
 _ZTIN5cnoid9OsgWidgetE@Base 1.1.0
 _ZTIN5cnoid9SceneItemE@Base 1.1.0
 _ZTIN5cnoid9SceneViewE@Base 1.1.0
 _ZTIN5cnoid9ScrollBarE@Base 1.1.0
 _ZTIN5cnoid9VrmlShapeE@Base 1.1.0
 _ZTIN5osgGA16GUIActionAdapterE@Base 1.1.0
 _ZTIN9osgViewer22GraphicsWindowEmbeddedE@Base 1.1.0
 _ZTIPFbdE@Base 1.1.0
 _ZTIPFvRKN5cnoid8ItemListINS_4ItemEEEE@Base 1.1.0
 _ZTIPFvRN5boost15program_options13variables_mapEE@Base 1.1.0
 _ZTIPFvvE@Base 1.1.0
 _ZTISt12_Vector_baseISsSaISsEE@Base 1.1.0
 _ZTISt14unary_functionIP7QActionvE@Base 1.1.0
 _ZTISt14unary_functionIPN5cnoid4ItemEvE@Base 1.1.0
 _ZTISt14unary_functionIRKN5cnoid8ItemListINS0_4ItemEEEvE@Base 1.1.0
 _ZTISt14unary_functionIRN5boost15program_options13variables_mapEvE@Base 1.1.0
 _ZTISt14unary_functionIbvE@Base 1.1.0
 _ZTISt14unary_functionIdbE@Base 1.1.0
 _ZTISt14unary_functionIdvE@Base 1.1.0
 _ZTISt14unary_functionIivE@Base 1.1.0
 _ZTISt15binary_functionIPN5cnoid4ItemEbvE@Base 1.1.0
 _ZTISt6vectorISsSaISsEE@Base 1.1.0
 _ZTSFbdE@Base 1.1.0
 _ZTSFvRKN5cnoid8ItemListINS_4ItemEEEE@Base 1.1.0
 _ZTSFvRN5boost15program_options13variables_mapEE@Base 1.1.0
 _ZTSFvvE@Base 1.1.0
 _ZTSN3osg10IndexArrayE@Base 1.1.0
 _ZTSN3osg11MixinVectorINS_5Vec3fEEE@Base 1.1.0
 _ZTSN3osg11MixinVectorINS_5Vec4fEEE@Base 1.1.0
 _ZTSN3osg11MixinVectorIiEE@Base 1.1.0
 _ZTSN3osg11MixinVectorIjEE@Base 1.1.0
 _ZTSN3osg11MixinVectorItEE@Base 1.1.0
 _ZTSN3osg12DrawElementsE@Base 1.1.0
 _ZTSN3osg12NodeCallbackE@Base 1.1.0
 _ZTSN3osg13TemplateArrayINS_5Vec3fELNS_5Array4TypeE10ELi3ELi5126EEE@Base 1.1.0
 _ZTSN3osg13TemplateArrayINS_5Vec4fELNS_5Array4TypeE11ELi4ELi5126EEE@Base 1.1.0
 _ZTSN3osg18TemplateIndexArrayIiLNS_5Array4TypeE3ELi1ELi5124EEE@Base 1.1.0
 _ZTSN3osg18TemplateIndexArrayIjLNS_5Array4TypeE6ELi1ELi5125EEE@Base 1.1.0
 _ZTSN3osg8Drawable13EventCallbackE@Base 1.1.0
 _ZTSN5boost10last_valueIvEE@Base 1.1.0
 _ZTSN5boost11filesystem222basic_filesystem_errorINS0_10basic_pathISsNS0_11path_traitsEEEEE@Base 1.1.0
 _ZTSN5boost12bad_any_castE@Base 1.1.0
 _ZTSN5boost12noncopyable_11noncopyableE@Base 1.1.0
 _ZTSN5boost13function_baseE@Base 1.1.0
 _ZTSN5boost15program_options11typed_valueISt6vectorISsSaISsEEcEE@Base 1.1.0
 _ZTSN5boost15program_options14value_semanticE@Base 1.1.0
 _ZTSN5boost15program_options16typed_value_baseE@Base 1.1.0
 _ZTSN5boost15program_options20invalid_option_valueE@Base 1.1.0
 _ZTSN5boost15program_options22abstract_variables_mapE@Base 1.1.0
 _ZTSN5boost15program_options5errorE@Base 1.1.0
 _ZTSN5boost16bad_lexical_castE@Base 1.1.0
 _ZTSN5boost16base_from_memberINS_10shared_ptrINS_2io18basic_altstringbufIcSt11char_traitsIcESaIcEEEEELi0EEE@Base 1.1.0
 _ZTSN5boost16exception_detail10clone_baseE@Base 1.1.0
 _ZTSN5boost16exception_detail10clone_implINS0_19error_info_injectorINS_11filesystem222basic_filesystem_errorINS3_10basic_pathISsNS3_11path_traitsEEEEEEEEE@Base 1.1.0
 _ZTSN5boost16exception_detail10clone_implINS0_19error_info_injectorINS_12bad_any_castEEEEE@Base 1.1.0
 _ZTSN5boost16exception_detail10clone_implINS0_19error_info_injectorINS_15program_options20invalid_option_valueEEEEE@Base 1.1.0
 _ZTSN5boost16exception_detail10clone_implINS0_19error_info_injectorINS_17bad_function_callEEEEE@Base 1.1.0
 _ZTSN5boost16exception_detail10clone_implINS0_19error_info_injectorINS_2io12too_few_argsEEEEE@Base 1.1.0
 _ZTSN5boost16exception_detail10clone_implINS0_19error_info_injectorINS_2io13too_many_argsEEEEE@Base 1.1.0
 _ZTSN5boost16exception_detail10clone_implINS0_19error_info_injectorINS_2io17bad_format_stringEEEEE@Base 1.1.0
 _ZTSN5boost16exception_detail10clone_implINS0_19error_info_injectorINSt8ios_base7failureEEEEE@Base 1.1.0
 _ZTSN5boost16exception_detail19error_info_injectorINS_11filesystem222basic_filesystem_errorINS2_10basic_pathISsNS2_11path_traitsEEEEEEE@Base 1.1.0
 _ZTSN5boost16exception_detail19error_info_injectorINS_12bad_any_castEEE@Base 1.1.0
 _ZTSN5boost16exception_detail19error_info_injectorINS_15program_options20invalid_option_valueEEE@Base 1.1.0
 _ZTSN5boost16exception_detail19error_info_injectorINS_17bad_function_callEEE@Base 1.1.0
 _ZTSN5boost16exception_detail19error_info_injectorINS_2io12too_few_argsEEE@Base 1.1.0
 _ZTSN5boost16exception_detail19error_info_injectorINS_2io13too_many_argsEEE@Base 1.1.0
 _ZTSN5boost16exception_detail19error_info_injectorINS_2io17bad_format_stringEEE@Base 1.1.0
 _ZTSN5boost16exception_detail19error_info_injectorINSt8ios_base7failureEEE@Base 1.1.0
 _ZTSN5boost17bad_function_callE@Base 1.1.0
 _ZTSN5boost18escaped_list_errorE@Base 1.1.0
 _ZTSN5boost2io12format_errorE@Base 1.1.0
 _ZTSN5boost2io12too_few_argsE@Base 1.1.0
 _ZTSN5boost2io13too_many_argsE@Base 1.1.0
 _ZTSN5boost2io17bad_format_stringE@Base 1.1.0
 _ZTSN5boost2io18basic_altstringbufIcSt11char_traitsIcESaIcEEE@Base 1.1.0
 _ZTSN5boost2io22basic_oaltstringstreamIcSt11char_traitsIcESaIcEE5No_OpE@Base 1.1.0
 _ZTSN5boost2io22basic_oaltstringstreamIcSt11char_traitsIcESaIcEEE@Base 1.1.0
 _ZTSN5boost3_bi6bind_tIbNS_4_mfi3mf0Ib7QWidgetEENS0_5list1INS0_5valueIPN5cnoid10MainWindowEEEEEEE@Base 1.1.0
 _ZTSN5boost3_bi6bind_tIbNS_4_mfi3mf0IbN5cnoid14LazySignalBaseEEENS0_5list1INS0_5valueIPS5_EEEEEE@Base 1.1.0
 _ZTSN5boost3_bi6bind_tIbNS_4_mfi3mf1IbN5cnoid11TimeBarImplEdEENS0_5list2INS0_5valueIPS5_EENS_3argILi1EEEEEEE@Base 1.1.0
 _ZTSN5boost3_bi6bind_tIbNS_4_mfi3mf2IbN5cnoid12ItemTreeViewENS_13intrusive_ptrINS4_4ItemEEEbEENS0_5list3INS0_5valueIPS5_EENS_3argILi1EEENSB_IbEEEEEE@Base 1.1.0
 _ZTSN5boost3_bi6bind_tIbNS_4_mfi3mf3IbN5cnoid15GraphWidgetImplEdbbEENS0_5list4INS0_5valueIPS5_EENS_3argILi1EEENS8_IbEESD_EEEE@Base 1.1.0
 _ZTSN5boost3_bi6bind_tIbPFbPN5cnoid12MultiSeqBaseEdENS0_5list2INS0_5valueIS4_EENS_3argILi1EEEEEEE@Base 1.1.0
 _ZTSN5boost3_bi6bind_tIbPFbPN5cnoid12MultiSeqBaseEiENS0_5list2INS0_5valueIS4_EENS_3argILi1EEEEEEE@Base 1.1.0
 _ZTSN5boost3_bi6bind_tIbPFbPN5cnoid12MultiSeqItemINS2_13MultiValueSeqEEERKSsRSoENS0_5list3INS_3argILi1EEENSD_ILi2EEENSD_ILi3EEEEEEE@Base 1.1.0
 _ZTSN5boost3_bi6bind_tIbPFbPN5cnoid4ItemERKSsENS0_5list2INS0_5valueIS4_EENS_3argILi1EEEEEEE@Base 1.1.0
 _ZTSN5boost3_bi6bind_tIbPFbPN5cnoid9SceneItemERKSsRSoENS0_5list3INS_3argILi1EEENSB_ILi2EEENSB_ILi3EEEEEEE@Base 1.1.0
 _ZTSN5boost3_bi6bind_tIvNS_4_mfi3mf0IvN5cnoid10LazyCallerEEENS0_5list1INS0_5valueIPS5_EEEEEE@Base 1.1.0
 _ZTSN5boost3_bi6bind_tIvNS_4_mfi3mf0IvN5cnoid11TimeBarImplEEENS0_5list1INS0_5valueIPS5_EEEEEE@Base 1.1.0
 _ZTSN5boost3_bi6bind_tIvNS_4_mfi3mf0IvN5cnoid12GraphBarImplEEENS0_5list1INS0_5valueIPS5_EEEEEE@Base 1.1.0
 _ZTSN5boost3_bi6bind_tIvNS_4_mfi3mf0IvN5cnoid13SceneViewImplEEENS0_5list1INS0_5valueIPS5_EEEEEE@Base 1.1.0
 _ZTSN5boost3_bi6bind_tIvNS_4_mfi3mf0IvN5cnoid14MainWindowImplEEENS0_5list1INS0_5valueIPS5_EEEEEE@Base 1.1.0
 _ZTSN5boost3_bi6bind_tIvNS_4_mfi3mf0IvN5cnoid14ProjectManagerEEENS0_5list1INS0_5valueIPS5_EEEEEE@Base 1.1.0
 _ZTSN5boost3_bi6bind_tIvNS_4_mfi3mf0IvN5cnoid15GraphWidgetImplEEENS0_5list1INS0_5valueIPS5_EEEEEE@Base 1.1.0
 _ZTSN5boost3_bi6bind_tIvNS_4_mfi3mf0IvN5cnoid15ItemManagerImplEEENS0_5list1INS0_5valueIPS5_EEEEEE@Base 1.1.0
 _ZTSN5boost3_bi6bind_tIvNS_4_mfi3mf0IvN5cnoid15ToolBarAreaImplEEENS0_5list1INS0_5valueIPS5_EEEEEE@Base 1.1.0
 _ZTSN5boost3_bi6bind_tIvNS_4_mfi3mf0IvN5cnoid16ItemTreeViewImplEEENS0_5list1INS0_5valueIPS5_EEEEEE@Base 1.1.0
 _ZTSN5boost3_bi6bind_tIvNS_4_mfi3mf0IvN5cnoid17PluginManagerImplEEENS0_5list1INS0_5valueIPS5_EEEEEE@Base 1.1.0
 _ZTSN5boost3_bi6bind_tIvNS_4_mfi3mf0IvN5cnoid18ProjectManagerImplEEENS0_5list1INS0_5valueIPS5_EEEEEE@Base 1.1.0
 _ZTSN5boost3_bi6bind_tIvNS_4_mfi3mf0IvN5cnoid20ItemPropertyViewImplEEENS0_5list1INS0_5valueIPS5_EEEEEE@Base 1.1.0
 _ZTSN5boost3_bi6bind_tIvNS_4_mfi3mf0IvN5cnoid7AppImplEEENS0_5list1INS0_5valueIPS5_EEEEEE@Base 1.1.0
 _ZTSN5boost3_bi6bind_tIvNS_4_mfi3mf0IvN5cnoid7TimeBarEEENS0_5list1INS0_5valueIPS5_EEEEEE@Base 1.1.0
 _ZTSN5boost3_bi6bind_tIvNS_4_mfi3mf1IvN5cnoid11TimeBarImplEdEENS0_5list2INS0_5valueIPS5_EENS_3argILi1EEEEEEE@Base 1.1.0
 _ZTSN5boost3_bi6bind_tIvNS_4_mfi3mf1IvN5cnoid12GraphBarImplEbEENS0_5list2INS0_5valueIPS5_EENS_3argILi1EEEEEEE@Base 1.1.0
 _ZTSN5boost3_bi6bind_tIvNS_4_mfi3mf1IvN5cnoid12GraphBarImplEdEENS0_5list2INS0_5valueIPS5_EENS_3argILi1EEEEEEE@Base 1.1.0
 _ZTSN5boost3_bi6bind_tIvNS_4_mfi3mf1IvN5cnoid12GraphBarImplEiEENS0_5list2INS0_5valueIPS5_EENS_3argILi1EEEEEEE@Base 1.1.0
 _ZTSN5boost3_bi6bind_tIvNS_4_mfi3mf1IvN5cnoid13SceneViewImplEbEENS0_5list2INS0_5valueIPS5_EENS_3argILi1EEEEEEE@Base 1.1.0
 _ZTSN5boost3_bi6bind_tIvNS_4_mfi3mf1IvN5cnoid13SceneViewImplEiEENS0_5list2INS0_5valueIPS5_EENS_3argILi1EEEEEEE@Base 1.1.0
 _ZTSN5boost3_bi6bind_tIvNS_4_mfi3mf1IvN5cnoid14MainWindowImplEbEENS0_5list2INS0_5valueIPS5_EENS_3argILi1EEEEEEE@Base 1.1.0
 _ZTSN5boost3_bi6bind_tIvNS_4_mfi3mf1IvN5cnoid15GraphWidgetImplENS_10shared_ptrINS4_16GraphDataHandlerEEEEENS0_5list2INS0_5valueIPS5_EENSB_IS8_EEEEEE@Base 1.1.0
 _ZTSN5boost3_bi6bind_tIvNS_4_mfi3mf1IvN5cnoid15GraphWidgetImplEdEENS0_5list2INS0_5valueIPS5_EENS_3argILi1EEEEEEE@Base 1.1.0
 _ZTSN5boost3_bi6bind_tIvNS_4_mfi3mf1IvN5cnoid16ItemTreeViewImplEPNS4_4ItemEEENS0_5list2INS0_5valueIPS5_EENS_3argILi1EEEEEEE@Base 1.1.0
 _ZTSN5boost3_bi6bind_tIvNS_4_mfi3mf1IvN5cnoid17PluginManagerImplEPNS5_10PluginInfoEEENS0_5list2INS0_5valueIPS5_EENSA_IS7_EEEEEE@Base 1.1.0
 _ZTSN5boost3_bi6bind_tIvNS_4_mfi3mf1IvN5cnoid18ProjectManagerImplERNS_15program_options13variables_mapEEENS0_5list2INS0_5valueIPS5_EENS_3argILi1EEEEEEE@Base 1.1.0
 _ZTSN5boost3_bi6bind_tIvNS_4_mfi3mf1IvN5cnoid20ItemPropertyViewImplERKNS4_8ItemListINS4_4ItemEEEEENS0_5list2INS0_5valueIPS5_EENS_3argILi1EEEEEEE@Base 1.1.0
 _ZTSN5boost3_bi6bind_tIvNS_4_mfi3mf2IvN5cnoid13SceneViewImplEbbEENS0_5list3INS0_5valueIPS5_EENS_3argILi1EEENS8_IbEEEEEE@Base 1.1.0
 _ZTSN5boost3_bi6bind_tIvNS_4_mfi3mf2IvN5cnoid16ItemTreeViewImplEPNS4_4ItemEPNS4_12ItemListBaseEEENS0_5list3INS0_5valueIPS5_EENS_3argILi1EEENSC_IS9_EEEEEE@Base 1.1.0
 _ZTSN5boost3_bi6bind_tIvNS_4_mfi3mf2IvN5cnoid16ItemTreeViewImplEPNS4_4ItemEbEENS0_5list3INS0_5valueIPS5_EENS_3argILi1EEENSD_ILi2EEEEEEE@Base 1.1.0
 _ZTSN5boost3_bi6bind_tIvPFvNS_10shared_ptrIN5cnoid15ItemManagerImpl6LoaderEEEENS0_5list1INS0_5valueIS6_EEEEEE@Base 1.1.0
 _ZTSN5boost3_bi6bind_tIvPFvPN5cnoid15ItemManagerImpl17CreationPanelBaseEENS0_5list1INS0_5valueIS5_EEEEEE@Base 1.1.0
 _ZTSN5boost3any11placeholderE@Base 1.1.0
 _ZTSN5boost3any6holderIN5cnoid7TimeBar10LogicalSumEEE@Base 1.1.0
 _ZTSN5boost3any6holderIN5cnoid7TimeBar14LogicalProductEEE@Base 1.1.0
 _ZTSN5boost3any6holderINS_10last_valueIvEEEE@Base 1.1.0
 _ZTSN5boost3any6holderINS_8functionIFbdEEEEE@Base 1.1.0
 _ZTSN5boost3any6holderINS_8functionIFvP7QActionEEEEE@Base 1.1.0
 _ZTSN5boost3any6holderINS_8functionIFvPN5cnoid4ItemEEEEEE@Base 1.1.0
 _ZTSN5boost3any6holderINS_8functionIFvPN5cnoid4ItemEbEEEEE@Base 1.1.0
 _ZTSN5boost3any6holderINS_8functionIFvRKN5cnoid8ItemListINS3_4ItemEEEEEEEE@Base 1.1.0
 _ZTSN5boost3any6holderINS_8functionIFvRNS_15program_options13variables_mapEEEEEE@Base 1.1.0
 _ZTSN5boost3any6holderINS_8functionIFvbEEEEE@Base 1.1.0
 _ZTSN5boost3any6holderINS_8functionIFvdEEEEE@Base 1.1.0
 _ZTSN5boost3any6holderINS_8functionIFviEEEEE@Base 1.1.0
 _ZTSN5boost3any6holderINS_8functionIFvvEEEEE@Base 1.1.0
 _ZTSN5boost3any6holderISt6vectorISsSaISsEEEE@Base 1.1.0
 _ZTSN5boost6detail15sp_counted_baseE@Base 1.1.0
 _ZTSN5boost6detail17sp_counted_impl_pIN5cnoid10Vector3SeqEEE@Base 1.1.0
 _ZTSN5boost6detail17sp_counted_impl_pIN5cnoid10YamlReaderEEE@Base 1.1.0
 _ZTSN5boost6detail17sp_counted_impl_pIN5cnoid11ItemManager12FileFunctionINS2_12MultiSeqItemINS2_13MultiValueSeqEEEEEEE@Base 1.1.0
 _ZTSN5boost6detail17sp_counted_impl_pIN5cnoid11ItemManager12FileFunctionINS2_9SceneItemEEEEE@Base 1.1.0
 _ZTSN5boost6detail17sp_counted_impl_pIN5cnoid13MultiValueSeqEEE@Base 1.1.0
 _ZTSN5boost6detail17sp_counted_impl_pIN5cnoid15ItemManagerImpl5SaverEEE@Base 1.1.0
 _ZTSN5boost6detail17sp_counted_impl_pIN5cnoid15ItemManagerImpl6LoaderEEE@Base 1.1.0
 _ZTSN5boost6detail17sp_counted_impl_pIN5cnoid15ItemManagerImpl9ClassInfoEEE@Base 1.1.0
 _ZTSN5boost6detail17sp_counted_impl_pIN5cnoid15MultiAffine3SeqEEE@Base 1.1.0
 _ZTSN5boost6detail17sp_counted_impl_pIN5cnoid17PluginManagerImpl10PluginInfoEEE@Base 1.1.0
 _ZTSN5boost6detail17sp_counted_impl_pINS_11filesystem222basic_filesystem_errorINS2_10basic_pathISsNS2_11path_traitsEEEE5m_impEEE@Base 1.1.0
 _ZTSN5boost6detail17sp_counted_impl_pINS_11filesystem26detail11dir_itr_impINS2_10basic_pathISsNS2_11path_traitsEEEEEEE@Base 1.1.0
 _ZTSN5boost6detail17sp_counted_impl_pINS_7signals6detail9slot_base6data_tEEE@Base 1.1.0
 _ZTSN5boost6detail18sp_counted_impl_pdIPNS_2io18basic_altstringbufIcSt11char_traitsIcESaIcEEENS2_22basic_oaltstringstreamIcS5_S6_E5No_OpEEE@Base 1.1.0
 _ZTSN5boost6system12system_errorE@Base 1.1.0
 _ZTSN5boost6system14error_categoryE@Base 1.1.0
 _ZTSN5boost7bad_getE@Base 1.1.0
 _ZTSN5boost7signals6detail20group_bridge_compareISt4lessIiEiEE@Base 1.1.0
 _ZTSN5boost7signals9trackableE@Base 1.1.0
 _ZTSN5boost8functionIFbdEEE@Base 1.1.0
 _ZTSN5boost8functionIFvP7QActionEEE@Base 1.1.0
 _ZTSN5boost8functionIFvPN5cnoid4ItemEEEE@Base 1.1.0
 _ZTSN5boost8functionIFvPN5cnoid4ItemEbEEE@Base 1.1.0
 _ZTSN5boost8functionIFvRKN5cnoid8ItemListINS1_4ItemEEEEEE@Base 1.1.0
 _ZTSN5boost8functionIFvRNS_15program_options13variables_mapEEEE@Base 1.1.0
 _ZTSN5boost8functionIFvbEEE@Base 1.1.0
 _ZTSN5boost8functionIFvdEEE@Base 1.1.0
 _ZTSN5boost8functionIFviEEE@Base 1.1.0
 _ZTSN5boost8functionIFvvEEE@Base 1.1.0
 _ZTSN5boost9algorithm6detail13token_finderFINS1_10is_any_ofFIcEEEE@Base 1.1.0
 _ZTSN5boost9exceptionE@Base 1.1.0
 _ZTSN5boost9function0IvEE@Base 1.1.0
 _ZTSN5boost9function1IbdEE@Base 1.1.0
 _ZTSN5boost9function1IvP7QActionEE@Base 1.1.0
 _ZTSN5boost9function1IvPN5cnoid4ItemEEE@Base 1.1.0
 _ZTSN5boost9function1IvRKN5cnoid8ItemListINS1_4ItemEEEEE@Base 1.1.0
 _ZTSN5boost9function1IvRNS_15program_options13variables_mapEEE@Base 1.1.0
 _ZTSN5boost9function1IvbEE@Base 1.1.0
 _ZTSN5boost9function1IvdEE@Base 1.1.0
 _ZTSN5boost9function1IviEE@Base 1.1.0
 _ZTSN5boost9function2IvPN5cnoid4ItemEbEE@Base 1.1.0
 _ZTSN5boost9iostreams6detail16linked_streambufIcSt11char_traitsIcEEE@Base 1.1.0
 _ZTSN5boost9iostreams6deviceINS0_6outputEcEE@Base 1.1.0
 _ZTSN5cnoid10FolderItemE@Base 1.1.0
 _ZTSN5cnoid10HSeparatorE@Base 1.1.0
 _ZTSN5cnoid10LazySignalIN5boost6signalIFvvENS1_10last_valueIvEEiSt4lessIiENS1_8functionIS3_EEEEEE@Base 1.1.0
 _ZTSN5cnoid10MainWindowE@Base 1.1.0
 _ZTSN5cnoid10PushButtonE@Base 1.1.0
 _ZTSN5cnoid10ReferencedE@Base 1.1.0
 _ZTSN5cnoid10ToolButtonE@Base 1.1.0
 _ZTSN5cnoid10TreeWidgetE@Base 1.1.0
 _ZTSN5cnoid10VSeparatorE@Base 1.1.0
 _ZTSN5cnoid10YamlReader14MappingFactoryINS_7ArchiveEEE@Base 1.1.0
 _ZTSN5cnoid10YamlReader18MappingFactoryBaseE@Base 1.1.0
 _ZTSN5cnoid11ButtonGroupE@Base 1.1.0
 _ZTSN5cnoid11CrossMarkerE@Base 1.1.0
 _ZTSN5cnoid11GraphWidgetE@Base 1.1.0
 _ZTSN5cnoid11ItemManager11FactoryBaseE@Base 1.1.0
 _ZTSN5cnoid11ItemManager12FileFunctionINS_12MultiSeqItemINS_13MultiValueSeqEEEEE@Base 1.1.0
 _ZTSN5cnoid11ItemManager12FileFunctionINS_9SceneItemEEE@Base 1.1.0
 _ZTSN5cnoid11ItemManager16FileFunctionBaseE@Base 1.1.0
 _ZTSN5cnoid11ItemManager7FactoryINS_10FolderItemEEE@Base 1.1.0
 _ZTSN5cnoid11ItemManager7FactoryINS_12MultiSeqItemINS_13MultiValueSeqEEEEE@Base 1.1.0
 _ZTSN5cnoid11ItemManager7FactoryINS_12MultiSeqItemINS_15MultiAffine3SeqEEEEE@Base 1.1.0
 _ZTSN5cnoid11ItemManager7FactoryINS_14Vector3SeqItemEEE@Base 1.1.0
 _ZTSN5cnoid11ItemManager7FactoryINS_8RootItemEEE@Base 1.1.0
 _ZTSN5cnoid11ItemManager7FactoryINS_9SceneItemEEE@Base 1.1.0
 _ZTSN5cnoid11MenuManagerE@Base 1.1.0
 _ZTSN5cnoid11MessageViewE@Base 1.1.0
 _ZTSN5cnoid11RadioButtonE@Base 1.1.0
 _ZTSN5cnoid11SceneMarkerE@Base 1.1.0
 _ZTSN5cnoid11SceneObjectE@Base 1.1.0
 _ZTSN5cnoid11TimeBarImplE@Base 1.1.0
 _ZTSN5cnoid11ToolBarAreaE@Base 1.1.0
 _ZTSN5cnoid12ItemListBaseE@Base 1.1.0
 _ZTSN5cnoid12ItemTreeViewE@Base 1.1.0
 _ZTSN5cnoid12MultiSeqItemINS_13MultiValueSeqEEE@Base 1.1.0
 _ZTSN5cnoid12MultiSeqItemINS_15MultiAffine3SeqEEE@Base 1.1.0
 _ZTSN5cnoid12OsgOutlineFxE@Base 1.1.0
 _ZTSN5cnoid12SphereMarkerE@Base 1.1.0
 _ZTSN5cnoid12ToggleButtonE@Base 1.1.0
 _ZTSN5cnoid12VrmlGeometryE@Base 1.1.0
 _ZTSN5cnoid13DoubleSpinBoxE@Base 1.1.0
 _ZTSN5cnoid13HSeparatorBoxE@Base 1.1.0
 _ZTSN5cnoid13SceneViewImplE@Base 1.1.0
 _ZTSN5cnoid13VrmlTransformE@Base 1.1.0
 _ZTSN5cnoid14LazySignalBaseE@Base 1.1.0
 _ZTSN5cnoid14Vector3SeqItemE@Base 1.1.0
 _ZTSN5cnoid15AttitudeDraggerE@Base 1.1.0
 _ZTSN5cnoid15DoubleScrollBarE@Base 1.1.0
 _ZTSN5cnoid15ItemManagerImpl17CreationPanelBaseE@Base 1.1.0
 _ZTSN5cnoid15ItemManagerImpl6LoaderE@Base 1.1.0
 _ZTSN5cnoid15SceneGLDrawableE@Base 1.1.0
 _ZTSN5cnoid16ExtensionManager13PtrHolderBaseE@Base 1.1.0
 _ZTSN5cnoid16ExtensionManager9PtrHolderIN5boost13intrusive_ptrINS_8RootItemEEEEE@Base 1.1.0
 _ZTSN5cnoid16ExtensionManager9PtrHolderIPNS_14ProjectManagerEEE@Base 1.1.0
 _ZTSN5cnoid16ExtensionManager9PtrHolderIPNS_4ViewEEE@Base 1.1.0
 _ZTSN5cnoid16ExtensionManager9PtrHolderIPNS_7ToolBarEEE@Base 1.1.0
 _ZTSN5cnoid16ExtensionManagerE@Base 1.1.0
 _ZTSN5cnoid16ItemPropertyViewE@Base 1.1.0
 _ZTSN5cnoid16ItemTreeViewImplE@Base 1.1.0
 _ZTSN5cnoid16MultiSeqItemBaseE@Base 1.1.0
 _ZTSN5cnoid16NormalVisualizerE@Base 1.1.0
 _ZTSN5cnoid16ToggleToolButtonE@Base 1.1.0
 _ZTSN5cnoid17ArchiveSharedDataE@Base 1.1.0
 _ZTSN5cnoid17DescriptionDialogE@Base 1.1.0
 _ZTSN5cnoid17ItemCreationPanelE@Base 1.1.0
 _ZTSN5cnoid17VrmlProtoInstanceE@Base 1.1.0
 _ZTSN5cnoid18ItemSelectionModelE@Base 1.1.0
 _ZTSN5cnoid18VrmlIndexedFaceSetE@Base 1.1.0
 _ZTSN5cnoid18VrmlIndexedLineSetE@Base 1.1.0
 _ZTSN5cnoid19PutPropertyFunctionE@Base 1.1.0
 _ZTSN5cnoid20ItemPropertyViewImplE@Base 1.1.0
 _ZTSN5cnoid25MultiSeqItemCreationPanelE@Base 1.1.0
 _ZTSN5cnoid3AppE@Base 1.1.0
 _ZTSN5cnoid4ItemE@Base 1.1.0
 _ZTSN5cnoid4MenuE@Base 1.1.0
 _ZTSN5cnoid4ViewE@Base 1.1.0
 _ZTSN5cnoid6ActionE@Base 1.1.0
 _ZTSN5cnoid6DialogE@Base 1.1.0
 _ZTSN5cnoid6PluginE@Base 1.1.0
 _ZTSN5cnoid6SliderE@Base 1.1.0
 _ZTSN5cnoid7AppImplE@Base 1.1.0
 _ZTSN5cnoid7ArchiveE@Base 1.1.0
 _ZTSN5cnoid7FileBarE@Base 1.1.0
 _ZTSN5cnoid7InfoBarE@Base 1.1.0
 _ZTSN5cnoid7SceneGLE@Base 1.1.0
 _ZTSN5cnoid7SpinBoxE@Base 1.1.0
 _ZTSN5cnoid7TimeBar10LogicalSumE@Base 1.1.0
 _ZTSN5cnoid7TimeBar14LogicalProductE@Base 1.1.0
 _ZTSN5cnoid7TimeBarE@Base 1.1.0
 _ZTSN5cnoid7ToolBarE@Base 1.1.0
 _ZTSN5cnoid8BBMarkerE@Base 1.1.0
 _ZTSN5cnoid8CheckBoxE@Base 1.1.0
 _ZTSN5cnoid8ComboBoxE@Base 1.1.0
 _ZTSN5cnoid8GraphBarE@Base 1.1.0
 _ZTSN5cnoid8ItemListINS_4ItemEEE@Base 1.1.0
 _ZTSN5cnoid8LineEditE@Base 1.1.0
 _ZTSN5cnoid8RootItemE@Base 1.1.0
 _ZTSN5cnoid8TreeViewE@Base 1.1.0
 _ZTSN5cnoid9OsgViewerE@Base 1.1.0
 _ZTSN5cnoid9OsgWidgetE@Base 1.1.0
 _ZTSN5cnoid9SceneItemE@Base 1.1.0
 _ZTSN5cnoid9SceneViewE@Base 1.1.0
 _ZTSN5cnoid9ScrollBarE@Base 1.1.0
 _ZTSN5cnoid9VrmlShapeE@Base 1.1.0
 _ZTSN5osgGA16GUIActionAdapterE@Base 1.1.0
 _ZTSN9osgViewer22GraphicsWindowEmbeddedE@Base 1.1.0
 _ZTSPFbdE@Base 1.1.0
 _ZTSPFvRKN5cnoid8ItemListINS_4ItemEEEE@Base 1.1.0
 _ZTSPFvRN5boost15program_options13variables_mapEE@Base 1.1.0
 _ZTSPFvvE@Base 1.1.0
 _ZTSSs@Base 1.1.0
 _ZTSSt12_Vector_baseISsSaISsEE@Base 1.1.0
 _ZTSSt14unary_functionIP7QActionvE@Base 1.1.0
 _ZTSSt14unary_functionIPN5cnoid4ItemEvE@Base 1.1.0
 _ZTSSt14unary_functionIRKN5cnoid8ItemListINS0_4ItemEEEvE@Base 1.1.0
 _ZTSSt14unary_functionIRN5boost15program_options13variables_mapEvE@Base 1.1.0
 _ZTSSt14unary_functionIbvE@Base 1.1.0
 _ZTSSt14unary_functionIdbE@Base 1.1.0
 _ZTSSt14unary_functionIdvE@Base 1.1.0
 _ZTSSt14unary_functionIivE@Base 1.1.0
 _ZTSSt15binary_functionIPN5cnoid4ItemEbvE@Base 1.1.0
 _ZTSSt6vectorISsSaISsEE@Base 1.1.0
 _ZTTN3osg12NodeCallbackE@Base 1.1.0
 _ZTTN3osg8Drawable13EventCallbackE@Base 1.1.0
 _ZTTN5boost2io22basic_oaltstringstreamIcSt11char_traitsIcESaIcEEE@Base 1.1.0
 _ZTTN5cnoid9OsgViewerE@Base 1.1.0
 _ZTVN3osg10IndexArrayE@Base 1.1.0
 _ZTVN3osg11MixinVectorINS_5Vec3fEEE@Base 1.1.0
 _ZTVN3osg11MixinVectorINS_5Vec4fEEE@Base 1.1.0
 _ZTVN3osg11MixinVectorIiEE@Base 1.1.0
 _ZTVN3osg11MixinVectorIjEE@Base 1.1.0
 _ZTVN3osg11MixinVectorItEE@Base 1.1.0
 _ZTVN3osg12DrawElementsE@Base 1.1.0
 _ZTVN3osg12NodeCallbackE@Base 1.1.0
 _ZTVN3osg13TemplateArrayINS_5Vec3fELNS_5Array4TypeE10ELi3ELi5126EEE@Base 1.1.0
 _ZTVN3osg13TemplateArrayINS_5Vec4fELNS_5Array4TypeE11ELi4ELi5126EEE@Base 1.1.0
 _ZTVN3osg18TemplateIndexArrayIiLNS_5Array4TypeE3ELi1ELi5124EEE@Base 1.1.0
 _ZTVN3osg18TemplateIndexArrayIjLNS_5Array4TypeE6ELi1ELi5125EEE@Base 1.1.0
 _ZTVN3osg8Drawable13EventCallbackE@Base 1.1.0
 _ZTVN5boost11filesystem222basic_filesystem_errorINS0_10basic_pathISsNS0_11path_traitsEEEEE@Base 1.1.0
 _ZTVN5boost12bad_any_castE@Base 1.1.0
 _ZTVN5boost15program_options11typed_valueISt6vectorISsSaISsEEcEE@Base 1.1.0
 _ZTVN5boost15program_options14value_semanticE@Base 1.1.0
 _ZTVN5boost15program_options16typed_value_baseE@Base 1.1.0
 _ZTVN5boost15program_options20invalid_option_valueE@Base 1.1.0
 _ZTVN5boost15program_options22abstract_variables_mapE@Base 1.1.0
 _ZTVN5boost15program_options5errorE@Base 1.1.0
 _ZTVN5boost16exception_detail10clone_baseE@Base 1.1.0
 _ZTVN5boost16exception_detail10clone_implINS0_19error_info_injectorINS_11filesystem222basic_filesystem_errorINS3_10basic_pathISsNS3_11path_traitsEEEEEEEEE@Base 1.1.0
 _ZTVN5boost16exception_detail10clone_implINS0_19error_info_injectorINS_12bad_any_castEEEEE@Base 1.1.0
 _ZTVN5boost16exception_detail10clone_implINS0_19error_info_injectorINS_15program_options20invalid_option_valueEEEEE@Base 1.1.0
 _ZTVN5boost16exception_detail10clone_implINS0_19error_info_injectorINS_17bad_function_callEEEEE@Base 1.1.0
 _ZTVN5boost16exception_detail10clone_implINS0_19error_info_injectorINS_2io12too_few_argsEEEEE@Base 1.1.0
 _ZTVN5boost16exception_detail10clone_implINS0_19error_info_injectorINS_2io13too_many_argsEEEEE@Base 1.1.0
 _ZTVN5boost16exception_detail10clone_implINS0_19error_info_injectorINS_2io17bad_format_stringEEEEE@Base 1.1.0
 _ZTVN5boost16exception_detail10clone_implINS0_19error_info_injectorINSt8ios_base7failureEEEEE@Base 1.1.0
 _ZTVN5boost16exception_detail19error_info_injectorINS_11filesystem222basic_filesystem_errorINS2_10basic_pathISsNS2_11path_traitsEEEEEEE@Base 1.1.0
 _ZTVN5boost16exception_detail19error_info_injectorINS_12bad_any_castEEE@Base 1.1.0
 _ZTVN5boost16exception_detail19error_info_injectorINS_15program_options20invalid_option_valueEEE@Base 1.1.0
 _ZTVN5boost16exception_detail19error_info_injectorINS_17bad_function_callEEE@Base 1.1.0
 _ZTVN5boost16exception_detail19error_info_injectorINS_2io12too_few_argsEEE@Base 1.1.0
 _ZTVN5boost16exception_detail19error_info_injectorINS_2io13too_many_argsEEE@Base 1.1.0
 _ZTVN5boost16exception_detail19error_info_injectorINS_2io17bad_format_stringEEE@Base 1.1.0
 _ZTVN5boost16exception_detail19error_info_injectorINSt8ios_base7failureEEE@Base 1.1.0
 _ZTVN5boost17bad_function_callE@Base 1.1.0
 _ZTVN5boost18escaped_list_errorE@Base 1.1.0
 _ZTVN5boost2io12format_errorE@Base 1.1.0
 _ZTVN5boost2io12too_few_argsE@Base 1.1.0
 _ZTVN5boost2io13too_many_argsE@Base 1.1.0
 _ZTVN5boost2io17bad_format_stringE@Base 1.1.0
 _ZTVN5boost2io18basic_altstringbufIcSt11char_traitsIcESaIcEEE@Base 1.1.0
 _ZTVN5boost2io22basic_oaltstringstreamIcSt11char_traitsIcESaIcEEE@Base 1.1.0
 _ZTVN5boost3any11placeholderE@Base 1.1.0
 _ZTVN5boost3any6holderIN5cnoid7TimeBar10LogicalSumEEE@Base 1.1.0
 _ZTVN5boost3any6holderIN5cnoid7TimeBar14LogicalProductEEE@Base 1.1.0
 _ZTVN5boost3any6holderINS_10last_valueIvEEEE@Base 1.1.0
 _ZTVN5boost3any6holderINS_8functionIFbdEEEEE@Base 1.1.0
 _ZTVN5boost3any6holderINS_8functionIFvP7QActionEEEEE@Base 1.1.0
 _ZTVN5boost3any6holderINS_8functionIFvPN5cnoid4ItemEEEEEE@Base 1.1.0
 _ZTVN5boost3any6holderINS_8functionIFvPN5cnoid4ItemEbEEEEE@Base 1.1.0
 _ZTVN5boost3any6holderINS_8functionIFvRKN5cnoid8ItemListINS3_4ItemEEEEEEEE@Base 1.1.0
 _ZTVN5boost3any6holderINS_8functionIFvRNS_15program_options13variables_mapEEEEEE@Base 1.1.0
 _ZTVN5boost3any6holderINS_8functionIFvbEEEEE@Base 1.1.0
 _ZTVN5boost3any6holderINS_8functionIFvdEEEEE@Base 1.1.0
 _ZTVN5boost3any6holderINS_8functionIFviEEEEE@Base 1.1.0
 _ZTVN5boost3any6holderINS_8functionIFvvEEEEE@Base 1.1.0
 _ZTVN5boost3any6holderISt6vectorISsSaISsEEEE@Base 1.1.0
 _ZTVN5boost6detail15sp_counted_baseE@Base 1.1.0
 _ZTVN5boost6detail17sp_counted_impl_pIN5cnoid10Vector3SeqEEE@Base 1.1.0
 _ZTVN5boost6detail17sp_counted_impl_pIN5cnoid10YamlReaderEEE@Base 1.1.0
 _ZTVN5boost6detail17sp_counted_impl_pIN5cnoid11ItemManager12FileFunctionINS2_12MultiSeqItemINS2_13MultiValueSeqEEEEEEE@Base 1.1.0
 _ZTVN5boost6detail17sp_counted_impl_pIN5cnoid11ItemManager12FileFunctionINS2_9SceneItemEEEEE@Base 1.1.0
 _ZTVN5boost6detail17sp_counted_impl_pIN5cnoid13MultiValueSeqEEE@Base 1.1.0
 _ZTVN5boost6detail17sp_counted_impl_pIN5cnoid15ItemManagerImpl5SaverEEE@Base 1.1.0
 _ZTVN5boost6detail17sp_counted_impl_pIN5cnoid15ItemManagerImpl6LoaderEEE@Base 1.1.0
 _ZTVN5boost6detail17sp_counted_impl_pIN5cnoid15ItemManagerImpl9ClassInfoEEE@Base 1.1.0
 _ZTVN5boost6detail17sp_counted_impl_pIN5cnoid15MultiAffine3SeqEEE@Base 1.1.0
 _ZTVN5boost6detail17sp_counted_impl_pIN5cnoid17PluginManagerImpl10PluginInfoEEE@Base 1.1.0
 _ZTVN5boost6detail17sp_counted_impl_pINS_11filesystem222basic_filesystem_errorINS2_10basic_pathISsNS2_11path_traitsEEEE5m_impEEE@Base 1.1.0
 _ZTVN5boost6detail17sp_counted_impl_pINS_11filesystem26detail11dir_itr_impINS2_10basic_pathISsNS2_11path_traitsEEEEEEE@Base 1.1.0
 _ZTVN5boost6detail17sp_counted_impl_pINS_7signals6detail9slot_base6data_tEEE@Base 1.1.0
 _ZTVN5boost6detail18sp_counted_impl_pdIPNS_2io18basic_altstringbufIcSt11char_traitsIcESaIcEEENS2_22basic_oaltstringstreamIcS5_S6_E5No_OpEEE@Base 1.1.0
 _ZTVN5boost6system12system_errorE@Base 1.1.0
 _ZTVN5boost6system14error_categoryE@Base 1.1.0
 _ZTVN5boost7bad_getE@Base 1.1.0
 _ZTVN5boost9exceptionE@Base 1.1.0
 _ZTVN5boost9iostreams6detail16linked_streambufIcSt11char_traitsIcEEE@Base 1.1.0
 _ZTVN5cnoid10FolderItemE@Base 1.1.0
 _ZTVN5cnoid10HSeparatorE@Base 1.1.0
 _ZTVN5cnoid10LazySignalIN5boost6signalIFvvENS1_10last_valueIvEEiSt4lessIiENS1_8functionIS3_EEEEEE@Base 1.1.0
 _ZTVN5cnoid10MainWindowE@Base 1.1.0
 _ZTVN5cnoid10PushButtonE@Base 1.1.0
 _ZTVN5cnoid10ReferencedE@Base 1.1.0
 _ZTVN5cnoid10ToolButtonE@Base 1.1.0
 _ZTVN5cnoid10TreeWidgetE@Base 1.1.0
 _ZTVN5cnoid10VSeparatorE@Base 1.1.0
 _ZTVN5cnoid10YamlReader14MappingFactoryINS_7ArchiveEEE@Base 1.1.0
 _ZTVN5cnoid10YamlReader18MappingFactoryBaseE@Base 1.1.0
 _ZTVN5cnoid11ButtonGroupE@Base 1.1.0
 _ZTVN5cnoid11CrossMarkerE@Base 1.1.0
 _ZTVN5cnoid11GraphWidgetE@Base 1.1.0
 _ZTVN5cnoid11ItemManager11FactoryBaseE@Base 1.1.0
 _ZTVN5cnoid11ItemManager12FileFunctionINS_12MultiSeqItemINS_13MultiValueSeqEEEEE@Base 1.1.0
 _ZTVN5cnoid11ItemManager12FileFunctionINS_9SceneItemEEE@Base 1.1.0
 _ZTVN5cnoid11ItemManager16FileFunctionBaseE@Base 1.1.0
 _ZTVN5cnoid11ItemManager7FactoryINS_10FolderItemEEE@Base 1.1.0
 _ZTVN5cnoid11ItemManager7FactoryINS_12MultiSeqItemINS_13MultiValueSeqEEEEE@Base 1.1.0
 _ZTVN5cnoid11ItemManager7FactoryINS_12MultiSeqItemINS_15MultiAffine3SeqEEEEE@Base 1.1.0
 _ZTVN5cnoid11ItemManager7FactoryINS_14Vector3SeqItemEEE@Base 1.1.0
 _ZTVN5cnoid11ItemManager7FactoryINS_8RootItemEEE@Base 1.1.0
 _ZTVN5cnoid11ItemManager7FactoryINS_9SceneItemEEE@Base 1.1.0
 _ZTVN5cnoid11MenuManagerE@Base 1.1.0
 _ZTVN5cnoid11MessageViewE@Base 1.1.0
 _ZTVN5cnoid11RadioButtonE@Base 1.1.0
 _ZTVN5cnoid11SceneMarkerE@Base 1.1.0
 _ZTVN5cnoid11SceneObjectE@Base 1.1.0
 _ZTVN5cnoid11TimeBarImplE@Base 1.1.0
 _ZTVN5cnoid11ToolBarAreaE@Base 1.1.0
 _ZTVN5cnoid12ItemListBaseE@Base 1.1.0
 _ZTVN5cnoid12ItemTreeViewE@Base 1.1.0
 _ZTVN5cnoid12MultiSeqItemINS_13MultiValueSeqEEE@Base 1.1.0
 _ZTVN5cnoid12MultiSeqItemINS_15MultiAffine3SeqEEE@Base 1.1.0
 _ZTVN5cnoid12OsgOutlineFxE@Base 1.1.0
 _ZTVN5cnoid12SphereMarkerE@Base 1.1.0
 _ZTVN5cnoid12ToggleButtonE@Base 1.1.0
 _ZTVN5cnoid13DoubleSpinBoxE@Base 1.1.0
 _ZTVN5cnoid13HSeparatorBoxE@Base 1.1.0
 _ZTVN5cnoid13SceneViewImplE@Base 1.1.0
 _ZTVN5cnoid14LazySignalBaseE@Base 1.1.0
 _ZTVN5cnoid14Vector3SeqItemE@Base 1.1.0
 _ZTVN5cnoid15AttitudeDraggerE@Base 1.1.0
 _ZTVN5cnoid15DoubleScrollBarE@Base 1.1.0
 _ZTVN5cnoid15ItemManagerImpl17CreationPanelBaseE@Base 1.1.0
 _ZTVN5cnoid15ItemManagerImpl6LoaderE@Base 1.1.0
 _ZTVN5cnoid15SceneGLDrawableE@Base 1.1.0
 _ZTVN5cnoid16ExtensionManager13PtrHolderBaseE@Base 1.1.0
 _ZTVN5cnoid16ExtensionManager9PtrHolderIN5boost13intrusive_ptrINS_8RootItemEEEEE@Base 1.1.0
 _ZTVN5cnoid16ExtensionManager9PtrHolderIPNS_14ProjectManagerEEE@Base 1.1.0
 _ZTVN5cnoid16ExtensionManager9PtrHolderIPNS_4ViewEEE@Base 1.1.0
 _ZTVN5cnoid16ExtensionManager9PtrHolderIPNS_7ToolBarEEE@Base 1.1.0
 _ZTVN5cnoid16ExtensionManagerE@Base 1.1.0
 _ZTVN5cnoid16ItemPropertyViewE@Base 1.1.0
 _ZTVN5cnoid16ItemTreeViewImplE@Base 1.1.0
 _ZTVN5cnoid16MultiSeqItemBaseE@Base 1.1.0
 _ZTVN5cnoid16NormalVisualizerE@Base 1.1.0
 _ZTVN5cnoid16ToggleToolButtonE@Base 1.1.0
 _ZTVN5cnoid17ArchiveSharedDataE@Base 1.1.0
 _ZTVN5cnoid17DescriptionDialogE@Base 1.1.0
 _ZTVN5cnoid17ItemCreationPanelE@Base 1.1.0
 _ZTVN5cnoid18ItemSelectionModelE@Base 1.1.0
 _ZTVN5cnoid19PutPropertyFunctionE@Base 1.1.0
 _ZTVN5cnoid20ItemPropertyViewImplE@Base 1.1.0
 _ZTVN5cnoid25MultiSeqItemCreationPanelE@Base 1.1.0
 _ZTVN5cnoid3AppE@Base 1.1.0
 _ZTVN5cnoid4ItemE@Base 1.1.0
 _ZTVN5cnoid4MenuE@Base 1.1.0
 _ZTVN5cnoid4ViewE@Base 1.1.0
 _ZTVN5cnoid6ActionE@Base 1.1.0
 _ZTVN5cnoid6DialogE@Base 1.1.0
 _ZTVN5cnoid6PluginE@Base 1.1.0
 _ZTVN5cnoid6SliderE@Base 1.1.0
 _ZTVN5cnoid7AppImplE@Base 1.1.0
 _ZTVN5cnoid7ArchiveE@Base 1.1.0
 _ZTVN5cnoid7FileBarE@Base 1.1.0
 _ZTVN5cnoid7InfoBarE@Base 1.1.0
 _ZTVN5cnoid7SceneGLE@Base 1.1.0
 _ZTVN5cnoid7SpinBoxE@Base 1.1.0
 _ZTVN5cnoid7TimeBarE@Base 1.1.0
 _ZTVN5cnoid7ToolBarE@Base 1.1.0
 _ZTVN5cnoid8BBMarkerE@Base 1.1.0
 _ZTVN5cnoid8CheckBoxE@Base 1.1.0
 _ZTVN5cnoid8ComboBoxE@Base 1.1.0
 _ZTVN5cnoid8GraphBarE@Base 1.1.0
 _ZTVN5cnoid8ItemListINS_4ItemEEE@Base 1.1.0
 _ZTVN5cnoid8LineEditE@Base 1.1.0
 _ZTVN5cnoid8RootItemE@Base 1.1.0
 _ZTVN5cnoid8TreeViewE@Base 1.1.0
 _ZTVN5cnoid9OsgViewerE@Base 1.1.0
 _ZTVN5cnoid9OsgWidgetE@Base 1.1.0
 _ZTVN5cnoid9SceneItemE@Base 1.1.0
 _ZTVN5cnoid9SceneViewE@Base 1.1.0
 _ZTVN5cnoid9ScrollBarE@Base 1.1.0
 _ZTVN5osgGA16GUIActionAdapterE@Base 1.1.0
 _ZTVN9osgViewer22GraphicsWindowEmbeddedE@Base 1.1.0
 (optional=templinst)_ZZN5boost11filesystem212initial_pathINS0_10basic_pathISsNS0_11path_traitsEEEEERKT_vE9init_path@Base 1.1.0
 (optional=templinst)_ZZN5boost9function0IvE9assign_toINS_3_bi6bind_tIbNS_4_mfi3mf0Ib7QWidgetEENS3_5list1INS3_5valueIPN5cnoid10MainWindowEEEEEEEEEvT_E13stored_vtable@Base 1.1.0
 (optional=templinst)_ZZN5boost9function0IvE9assign_toINS_3_bi6bind_tIbNS_4_mfi3mf0IbN5cnoid14LazySignalBaseEEENS3_5list1INS3_5valueIPS8_EEEEEEEEvT_E13stored_vtable@Base 1.1.0
 (optional=templinst)_ZZN5boost9function0IvE9assign_toINS_3_bi6bind_tIvNS_4_mfi3mf0IvN5cnoid10LazyCallerEEENS3_5list1INS3_5valueIPS8_EEEEEEEEvT_E13stored_vtable@Base 1.1.0
 (optional=templinst)_ZZN5boost9function0IvE9assign_toINS_3_bi6bind_tIvNS_4_mfi3mf0IvN5cnoid13SceneViewImplEEENS3_5list1INS3_5valueIPS8_EEEEEEEEvT_E13stored_vtable@Base 1.1.0
 (optional=templinst)_ZZN5boost9function0IvE9assign_toINS_3_bi6bind_tIvNS_4_mfi3mf0IvN5cnoid14MainWindowImplEEENS3_5list1INS3_5valueIPS8_EEEEEEEEvT_E13stored_vtable@Base 1.1.0
 (optional=templinst)_ZZN5boost9function0IvE9assign_toINS_3_bi6bind_tIvNS_4_mfi3mf0IvN5cnoid15GraphWidgetImplEEENS3_5list1INS3_5valueIPS8_EEEEEEEEvT_E13stored_vtable@Base 1.1.0
 (optional=templinst)_ZZN5boost9function0IvE9assign_toINS_3_bi6bind_tIvNS_4_mfi3mf0IvN5cnoid15ItemManagerImplEEENS3_5list1INS3_5valueIPS8_EEEEEEEEvT_E13stored_vtable@Base 1.1.0
 (optional=templinst)_ZZN5boost9function0IvE9assign_toINS_3_bi6bind_tIvNS_4_mfi3mf0IvN5cnoid15ToolBarAreaImplEEENS3_5list1INS3_5valueIPS8_EEEEEEEEvT_E13stored_vtable@Base 1.1.0
 (optional=templinst)_ZZN5boost9function0IvE9assign_toINS_3_bi6bind_tIvNS_4_mfi3mf0IvN5cnoid16ItemTreeViewImplEEENS3_5list1INS3_5valueIPS8_EEEEEEEEvT_E13stored_vtable@Base 1.1.0
 (optional=templinst)_ZZN5boost9function0IvE9assign_toINS_3_bi6bind_tIvNS_4_mfi3mf0IvN5cnoid17PluginManagerImplEEENS3_5list1INS3_5valueIPS8_EEEEEEEEvT_E13stored_vtable@Base 1.1.0
 (optional=templinst)_ZZN5boost9function0IvE9assign_toINS_3_bi6bind_tIvNS_4_mfi3mf0IvN5cnoid18ProjectManagerImplEEENS3_5list1INS3_5valueIPS8_EEEEEEEEvT_E13stored_vtable@Base 1.1.0
 (optional=templinst)_ZZN5boost9function0IvE9assign_toINS_3_bi6bind_tIvNS_4_mfi3mf0IvN5cnoid20ItemPropertyViewImplEEENS3_5list1INS3_5valueIPS8_EEEEEEEEvT_E13stored_vtable@Base 1.1.0
 (optional=templinst)_ZZN5boost9function0IvE9assign_toINS_3_bi6bind_tIvNS_4_mfi3mf0IvN5cnoid7AppImplEEENS3_5list1INS3_5valueIPS8_EEEEEEEEvT_E13stored_vtable@Base 1.1.0
 (optional=templinst)_ZZN5boost9function0IvE9assign_toINS_3_bi6bind_tIvNS_4_mfi3mf0IvN5cnoid7TimeBarEEENS3_5list1INS3_5valueIPS8_EEEEEEEEvT_E13stored_vtable@Base 1.1.0
 (optional=templinst)_ZZN5boost9function0IvE9assign_toINS_3_bi6bind_tIvNS_4_mfi3mf1IvN5cnoid15GraphWidgetImplENS_10shared_ptrINS7_16GraphDataHandlerEEEEENS3_5list2INS3_5valueIPS8_EENSE_ISB_EEEEEEEEvT_E13stored_vtable@Base 1.1.0
 (optional=templinst)_ZZN5boost9function0IvE9assign_toINS_3_bi6bind_tIvNS_4_mfi3mf1IvN5cnoid17PluginManagerImplEPNS8_10PluginInfoEEENS3_5list2INS3_5valueIPS8_EENSD_ISA_EEEEEEEEvT_E13stored_vtable@Base 1.1.0
 (optional=templinst)_ZZN5boost9function0IvE9assign_toINS_3_bi6bind_tIvPFvNS_10shared_ptrIN5cnoid15ItemManagerImpl6LoaderEEEENS3_5list1INS3_5valueIS9_EEEEEEEEvT_E13stored_vtable@Base 1.1.0
 (optional=templinst)_ZZN5boost9function0IvE9assign_toINS_3_bi6bind_tIvPFvPN5cnoid15ItemManagerImpl17CreationPanelBaseEENS3_5list1INS3_5valueIS8_EEEEEEEEvT_E13stored_vtable@Base 1.1.0
 (optional=templinst)_ZZN5boost9function0IvE9assign_toIPFvvEEEvT_E13stored_vtable@Base 1.1.0
 (optional=templinst)_ZZN5boost9function1IbRKSsE9assign_toINS_3_bi6bind_tIbPFbPN5cnoid4ItemES2_ENS5_5list2INS5_5valueIS9_EENS_3argILi1EEEEEEEEEvT_E13stored_vtable@Base 1.1.0
 (optional=templinst)_ZZN5boost9function1IbdE9assign_toINS_3_bi6bind_tIbNS_4_mfi3mf3IbN5cnoid15GraphWidgetImplEdbbEENS3_5list4INS3_5valueIPS8_EENS_3argILi1EEENSB_IbEESG_EEEEEEvT_E13stored_vtable@Base 1.1.0
 (optional=templinst)_ZZN5boost9function1IbdE9assign_toINS_3_bi6bind_tIbPFbPN5cnoid12MultiSeqBaseEdENS3_5list2INS3_5valueIS7_EENS_3argILi1EEEEEEEEEvT_E13stored_vtable@Base 1.1.0
 (optional=templinst)_ZZN5boost9function1IbdE9assign_toIPFbdEEEvT_E13stored_vtable@Base 1.1.0
 (optional=templinst)_ZZN5boost9function1IbiE9assign_toINS_3_bi6bind_tIbPFbPN5cnoid12MultiSeqBaseEiENS3_5list2INS3_5valueIS7_EENS_3argILi1EEEEEEEEEvT_E13stored_vtable@Base 1.1.0
 (optional=templinst)_ZZN5boost9function1IvNS_13intrusive_ptrIN5cnoid4ItemEEEE9assign_toINS_3_bi6bind_tIbNS_4_mfi3mf2IbNS2_12ItemTreeViewES4_bEENS7_5list3INS7_5valueIPSB_EENS_3argILi1EEENSE_IbEEEEEEEEvT_E13stored_vtable@Base 1.1.0
 (optional=templinst)_ZZN5boost9function1IvP7QActionE9assign_toINS_3_bi6bind_tIvNS_4_mfi3mf0IvN5cnoid13SceneViewImplEEENS5_5list1INS5_5valueIPSA_EEEEEEEEvT_E13stored_vtable@Base 1.1.0
 (optional=templinst)_ZZN5boost9function1IvPN5cnoid4ItemEE9assign_toINS_3_bi6bind_tIvNS_4_mfi3mf1IvNS1_16ItemTreeViewImplES3_EENS6_5list2INS6_5valueIPSA_EENS_3argILi1EEEEEEEEEvT_E13stored_vtable@Base 1.1.0
 (optional=templinst)_ZZN5boost9function1IvPN5cnoid4ItemEE9assign_toINS_3_bi6bind_tIvNS_4_mfi3mf2IvNS1_16ItemTreeViewImplES3_PNS1_12ItemListBaseEEENS6_5list3INS6_5valueIPSA_EENS_3argILi1EEENSF_ISC_EEEEEEEEvT_E13stored_vtable@Base 1.1.0
 (optional=templinst)_ZZN5boost9function1IvRKN5cnoid8ItemListINS1_4ItemEEEE9assign_toINS_3_bi6bind_tIvNS_4_mfi3mf1IvNS1_20ItemPropertyViewImplES6_EENS9_5list2INS9_5valueIPSD_EENS_3argILi1EEEEEEEEEvT_E13stored_vtable@Base 1.1.0
 (optional=templinst)_ZZN5boost9function1IvRKN5cnoid8ItemListINS1_4ItemEEEE9assign_toIPFvS6_EEEvT_E13stored_vtable@Base 1.1.0
 (optional=templinst)_ZZN5boost9function1IvRNS_15program_options13variables_mapEE9assign_toINS_3_bi6bind_tIvNS_4_mfi3mf1IvN5cnoid18ProjectManagerImplES3_EENS6_5list2INS6_5valueIPSB_EENS_3argILi1EEEEEEEEEvT_E13stored_vtable@Base 1.1.0
 (optional=templinst)_ZZN5boost9function1IvRNS_15program_options13variables_mapEE9assign_toIPFvS3_EEEvT_E13stored_vtable@Base 1.1.0
 (optional=templinst)_ZZN5boost9function1IvbE9assign_toINS_3_bi6bind_tIvNS_4_mfi3mf0IvN5cnoid11TimeBarImplEEENS3_5list1INS3_5valueIPS8_EEEEEEEEvT_E13stored_vtable@Base 1.1.0
 (optional=templinst)_ZZN5boost9function1IvbE9assign_toINS_3_bi6bind_tIvNS_4_mfi3mf0IvN5cnoid12GraphBarImplEEENS3_5list1INS3_5valueIPS8_EEEEEEEEvT_E13stored_vtable@Base 1.1.0
 (optional=templinst)_ZZN5boost9function1IvbE9assign_toINS_3_bi6bind_tIvNS_4_mfi3mf0IvN5cnoid13SceneViewImplEEENS3_5list1INS3_5valueIPS8_EEEEEEEEvT_E13stored_vtable@Base 1.1.0
 (optional=templinst)_ZZN5boost9function1IvbE9assign_toINS_3_bi6bind_tIvNS_4_mfi3mf0IvN5cnoid14ProjectManagerEEENS3_5list1INS3_5valueIPS8_EEEEEEEEvT_E13stored_vtable@Base 1.1.0
 (optional=templinst)_ZZN5boost9function1IvbE9assign_toINS_3_bi6bind_tIvNS_4_mfi3mf0IvN5cnoid18ProjectManagerImplEEENS3_5list1INS3_5valueIPS8_EEEEEEEEvT_E13stored_vtable@Base 1.1.0
 (optional=templinst)_ZZN5boost9function1IvbE9assign_toINS_3_bi6bind_tIvNS_4_mfi3mf1IvN5cnoid12GraphBarImplEbEENS3_5list2INS3_5valueIPS8_EENS_3argILi1EEEEEEEEEvT_E13stored_vtable@Base 1.1.0
 (optional=templinst)_ZZN5boost9function1IvbE9assign_toINS_3_bi6bind_tIvNS_4_mfi3mf1IvN5cnoid13SceneViewImplEbEENS3_5list2INS3_5valueIPS8_EENS_3argILi1EEEEEEEEEvT_E13stored_vtable@Base 1.1.0
 (optional=templinst)_ZZN5boost9function1IvbE9assign_toINS_3_bi6bind_tIvNS_4_mfi3mf1IvN5cnoid14MainWindowImplEbEENS3_5list2INS3_5valueIPS8_EENS_3argILi1EEEEEEEEEvT_E13stored_vtable@Base 1.1.0
 (optional=templinst)_ZZN5boost9function1IvbE9assign_toINS_3_bi6bind_tIvNS_4_mfi3mf2IvN5cnoid13SceneViewImplEbbEENS3_5list3INS3_5valueIPS8_EENS_3argILi1EEENSB_IbEEEEEEEEvT_E13stored_vtable@Base 1.1.0
 (optional=templinst)_ZZN5boost9function1IvdE9assign_toINS_3_bi6bind_tIvNS_4_mfi3mf0IvN5cnoid11TimeBarImplEEENS3_5list1INS3_5valueIPS8_EEEEEEEEvT_E13stored_vtable@Base 1.1.0
 (optional=templinst)_ZZN5boost9function1IvdE9assign_toINS_3_bi6bind_tIvNS_4_mfi3mf0IvN5cnoid13SceneViewImplEEENS3_5list1INS3_5valueIPS8_EEEEEEEEvT_E13stored_vtable@Base 1.1.0
 (optional=templinst)_ZZN5boost9function1IvdE9assign_toINS_3_bi6bind_tIvNS_4_mfi3mf1IvN5cnoid11TimeBarImplEdEENS3_5list2INS3_5valueIPS8_EENS_3argILi1EEEEEEEEEvT_E13stored_vtable@Base 1.1.0
 (optional=templinst)_ZZN5boost9function1IvdE9assign_toINS_3_bi6bind_tIvNS_4_mfi3mf1IvN5cnoid12GraphBarImplEdEENS3_5list2INS3_5valueIPS8_EENS_3argILi1EEEEEEEEEvT_E13stored_vtable@Base 1.1.0
 (optional=templinst)_ZZN5boost9function1IvdE9assign_toINS_3_bi6bind_tIvNS_4_mfi3mf1IvN5cnoid15GraphWidgetImplEdEENS3_5list2INS3_5valueIPS8_EENS_3argILi1EEEEEEEEEvT_E13stored_vtable@Base 1.1.0
 (optional=templinst)_ZZN5boost9function1IviE9assign_toINS_3_bi6bind_tIbNS_4_mfi3mf1IbN5cnoid11TimeBarImplEdEENS3_5list2INS3_5valueIPS8_EENS_3argILi1EEEEEEEEEvT_E13stored_vtable@Base 1.1.0
 (optional=templinst)_ZZN5boost9function1IviE9assign_toINS_3_bi6bind_tIvNS_4_mfi3mf0IvN5cnoid11TimeBarImplEEENS3_5list1INS3_5valueIPS8_EEEEEEEEvT_E13stored_vtable@Base 1.1.0
 (optional=templinst)_ZZN5boost9function1IviE9assign_toINS_3_bi6bind_tIvNS_4_mfi3mf0IvN5cnoid12GraphBarImplEEENS3_5list1INS3_5valueIPS8_EEEEEEEEvT_E13stored_vtable@Base 1.1.0
 (optional=templinst)_ZZN5boost9function1IviE9assign_toINS_3_bi6bind_tIvNS_4_mfi3mf1IvN5cnoid12GraphBarImplEiEENS3_5list2INS3_5valueIPS8_EENS_3argILi1EEEEEEEEEvT_E13stored_vtable@Base 1.1.0
 (optional=templinst)_ZZN5boost9function1IviE9assign_toINS_3_bi6bind_tIvNS_4_mfi3mf1IvN5cnoid13SceneViewImplEiEENS3_5list2INS3_5valueIPS8_EENS_3argILi1EEEEEEEEEvT_E13stored_vtable@Base 1.1.0
 (optional=templinst)_ZZN5boost9function2INS_14iterator_rangeIN9__gnu_cxx17__normal_iteratorIPKcSsEEEES6_S6_E9assign_toINS_9algorithm6detail13token_finderFINSB_10is_any_ofFIcEEEEEEvT_E13stored_vtable@Base 1.1.0
 (optional=templinst)_ZZN5boost9function2IbNS_7signals6detail12stored_groupES3_E9assign_toINS2_20group_bridge_compareISt4lessIiEiEEEEvT_E13stored_vtable@Base 1.1.0
 (optional=templinst)_ZZN5boost9function2IvPN5cnoid4ItemEbE9assign_toINS_3_bi6bind_tIvNS_4_mfi3mf2IvNS1_16ItemTreeViewImplES3_bEENS6_5list3INS6_5valueIPSA_EENS_3argILi1EEENSG_ILi2EEEEEEEEEvT_E13stored_vtable@Base 1.1.0
 (optional=templinst)_ZZN5boost9function4IbPN5cnoid12MultiSeqItemINS1_13MultiValueSeqEEERKSsRSoPNS1_4ItemEE9assign_toINS_3_bi6bind_tIbPFbS5_S7_S8_ENSD_5list3INS_3argILi1EEENSI_ILi2EEENSI_ILi3EEEEEEEEEvT_E13stored_vtable@Base 1.1.0
 (optional=templinst)_ZZN5boost9function4IbPN5cnoid9SceneItemERKSsRSoPNS1_4ItemEE9assign_toINS_3_bi6bind_tIbPFbS3_S5_S6_ENSB_5list3INS_3argILi1EEENSG_ILi2EEENSG_ILi3EEEEEEEEEvT_E13stored_vtable@Base 1.1.0
 _ZplRK7QStringPKc@Base 1.1.0
 (c++)"construction vtable for osg::View-in-cnoid::OsgViewer@Base" 1.1.0
 (c++)"construction vtable for osgViewer::View-in-cnoid::OsgViewer@Base" 1.1.0
 (c++)"construction vtable for osgViewer::Viewer-in-cnoid::OsgViewer@Base" 1.1.0
 (c++)"construction vtable for osgViewer::ViewerBase-in-cnoid::OsgViewer@Base" 1.1.0
 (c++)"construction vtable for std::basic_ostream<char, std::char_traits<char> >-in-boost::io::basic_oaltstringstream<char, std::char_traits<char>, std::allocator<char> >@Base" 1.1.0
 (c++)"non-virtual thunk to QCheckBox::~QCheckBox()@Base" 1.1.0
 (c++)"non-virtual thunk to QRadioButton::~QRadioButton()@Base" 1.1.0
 (c++)"non-virtual thunk to boost::exception_detail::clone_impl<boost::exception_detail::error_info_injector<boost::bad_any_cast> >::clone() const@Base" 1.1.0
 (c++)"non-virtual thunk to boost::exception_detail::clone_impl<boost::exception_detail::error_info_injector<boost::bad_any_cast> >::rethrow() const@Base" 1.1.0
 (c++)"non-virtual thunk to boost::exception_detail::clone_impl<boost::exception_detail::error_info_injector<boost::bad_any_cast> >::~clone_impl()@Base" 1.1.0
 (c++)"non-virtual thunk to boost::exception_detail::clone_impl<boost::exception_detail::error_info_injector<boost::bad_function_call> >::clone() const@Base" 1.1.0
 (c++)"non-virtual thunk to boost::exception_detail::clone_impl<boost::exception_detail::error_info_injector<boost::bad_function_call> >::rethrow() const@Base" 1.1.0
 (c++)"non-virtual thunk to boost::exception_detail::clone_impl<boost::exception_detail::error_info_injector<boost::bad_function_call> >::~clone_impl()@Base" 1.1.0
 (c++)"non-virtual thunk to boost::exception_detail::clone_impl<boost::exception_detail::error_info_injector<boost::filesystem2::basic_filesystem_error<boost::filesystem2::basic_path<std::basic_string<char, std::char_traits<char>, std::allocator<char> >, boost::filesystem2::path_traits> > > >::clone() const@Base" 1.1.0
 (c++)"non-virtual thunk to boost::exception_detail::clone_impl<boost::exception_detail::error_info_injector<boost::filesystem2::basic_filesystem_error<boost::filesystem2::basic_path<std::basic_string<char, std::char_traits<char>, std::allocator<char> >, boost::filesystem2::path_traits> > > >::rethrow() const@Base" 1.1.0
 (c++)"non-virtual thunk to boost::exception_detail::clone_impl<boost::exception_detail::error_info_injector<boost::filesystem2::basic_filesystem_error<boost::filesystem2::basic_path<std::basic_string<char, std::char_traits<char>, std::allocator<char> >, boost::filesystem2::path_traits> > > >::~clone_impl()@Base" 1.1.0
 (c++)"non-virtual thunk to boost::exception_detail::clone_impl<boost::exception_detail::error_info_injector<boost::io::bad_format_string> >::clone() const@Base" 1.1.0
 (c++)"non-virtual thunk to boost::exception_detail::clone_impl<boost::exception_detail::error_info_injector<boost::io::bad_format_string> >::rethrow() const@Base" 1.1.0
 (c++)"non-virtual thunk to boost::exception_detail::clone_impl<boost::exception_detail::error_info_injector<boost::io::bad_format_string> >::~clone_impl()@Base" 1.1.0
 (c++)"non-virtual thunk to boost::exception_detail::clone_impl<boost::exception_detail::error_info_injector<boost::io::too_few_args> >::clone() const@Base" 1.1.0
 (c++)"non-virtual thunk to boost::exception_detail::clone_impl<boost::exception_detail::error_info_injector<boost::io::too_few_args> >::rethrow() const@Base" 1.1.0
 (c++)"non-virtual thunk to boost::exception_detail::clone_impl<boost::exception_detail::error_info_injector<boost::io::too_few_args> >::~clone_impl()@Base" 1.1.0
 (c++)"non-virtual thunk to boost::exception_detail::clone_impl<boost::exception_detail::error_info_injector<boost::io::too_many_args> >::clone() const@Base" 1.1.0
 (c++)"non-virtual thunk to boost::exception_detail::clone_impl<boost::exception_detail::error_info_injector<boost::io::too_many_args> >::rethrow() const@Base" 1.1.0
 (c++)"non-virtual thunk to boost::exception_detail::clone_impl<boost::exception_detail::error_info_injector<boost::io::too_many_args> >::~clone_impl()@Base" 1.1.0
 (c++)"non-virtual thunk to boost::exception_detail::clone_impl<boost::exception_detail::error_info_injector<boost::program_options::invalid_option_value> >::clone() const@Base" 1.1.0
 (c++)"non-virtual thunk to boost::exception_detail::clone_impl<boost::exception_detail::error_info_injector<boost::program_options::invalid_option_value> >::rethrow() const@Base" 1.1.0
 (c++)"non-virtual thunk to boost::exception_detail::clone_impl<boost::exception_detail::error_info_injector<boost::program_options::invalid_option_value> >::~clone_impl()@Base" 1.1.0
 (c++)"non-virtual thunk to boost::exception_detail::clone_impl<boost::exception_detail::error_info_injector<std::ios_base::failure> >::clone() const@Base" 1.1.0
 (c++)"non-virtual thunk to boost::exception_detail::clone_impl<boost::exception_detail::error_info_injector<std::ios_base::failure> >::rethrow() const@Base" 1.1.0
 (c++)"non-virtual thunk to boost::exception_detail::clone_impl<boost::exception_detail::error_info_injector<std::ios_base::failure> >::~clone_impl()@Base" 1.1.0
 (c++)"non-virtual thunk to boost::exception_detail::error_info_injector<boost::bad_any_cast>::~error_info_injector()@Base" 1.1.0
 (c++)"non-virtual thunk to boost::exception_detail::error_info_injector<boost::bad_function_call>::~error_info_injector()@Base" 1.1.0
 (c++)"non-virtual thunk to boost::exception_detail::error_info_injector<boost::filesystem2::basic_filesystem_error<boost::filesystem2::basic_path<std::basic_string<char, std::char_traits<char>, std::allocator<char> >, boost::filesystem2::path_traits> > >::~error_info_injector()@Base" 1.1.0
 (c++)"non-virtual thunk to boost::exception_detail::error_info_injector<boost::io::bad_format_string>::~error_info_injector()@Base" 1.1.0
 (c++)"non-virtual thunk to boost::exception_detail::error_info_injector<boost::io::too_few_args>::~error_info_injector()@Base" 1.1.0
 (c++)"non-virtual thunk to boost::exception_detail::error_info_injector<boost::io::too_many_args>::~error_info_injector()@Base" 1.1.0
 (c++)"non-virtual thunk to boost::exception_detail::error_info_injector<boost::program_options::invalid_option_value>::~error_info_injector()@Base" 1.1.0
 (c++)"non-virtual thunk to boost::exception_detail::error_info_injector<std::ios_base::failure>::~error_info_injector()@Base" 1.1.0
 (c++)"non-virtual thunk to boost::program_options::typed_value<std::vector<std::basic_string<char, std::char_traits<char>, std::allocator<char> >, std::allocator<std::basic_string<char, std::char_traits<char>, std::allocator<char> > > >, char>::value_type() const@Base" 1.1.0
 (c++)"non-virtual thunk to boost::program_options::typed_value<std::vector<std::basic_string<char, std::char_traits<char>, std::allocator<char> >, std::allocator<std::basic_string<char, std::char_traits<char>, std::allocator<char> > > >, char>::~typed_value()@Base" 1.1.0
 (c++)"non-virtual thunk to cnoid::CheckBox::~CheckBox()@Base" 1.1.0
 (c++)"non-virtual thunk to cnoid::ComboBox::~ComboBox()@Base" 1.1.0
 (c++)"non-virtual thunk to cnoid::DescriptionDialog::~DescriptionDialog()@Base" 1.1.0
 (c++)"non-virtual thunk to cnoid::Dialog::~Dialog()@Base" 1.1.0
 (c++)"non-virtual thunk to cnoid::DoubleScrollBar::~DoubleScrollBar()@Base" 1.1.0
 (c++)"non-virtual thunk to cnoid::DoubleSpinBox::~DoubleSpinBox()@Base" 1.1.0
 (c++)"non-virtual thunk to cnoid::FileBar::~FileBar()@Base" 1.1.0
 (c++)"non-virtual thunk to cnoid::GraphBar::~GraphBar()@Base" 1.1.0
 (c++)"non-virtual thunk to cnoid::GraphWidget::~GraphWidget()@Base" 1.1.0
 (c++)"non-virtual thunk to cnoid::HSeparator::~HSeparator()@Base" 1.1.0
 (c++)"non-virtual thunk to cnoid::HSeparatorBox::~HSeparatorBox()@Base" 1.1.0
 (c++)"non-virtual thunk to cnoid::InfoBar::~InfoBar()@Base" 1.1.0
 (c++)"non-virtual thunk to cnoid::ItemCreationPanel::~ItemCreationPanel()@Base" 1.1.0
 (c++)"non-virtual thunk to cnoid::ItemManagerImpl::CreationPanelBase::~CreationPanelBase()@Base" 1.1.0
 (c++)"non-virtual thunk to cnoid::ItemPropertyView::~ItemPropertyView()@Base" 1.1.0
 (c++)"non-virtual thunk to cnoid::ItemTreeView::~ItemTreeView()@Base" 1.1.0
 (c++)"non-virtual thunk to cnoid::ItemTreeViewImpl::~ItemTreeViewImpl()@Base" 1.1.0
 (c++)"non-virtual thunk to cnoid::LineEdit::~LineEdit()@Base" 1.1.0
 (c++)"non-virtual thunk to cnoid::MainWindow::~MainWindow()@Base" 1.1.0
 (c++)"non-virtual thunk to cnoid::Menu::~Menu()@Base" 1.1.0
 (c++)"non-virtual thunk to cnoid::MessageView::~MessageView()@Base" 1.1.0
 (c++)"non-virtual thunk to cnoid::MultiSeqItemCreationPanel::~MultiSeqItemCreationPanel()@Base" 1.1.0
 (c++)"non-virtual thunk to cnoid::OsgViewer::paintGL()@Base" 1.1.0
 (c++)"non-virtual thunk to cnoid::OsgViewer::requestRedraw()@Base" 1.1.0
 (c++)"non-virtual thunk to cnoid::OsgViewer::~OsgViewer()@Base" 1.1.0
 (c++)"non-virtual thunk to cnoid::OsgWidget::~OsgWidget()@Base" 1.1.0
 (c++)"non-virtual thunk to cnoid::PushButton::~PushButton()@Base" 1.1.0
 (c++)"non-virtual thunk to cnoid::RadioButton::~RadioButton()@Base" 1.1.0
 (c++)"non-virtual thunk to cnoid::SceneView::~SceneView()@Base" 1.1.0
 (c++)"non-virtual thunk to cnoid::ScrollBar::~ScrollBar()@Base" 1.1.0
 (c++)"non-virtual thunk to cnoid::Slider::~Slider()@Base" 1.1.0
 (c++)"non-virtual thunk to cnoid::SpinBox::~SpinBox()@Base" 1.1.0
 (c++)"non-virtual thunk to cnoid::TimeBar::~TimeBar()@Base" 1.1.0
 (c++)"non-virtual thunk to cnoid::ToggleButton::~ToggleButton()@Base" 1.1.0
 (c++)"non-virtual thunk to cnoid::ToggleToolButton::~ToggleToolButton()@Base" 1.1.0
 (c++)"non-virtual thunk to cnoid::ToolBar::~ToolBar()@Base" 1.1.0
 (c++)"non-virtual thunk to cnoid::ToolBarArea::~ToolBarArea()@Base" 1.1.0
 (c++)"non-virtual thunk to cnoid::ToolButton::~ToolButton()@Base" 1.1.0
 (c++)"non-virtual thunk to cnoid::TreeView::~TreeView()@Base" 1.1.0
 (c++)"non-virtual thunk to cnoid::TreeWidget::~TreeWidget()@Base" 1.1.0
 (c++)"non-virtual thunk to cnoid::VSeparator::~VSeparator()@Base" 1.1.0
 (c++)"non-virtual thunk to cnoid::View::~View()@Base" 1.1.0
 (c++)"non-virtual thunk to osg::TemplateArray<osg::Vec3f, (osg::Array::Type)10, 3, 5126>::~TemplateArray()@Base" 1.1.0
 (c++)"non-virtual thunk to osg::TemplateArray<osg::Vec4f, (osg::Array::Type)11, 4, 5126>::~TemplateArray()@Base" 1.1.0
 (c++)"non-virtual thunk to osg::TemplateIndexArray<int, (osg::Array::Type)3, 1, 5124>::~TemplateIndexArray()@Base" 1.1.0
 (c++)"non-virtual thunk to osg::TemplateIndexArray<unsigned int, (osg::Array::Type)6, 1, 5125>::~TemplateIndexArray()@Base" 1.1.0
 (c++)"non-virtual thunk to osgGA::GUIEventHandler::className() const@Base" 1.1.0
 (c++)"non-virtual thunk to osgGA::GUIEventHandler::clone(osg::CopyOp const&) const@Base" 1.1.0
 (c++)"non-virtual thunk to osgGA::GUIEventHandler::cloneType() const@Base" 1.1.0
 (c++)"non-virtual thunk to osgGA::GUIEventHandler::isSameKindAs(osg::Object const*) const@Base" 1.1.0
 (c++)"non-virtual thunk to osgGA::GUIEventHandler::libraryName() const@Base" 1.1.0
 (c++)"non-virtual thunk to osgGA::GUIEventHandler::~GUIEventHandler()@Base" 1.1.0
 (c++)"non-virtual thunk to osgViewer::GraphicsWindow::requestContinuousUpdate(bool)@Base" 1.1.0
 (c++)"non-virtual thunk to osgViewer::GraphicsWindow::requestWarpPointer(float, float)@Base" 1.1.0
 (c++)"non-virtual thunk to osgViewer::GraphicsWindow::~GraphicsWindow()@Base" 1.1.0
 (c++)"non-virtual thunk to osgViewer::GraphicsWindowEmbedded::~GraphicsWindowEmbedded()@Base" 1.1.0
 (c++)"non-virtual thunk to osgViewer::View::asView()@Base" 1.1.0
 (c++)"non-virtual thunk to osgViewer::Viewer::className() const@Base" 1.1.0
 (c++)"non-virtual thunk to osgViewer::Viewer::clone(osg::CopyOp const&) const@Base" 1.1.0
 (c++)"non-virtual thunk to osgViewer::Viewer::cloneType() const@Base" 1.1.0
 (c++)"non-virtual thunk to osgViewer::Viewer::isSameKindAs(osg::Object const*) const@Base" 1.1.0
 (c++)"non-virtual thunk to osgViewer::Viewer::libraryName() const@Base" 1.1.0
 qCleanupResources_Base__dest_instance__@Base 1.1.0
 (c++)"virtual thunk to boost::io::basic_oaltstringstream<char, std::char_traits<char>, std::allocator<char> >::~basic_oaltstringstream()@Base" 1.1.0
 (c++)"virtual thunk to cnoid::OsgViewer::~OsgViewer()@Base" 1.1.0
 (c++)"virtual thunk to osg::Drawable::EventCallback::className() const@Base" 1.1.0
 (c++)"virtual thunk to osg::Drawable::EventCallback::clone(osg::CopyOp const&) const@Base" 1.1.0
 (c++)"virtual thunk to osg::Drawable::EventCallback::cloneType() const@Base" 1.1.0
 (c++)"virtual thunk to osg::Drawable::EventCallback::isSameKindAs(osg::Object const*) const@Base" 1.1.0
 (c++)"virtual thunk to osg::Drawable::EventCallback::libraryName() const@Base" 1.1.0
 (c++)"virtual thunk to osg::Drawable::EventCallback::~EventCallback()@Base" 1.1.0
 (c++)"virtual thunk to osg::NodeCallback::className() const@Base" 1.1.0
 (c++)"virtual thunk to osg::NodeCallback::clone(osg::CopyOp const&) const@Base" 1.1.0
 (c++)"virtual thunk to osg::NodeCallback::cloneType() const@Base" 1.1.0
 (c++)"virtual thunk to osg::NodeCallback::isSameKindAs(osg::Object const*) const@Base" 1.1.0
 (c++)"virtual thunk to osg::NodeCallback::libraryName() const@Base" 1.1.0
 (c++)"virtual thunk to osg::NodeCallback::~NodeCallback()@Base" 1.1.0
 (c++)"virtual thunk to osg::View::className() const@Base" 1.1.0
 (c++)"virtual thunk to osg::View::clone(osg::CopyOp const&) const@Base" 1.1.0
 (c++)"virtual thunk to osg::View::cloneType() const@Base" 1.1.0
 (c++)"virtual thunk to osg::View::isSameKindAs(osg::Object const*) const@Base" 1.1.0
 (c++)"virtual thunk to osg::View::libraryName() const@Base" 1.1.0
 (c++)"virtual thunk to osgGA::GUIEventHandler::className() const@Base" 1.1.0
 (c++)"virtual thunk to osgGA::GUIEventHandler::clone(osg::CopyOp const&) const@Base" 1.1.0
 (c++)"virtual thunk to osgGA::GUIEventHandler::cloneType() const@Base" 1.1.0
 (c++)"virtual thunk to osgGA::GUIEventHandler::isSameKindAs(osg::Object const*) const@Base" 1.1.0
 (c++)"virtual thunk to osgGA::GUIEventHandler::libraryName() const@Base" 1.1.0
 (c++)"virtual thunk to osgGA::GUIEventHandler::~GUIEventHandler()@Base" 1.1.0
 (c++)"virtual thunk to osgViewer::View::className() const@Base" 1.1.0
 (c++)"virtual thunk to osgViewer::View::clone(osg::CopyOp const&) const@Base" 1.1.0
 (c++)"virtual thunk to osgViewer::View::cloneType() const@Base" 1.1.0
 (c++)"virtual thunk to osgViewer::View::isSameKindAs(osg::Object const*) const@Base" 1.1.0
 (c++)"virtual thunk to osgViewer::View::libraryName() const@Base" 1.1.0
 (c++)"virtual thunk to osgViewer::Viewer::className() const@Base" 1.1.0
 (c++)"virtual thunk to osgViewer::Viewer::clone(osg::CopyOp const&) const@Base" 1.1.0
 (c++)"virtual thunk to osgViewer::Viewer::cloneType() const@Base" 1.1.0
 (c++)"virtual thunk to osgViewer::Viewer::isSameKindAs(osg::Object const*) const@Base" 1.1.0
 (c++)"virtual thunk to osgViewer::Viewer::libraryName() const@Base" 1.1.0
 (c++)"virtual thunk to osgViewer::ViewerBase::~ViewerBase()@Base" 1.1.0
libCnoidBody.so.1.1 libcnoid1 #MINVER#
 (optional=templinst)_ZN5Eigen10MatrixBaseINS_5BlockINS_6MatrixIdLi3ELi3ELi0ELi3ELi3EEELi3ELi1ELb1ELb1EEEE9normalizeEv@Base 1.1.0
 (optional=templinst)_ZN5Eigen10MatrixBaseINS_5BlockINS_6MatrixIdLi6ELi1ELi0ELi6ELi1EEELin1ELi1ELb0ELb1EEEE25applyHouseholderOnTheLeftINS1_IKNS2_IdLi6ELi6ELi0ELi6ELi6EEELin1ELi1ELb0ELb1EEEEEvRKT_RKdPd@Base 1.1.0
 (optional=templinst)_ZN5Eigen10MatrixBaseINS_5BlockINS_6MatrixIdLi6ELi1ELi0ELi6ELi1EEELin1ELi1ELb0ELb1EEEE25applyHouseholderOnTheLeftINS1_IKNS2_IdLin1ELin1ELi0ELin1ELin1EEELin1ELi1ELb0ELb1EEEEEvRKT_RKdPd@Base 1.1.0
 (optional=templinst)_ZN5Eigen10MatrixBaseINS_5BlockINS_6MatrixIdLi6ELi6ELi0ELi6ELi6EEELin1ELin1ELb0ELb1EEEE25applyHouseholderOnTheLeftINS_11VectorBlockINS1_IS3_Li6ELi1ELb1ELb1EEELin1EEEEEvRKT_RKdPd@Base 1.1.0
 (optional=templinst)_ZN5Eigen10MatrixBaseINS_5BlockINS_6MatrixIdLin1ELi1ELi0ELin1ELi1EEELin1ELi1ELb0ELb1EEEE25applyHouseholderOnTheLeftINS1_IKNS2_IdLin1ELin1ELi0ELin1ELin1EEELin1ELi1ELb0ELb1EEEEEvRKT_RKdPd@Base 1.1.0
 (optional=templinst)_ZN5Eigen10MatrixBaseINS_5BlockINS_6MatrixIdLin1ELin1ELi0ELin1ELin1EEELin1ELin1ELb0ELb1EEEE25applyHouseholderOnTheLeftINS1_IKS3_Lin1ELi1ELb0ELb1EEEEEvRKT_RKdPd@Base 1.1.0
 (optional=templinst)_ZN5Eigen10MatrixBaseINS_5BlockINS_6MatrixIdLin1ELin1ELi0ELin1ELin1EEELin1ELin1ELb0ELb1EEEE25applyHouseholderOnTheLeftINS_11VectorBlockINS1_IS3_Lin1ELi1ELb1ELb1EEELin1EEEEEvRKT_RKdPd@Base 1.1.0
 (optional=templinst)_ZN5Eigen10MatrixBaseINS_5BlockINS_6MatrixIdLin1ELin1ELi0ELin1ELin1EEELin1ELin1ELb0ELb1EEEE26applyHouseholderOnTheRightINS1_IKS3_Lin1ELi1ELb0ELb1EEEEEvRKT_RKdPd@Base 1.1.0
 (optional=templinst)_ZN5Eigen10MatrixBaseINS_6MatrixIdLin1ELin1ELi0ELin1ELin1EEEE11setIdentityEll@Base 1.1.0
 (optional=templinst)_ZN5Eigen13CwiseBinaryOpINS_8internal13scalar_sum_opIdEEKNS_14GeneralProductINS_6MatrixIdLin1ELin1ELi1ELin1ELin1EEENS5_IdLin1ELi1ELi0ELin1ELi1EEELi4EEEKS7_ED1Ev@Base 1.1.0
 (optional=templinst)_ZN5Eigen13CwiseBinaryOpINS_8internal13scalar_sum_opIdEEKNS_14GeneralProductINS_6MatrixIdLin1ELin1ELi1ELin1ELin1EEENS5_IdLin1ELi1ELi0ELin1ELi1EEELi4EEEKS7_ED2Ev@Base 1.1.0
 (optional=templinst)_ZN5Eigen14GeneralProductINS_6MatrixIdLin1ELin1ELi0ELin1ELin1EEENS1_IdLin1ELi1ELi0ELin1ELi1EEELi4EED1Ev@Base 1.1.0
 (optional=templinst)_ZN5Eigen14GeneralProductINS_6MatrixIdLin1ELin1ELi0ELin1ELin1EEENS1_IdLin1ELi1ELi0ELin1ELi1EEELi4EED2Ev@Base 1.1.0
 (optional=templinst)_ZN5Eigen14GeneralProductINS_6MatrixIdLin1ELin1ELi0ELin1ELin1EEES2_Li5EED1Ev@Base 1.1.0
 (optional=templinst)_ZN5Eigen14GeneralProductINS_6MatrixIdLin1ELin1ELi0ELin1ELin1EEES2_Li5EED2Ev@Base 1.1.0
 (optional=templinst)_ZN5Eigen14GeneralProductINS_6MatrixIdLin1ELin1ELi1ELin1ELin1EEENS1_IdLin1ELi1ELi0ELin1ELi1EEELi4EED1Ev@Base 1.1.0
 (optional=templinst)_ZN5Eigen14GeneralProductINS_6MatrixIdLin1ELin1ELi1ELin1ELin1EEENS1_IdLin1ELi1ELi0ELin1ELi1EEELi4EED2Ev@Base 1.1.0
 (optional=templinst)_ZN5Eigen15PlainObjectBaseINS_6MatrixIdLin1ELi1ELi0ELin1ELi1EEEED1Ev@Base 1.1.0
 (optional=templinst)_ZN5Eigen15PlainObjectBaseINS_6MatrixIdLin1ELi1ELi0ELin1ELi1EEEED2Ev@Base 1.1.0
 (optional=templinst)_ZN5Eigen15PlainObjectBaseINS_6MatrixIdLin1ELin1ELi0ELin1ELin1EEEED1Ev@Base 1.1.0
 (optional=templinst)_ZN5Eigen15PlainObjectBaseINS_6MatrixIdLin1ELin1ELi0ELin1ELin1EEEED2Ev@Base 1.1.0
 (optional=templinst)_ZN5Eigen16CommaInitializerINS_6MatrixIdLi6ELi1ELi0ELi6ELi1EEEEC1INS_13CwiseBinaryOpINS_8internal13scalar_sum_opIdEEKNS1_IdLi3ELi1ELi0ELi3ELi1EEESA_EEEERS2_RKNS_9DenseBaseIT_EE@Base 1.1.0
 (optional=templinst)_ZN5Eigen16CommaInitializerINS_6MatrixIdLi6ELi1ELi0ELi6ELi1EEEEC2INS_13CwiseBinaryOpINS_8internal13scalar_sum_opIdEEKNS1_IdLi3ELi1ELi0ELi3ELi1EEESA_EEEERS2_RKNS_9DenseBaseIT_EE@Base 1.1.0
 (optional=templinst)_ZN5Eigen16CommaInitializerINS_6MatrixIdLi6ELi1ELi0ELi6ELi1EEEEcmINS_13CwiseBinaryOpINS_8internal13scalar_sum_opIdEEKNS1_IdLi3ELi1ELi0ELi3ELi1EEESA_EEEERS3_RKNS_9DenseBaseIT_EE@Base 1.1.0
 (optional=templinst)_ZN5Eigen16CommaInitializerINS_6MatrixIdLi6ELi6ELi0ELi6ELi6EEEEcmINS1_IdLi3ELi3ELi0ELi3ELi3EEEEERS3_RKNS_9DenseBaseIT_EE@Base 1.1.0
 (optional=templinst)_ZN5Eigen16CommaInitializerINS_6MatrixIdLi6ELi6ELi0ELi6ELi6EEEEcmINS_9TransposeINS1_IdLi3ELi3ELi0ELi3ELi3EEEEEEERS3_RKNS_9DenseBaseIT_EE@Base 1.1.0
 (optional=templinst)_ZN5Eigen17PermutationMatrixILin1ELin1EiED1Ev@Base 1.1.0
 (optional=templinst)_ZN5Eigen17PermutationMatrixILin1ELin1EiED2Ev@Base 1.1.0
 (optional=templinst)_ZN5Eigen19ColPivHouseholderQRINS_6MatrixIdLi6ELi6ELi0ELi6ELi6EEEE7computeERKS2_@Base 1.1.0
 (optional=templinst)_ZN5Eigen19ColPivHouseholderQRINS_6MatrixIdLin1ELin1ELi0ELin1ELin1EEEE7computeERKS2_@Base 1.1.0
 (optional=templinst)_ZN5Eigen19ColPivHouseholderQRINS_6MatrixIdLin1ELin1ELi0ELin1ELin1EEEEC1Ell@Base 1.1.0
 (optional=templinst)_ZN5Eigen19ColPivHouseholderQRINS_6MatrixIdLin1ELin1ELi0ELin1ELin1EEEEC2Ell@Base 1.1.0
 (optional=templinst)_ZN5Eigen19ColPivHouseholderQRINS_6MatrixIdLin1ELin1ELi0ELin1ELin1EEEED1Ev@Base 1.1.0
 (optional=templinst)_ZN5Eigen19ColPivHouseholderQRINS_6MatrixIdLin1ELin1ELi0ELin1ELin1EEEED2Ev@Base 1.1.0
 (optional=templinst)_ZN5Eigen19ColPivHouseholderQRINS_6MatrixIdLin1ELin1ELi0ELin1ELin1EEEEaSERKS3_@Base 1.1.0
 (optional=templinst)_ZN5Eigen6MatrixIdLi1ELin1ELi1ELi1ELin1EED1Ev@Base 1.1.0
 (optional=templinst)_ZN5Eigen6MatrixIdLi1ELin1ELi1ELi1ELin1EED2Ev@Base 1.1.0
 (optional=templinst)_ZN5Eigen6MatrixIdLi3ELi1ELi0ELi3ELi1EEaSINS_5BlockIKNS_14CwiseNullaryOpINS_8internal18scalar_identity_opIdEENS0_IdLi3ELi3ELi0ELi3ELi3EEEEELi3ELi1ELb0ELb0EEEEERS1_RKNS_10MatrixBaseIT_EE@Base 1.1.0
 (optional=templinst)_ZN5Eigen6MatrixIdLi3ELi3ELi0ELi3ELi3EEaSERKS1_@Base 1.1.0
 (optional=templinst)_ZN5Eigen6MatrixIdLin1ELi1ELi0ELin1ELi1EEC1INS_13CwiseBinaryOpINS_8internal13scalar_sum_opIdEEKNS_14GeneralProductINS0_IdLin1ELin1ELi1ELin1ELin1EEES1_Li4EEEKS1_EEEERKNS_10MatrixBaseIT_EE@Base 1.1.0
 (optional=templinst)_ZN5Eigen6MatrixIdLin1ELi1ELi0ELin1ELi1EEC1INS_14GeneralProductINS0_IdLin1ELin1ELi1ELin1ELin1EEES1_Li4EEEEERKNS_10MatrixBaseIT_EE@Base 1.1.0
 (optional=templinst)_ZN5Eigen6MatrixIdLin1ELi1ELi0ELin1ELi1EEC2INS_13CwiseBinaryOpINS_8internal13scalar_sum_opIdEEKNS_14GeneralProductINS0_IdLin1ELin1ELi1ELin1ELin1EEES1_Li4EEEKS1_EEEERKNS_10MatrixBaseIT_EE@Base 1.1.0
 (optional=templinst)_ZN5Eigen6MatrixIdLin1ELi1ELi0ELin1ELi1EEC2INS_14GeneralProductINS0_IdLin1ELin1ELi1ELin1ELin1EEES1_Li4EEEEERKNS_10MatrixBaseIT_EE@Base 1.1.0
 (optional=templinst)_ZN5Eigen6MatrixIdLin1ELi1ELi0ELin1ELi1EED1Ev@Base 1.1.0
 (optional=templinst)_ZN5Eigen6MatrixIdLin1ELi1ELi0ELin1ELi1EED2Ev@Base 1.1.0
 (optional=templinst)_ZN5Eigen6MatrixIdLin1ELin1ELi0ELin1ELin1EED1Ev@Base 1.1.0
 (optional=templinst)_ZN5Eigen6MatrixIdLin1ELin1ELi0ELin1ELin1EED2Ev@Base 1.1.0
 (optional=templinst)_ZN5Eigen6MatrixIdLin1ELin1ELi0ELin1ELin1EEaSINS_14TriangularViewIKNS_5BlockIKS1_Lin1ELin1ELb0ELb1EEELj2EEEEERS1_RKNS_9EigenBaseIT_EE@Base 1.1.0
 (optional=templinst)_ZN5Eigen6MatrixIdLin1ELin1ELi0ELin1ELin1EEaSINS_14TriangularViewIKNS_9TransposeIKNS_5BlockIKS1_Lin1ELin1ELb0ELb1EEEEELj1EEEEERS1_RKNS_9EigenBaseIT_EE@Base 1.1.0
 (optional=templinst)_ZN5Eigen6MatrixIdLin1ELin1ELi0ELin1ELin1EEaSINS_17PermutationMatrixILin1ELin1EiEEEERS1_RKNS_9EigenBaseIT_EE@Base 1.1.0
 (optional=templinst)_ZN5Eigen6MatrixIdLin1ELin1ELi0ELin1ELin1EEaSINS_5BlockIKS1_Lin1ELin1ELb0ELb1EEEEERS1_RKNS_10MatrixBaseIT_EE@Base 1.1.0
 (optional=templinst)_ZN5Eigen6MatrixIdLin1ELin1ELi0ELin1ELin1EEaSINS_9TransposeIKS1_EEEERS1_RKNS_10MatrixBaseIT_EE@Base 1.1.0
 (optional=templinst)_ZN5Eigen7NoAliasINS_6MatrixIdLi3ELi1ELi0ELi3ELi1EEENS_10MatrixBaseEEaSINS_17CoeffBasedProductIRKNS1_IdLi3ELi3ELi0ELi3ELi3EEERKS2_Li6EEEEERS2_RKNS3_IT_EE@Base 1.1.0
 (optional=templinst)_ZN5Eigen7NoAliasINS_6MatrixIdLin1ELin1ELi0ELin1ELin1EEENS_10MatrixBaseEEaSINS_14GeneralProductIS2_NS_9TransposeIKS2_EELi5EEEEERS2_RKNS3_IT_EE@Base 1.1.0
 _ZN5Eigen8IOFormatC1EiiRKSsS2_S2_S2_S2_S2_@Base 1.1.0
 _ZN5Eigen8IOFormatC2EiiRKSsS2_S2_S2_S2_S2_@Base 1.1.0
 _ZN5Eigen8IOFormatD1Ev@Base 1.1.0
 _ZN5Eigen8IOFormatD2Ev@Base 1.1.0
 (optional=templinst)_ZN5Eigen8internal10redux_implINS0_13scalar_sum_opIdEENS_12CwiseUnaryOpINS0_14scalar_abs2_opIdEEKNS_5BlockIKNS7_INS7_INS_6MatrixIdLi6ELi6ELi0ELi6ELi6EEELi6ELi1ELb1ELb1EEELin1ELi1ELb0ELb1EEELin1ELi1ELb0ELb1EEEEELi3ELi0EE3runERKSF_RKS3_@Base 1.1.0
 (optional=templinst)_ZN5Eigen8internal10redux_implINS0_13scalar_sum_opIdEENS_13CwiseBinaryOpINS0_17scalar_product_opIddEEKNS_9TransposeIKNS7_IKNS_5BlockIKNS_6MatrixIdLi6ELi6ELi0ELi6ELi6EEELin1ELi1ELb0ELb1EEEEEEEKNS8_INS8_INS9_IdLi6ELi1ELi0ELi6ELi1EEELin1ELi1ELb0ELb1EEELin1ELi1ELb0ELb1EEEEELi3ELi0EE3runERKSM_RKS3_@Base 1.1.0
 (optional=templinst)_ZN5Eigen8internal10redux_implINS0_13scalar_sum_opIdEENS_13CwiseBinaryOpINS0_17scalar_product_opIddEEKNS_9TransposeIKNS7_IKNS_5BlockIKNS_6MatrixIdLin1ELin1ELi0ELin1ELin1EEELin1ELi1ELb0ELb1EEEEEEEKNS8_INS8_INS9_IdLi6ELi1ELi0ELi6ELi1EEELin1ELi1ELb0ELb1EEELin1ELi1ELb0ELb1EEEEELi3ELi0EE3runERKSM_RKS3_@Base 1.1.0
 (optional=templinst)_ZN5Eigen8internal11assign_implINS_17SelfCwiseBinaryOpINS0_20scalar_difference_opIdEENS_5BlockINS5_INS_6MatrixIdLi6ELi6ELi0ELi6ELi6EEELin1ELin1ELb0ELb1EEELin1ELin1ELb0ELb1EEENS_17CoeffBasedProductINS6_IdLin1ELi1ELi0ELi6ELi1EEEKNS_3MapINS6_IdLi1ELin1ELi1ELi1ELi6EEELi0ENS_6StrideILi0ELi0EEEEELi256EEEEESI_Li4ELi0ELi0EE3runERSJ_RKSI_@Base 1.1.0
 (optional=templinst)_ZN5Eigen8internal11assign_implINS_5BlockINS2_INS2_INS_6MatrixIdLi6ELi6ELi0ELi6ELi6EEELi6ELi1ELb1ELb1EEELin1ELi1ELb0ELb1EEELin1ELi1ELb0ELb1EEENS_14CwiseNullaryOpINS0_18scalar_constant_opIdEES7_EELi3ELi0ELi0EE3runERS7_RKSB_@Base 1.1.0
 (optional=templinst)_ZN5Eigen8internal11assign_implINS_5BlockINS_6MatrixIdLi6ELi1ELi0ELi6ELi1EEELin1ELi1ELb0ELb1EEENS_14CwiseNullaryOpINS0_18scalar_constant_opIdEES5_EELi3ELi0ELi0EE3runERS5_RKS9_@Base 1.1.0
 (optional=templinst)_ZN5Eigen8internal11assign_implINS_5BlockINS_6MatrixIdLin1ELin1ELi0ELin1ELin1EEELin1ELin1ELb0ELb1EEES5_Li4ELi0ELi0EE3runERS5_RKS5_@Base 1.1.0
 (optional=templinst)_ZN5Eigen8internal11gebp_kernelIddlLi4ELi4ELb0ELb0EEclEPdlPKdS5_llldllllS3_@Base 1.1.0
 (optional=templinst)_ZN5Eigen8internal12any_unrollerINS_13CwiseBinaryOpISt12not_equal_toIdEKNS_6MatrixIdLi4ELi4ELi0ELi4ELi4EEEKNS_14CwiseNullaryOpINS0_18scalar_identity_opIdEES6_EEEELi12EE3runERKSD_@Base 1.1.0
 (optional=templinst)_ZN5Eigen8internal12print_matrixINS_6MatrixIdLi3ELi1ELi0ELi3ELi1EEEEERSoS4_RKT_RKNS_8IOFormatE@Base 1.1.0
 (optional=templinst)_ZN5Eigen8internal12print_matrixINS_6MatrixIdLi3ELi3ELi0ELi3ELi3EEEEERSoS4_RKT_RKNS_8IOFormatE@Base 1.1.0
 (optional=templinst)_ZN5Eigen8internal13gemm_pack_lhsIdlLi4ELi2ELi0ELb0ELb0EEclEPdPKdlllll@Base 1.1.0
 (optional=templinst)_ZN5Eigen8internal13gemm_pack_lhsIdlLi4ELi2ELi1ELb0ELb0EEclEPdPKdlllll@Base 1.1.0
 (optional=templinst)_ZN5Eigen8internal13gemm_pack_rhsIdlLi4ELi0ELb0ELb0EEclEPdPKdlllll@Base 1.1.0
 (optional=templinst)_ZN5Eigen8internal13gemm_pack_rhsIdlLi4ELi1ELb0ELb0EEclEPdPKdlllll@Base 1.1.0
 (optional=templinst)_ZN5Eigen8internal13gemv_selectorILi1ELi0ELb1EE3runINS_14GeneralProductINS_9TransposeIKNS_5BlockINS6_INS_6MatrixIdLin1ELin1ELi0ELin1ELin1EEELin1ELi1ELb1ELb1EEELin1ELi1ELb0ELb1EEEEENS6_INS6_IS8_Lin1ELin1ELb0ELb1EEELin1ELin1ELb0ELb1EEELi4EEENS_3MapINS7_IdLi1ELin1ELi1ELi1ELin1EEELi0ENS_6StrideILi0ELi0EEEEEEEvRKT_RT0_NSL_6ScalarE@Base 1.1.0
 (optional=templinst)_ZN5Eigen8internal13gemv_selectorILi2ELi0ELb1EE3runINS_14GeneralProductINS4_INS_15DiagonalProductINS_5BlockIKNS_6MatrixIdLin1ELin1ELi0ELin1ELin1EEELin1ELin1ELb1ELb1EEENS_15DiagonalWrapperIKNS7_IdLin1ELi1ELi0ELin1ELi1EEEEELi2EEENS_9TransposeIKSA_EELi5EEESC_Li4EEESC_EEvRKT_RT0_NSL_6ScalarE@Base 1.1.0
 (optional=templinst)_ZN5Eigen8internal13gemv_selectorILi2ELi0ELb1EE3runINS_14GeneralProductINS_5BlockINS5_INS_6MatrixIdLin1ELin1ELi0ELin1ELin1EEELin1ELin1ELb0ELb1EEELin1ELin1ELb0ELb1EEENS5_IKS7_Lin1ELi1ELb0ELb1EEELi4EEENS_3MapINS6_IdLin1ELi1ELi0ELin1ELi1EEELi0ENS_6StrideILi0ELi0EEEEEEEvRKT_RT0_NSI_6ScalarE@Base 1.1.0
 (optional=templinst)_ZN5Eigen8internal13gemv_selectorILi2ELi0ELb1EE3runINS_14GeneralProductINS_6MatrixIdLin1ELin1ELi0ELin1ELin1EEENS5_IdLin1ELi1ELi0ELin1ELi1EEELi4EEES7_EEvRKT_RT0_NS9_6ScalarE@Base 1.1.0
 (optional=templinst)_ZN5Eigen8internal13gemv_selectorILi2ELi1ELb1EE3runINS_14GeneralProductINS_6MatrixIdLin1ELin1ELi1ELin1ELin1EEENS5_IdLin1ELi1ELi0ELin1ELi1EEELi4EEES7_EEvRKT_RT0_NS9_6ScalarE@Base 1.1.0
 (optional=templinst)_ZN5Eigen8internal13gemv_selectorILi2ELi1ELb1EE3runINS_14GeneralProductINS_9TransposeIKNS_5BlockINS6_INS_6MatrixIdLin1ELin1ELi0ELin1ELin1EEELin1ELin1ELb0ELb1EEELin1ELin1ELb0ELb1EEEEENS5_IKNS5_IKNS6_IKS8_Lin1ELi1ELb0ELb1EEEEEEELi4EEENS5_INS_3MapINS7_IdLi1ELin1ELi1ELi1ELin1EEELi0ENS_6StrideILi0ELi0EEEEEEEEEvRKT_RT0_NSQ_6ScalarE@Base 1.1.0
 (optional=templinst)_ZN5Eigen8internal13gemv_selectorILi2ELi1ELb1EE3runINS_14GeneralProductINS_9TransposeIKNS_5BlockINS6_INS_6MatrixIdLin1ELin1ELi0ELin1ELin1EEELin1ELin1ELb0ELb1EEELin1ELin1ELb0ELb1EEEEENS5_IKNS5_IKNS6_INS6_IS8_Lin1ELi1ELb1ELb1EEELin1ELi1ELb0ELb1EEEEEEELi4EEENS5_INS_3MapINS7_IdLi1ELin1ELi1ELi1ELin1EEELi0ENS_6StrideILi0ELi0EEEEEEEEEvRKT_RT0_NSQ_6ScalarE@Base 1.1.0
 (optional=templinst)_ZN5Eigen8internal13trmv_selectorILi0EE3runILi2EKNS_5BlockIKNS_6MatrixIdLi6ELi6ELi0ELi6ELi6EEELin1ELin1ELb0ELb1EEENS4_INS5_IdLi6ELi1ELi0ELi6ELi1EEELin1ELi1ELb0ELb1EEENS5_IdLin1ELi1ELi0ELi6ELi1EEEEEvRKNS_17TriangularProductIXT_ELb1ET0_Lb0ET1_Lb1EEERT2_NSG_6ScalarE@Base 1.1.0
 (optional=templinst)_ZN5Eigen8internal13trmv_selectorILi0EE3runILi2EKNS_5BlockIKNS_6MatrixIdLin1ELin1ELi0ELin1ELin1EEELin1ELin1ELb0ELb1EEENS4_INS5_IdLi6ELi1ELi0ELi6ELi1EEELin1ELi1ELb0ELb1EEENS5_IdLin1ELi1ELi0ELin1ELi1EEEEEvRKNS_17TriangularProductIXT_ELb1ET0_Lb0ET1_Lb1EEERT2_NSG_6ScalarE@Base 1.1.0
 (optional=templinst)_ZN5Eigen8internal13trmv_selectorILi0EE3runILi2EKNS_5BlockIKNS_6MatrixIdLin1ELin1ELi0ELin1ELin1EEELin1ELin1ELb0ELb1EEENS4_INS5_IdLin1ELi1ELi0ELin1ELi1EEELin1ELi1ELb0ELb1EEESA_EEvRKNS_17TriangularProductIXT_ELb1ET0_Lb0ET1_Lb1EEERT2_NSF_6ScalarE@Base 1.1.0
 (optional=templinst)_ZN5Eigen8internal15assign_selectorINS_5BlockINS_6MatrixIdLi6ELi1ELi0ELi6ELi1EEELin1ELi1ELb0ELb1EEENS_17TriangularProductILi2ELb1EKNS2_IKNS3_IdLi6ELi6ELi0ELi6ELi6EEELin1ELin1ELb0ELb1EEELb0ES5_Lb1EEELb1ELb0EE3runERS5_RKSB_@Base 1.1.0
 _ZN5Eigen8internal15queryCacheSizesERiS1_S1_@Base 1.1.0
 (optional=templinst)_ZN5Eigen8internal18product_coeff_implILi0ELi2ENS_5BlockIKNS_6MatrixIdLi4ELi4ELi0ELi4ELi4EEELi3ELi3ELb0ELb1EEENS2_IS5_Li3ELi1ELb0ELb1EEEdE3runEllRKS6_RKS7_Rd@Base 1.1.0
 (optional=templinst)_ZN5Eigen8internal18product_coeff_implILi0ELi2ENS_5BlockIKNS_6MatrixIdLi4ELi4ELi0ELi4ELi4EEELi3ELi3ELb0ELb1EEES6_dE3runEllRKS6_S9_Rd@Base 1.1.0
 (optional=templinst)_ZN5Eigen8internal19gemm_blocking_spaceILi0EddLin1ELin1ELin1ELi1ELb0EED1Ev@Base 1.1.0
 (optional=templinst)_ZN5Eigen8internal19gemm_blocking_spaceILi0EddLin1ELin1ELin1ELi1ELb0EED2Ev@Base 1.1.0
 (optional=templinst)_ZN5Eigen8internal19real_2x2_jacobi_svdINS_6MatrixIdLin1ELin1ELi0ELin1ELin1EEEdlEEvRKT_T1_S7_PNS_14JacobiRotationIT0_EESB_@Base 1.1.0
 _ZN5Eigen8internal19throw_std_bad_allocEv@Base 1.1.0
 (optional=templinst)_ZN5Eigen8internal22outer_product_selectorILi0EE3runINS_14GeneralProductINS_12CwiseUnaryOpINS0_18scalar_multiple_opIdEEKNS_3MapINS_6MatrixIdLin1ELi1ELi0ELin1ELi1EEELi0ENS_6StrideILi0ELi0EEEEEEENS_9TransposeIKNS_5BlockIKNS9_IdLin1ELin1ELi0ELin1ELin1EEELin1ELi1ELb0ELb1EEEEELi2EEENSH_INSH_ISI_Lin1ELin1ELb0ELb1EEELin1ELin1ELb0ELb1EEEEEvRKT_RT0_NSQ_6ScalarE@Base 1.1.0
 (optional=templinst)_ZN5Eigen8internal22outer_product_selectorILi0EE3runINS_14GeneralProductINS_12CwiseUnaryOpINS0_18scalar_multiple_opIdEEKNS_5BlockIKNS_6MatrixIdLi6ELi6ELi0ELi6ELi6EEELin1ELi1ELb0ELb1EEEEENS_3MapINS9_IdLi1ELi1ELi1ELi1ELi1EEELi0ENS_6StrideILi0ELi0EEEEELi2EEENS8_INS8_INS9_IdLi6ELi1ELi0ELi6ELi1EEELin1ELi1ELb0ELb1EEELin1ELi1ELb0ELb1EEEEEvRKT_RT0_NSO_6ScalarE@Base 1.1.0
 (optional=templinst)_ZN5Eigen8internal22outer_product_selectorILi0EE3runINS_14GeneralProductINS_12CwiseUnaryOpINS0_18scalar_multiple_opIdEEKNS_5BlockIKNS_6MatrixIdLin1ELin1ELi0ELin1ELin1EEELin1ELi1ELb0ELb1EEEEENS_3MapINS9_IdLi1ELi1ELi1ELi1ELi1EEELi0ENS_6StrideILi0ELi0EEEEELi2EEENS8_INS8_INS9_IdLi6ELi1ELi0ELi6ELi1EEELin1ELi1ELb0ELb1EEELin1ELi1ELb0ELb1EEEEEvRKT_RT0_NSO_6ScalarE@Base 1.1.0
 (optional=templinst)_ZN5Eigen8internal22outer_product_selectorILi0EE3runINS_14GeneralProductINS_12CwiseUnaryOpINS0_18scalar_multiple_opIdEEKNS_5BlockIKNS_6MatrixIdLin1ELin1ELi0ELin1ELin1EEELin1ELi1ELb0ELb1EEEEENS_3MapINS9_IdLi1ELi1ELi1ELi1ELi1EEELi0ENS_6StrideILi0ELi0EEEEELi2EEENS8_INS8_INS9_IdLin1ELi1ELi0ELin1ELi1EEELin1ELi1ELb0ELb1EEELin1ELi1ELb0ELb1EEEEEvRKT_RT0_NSO_6ScalarE@Base 1.1.0
 (optional=templinst)_ZN5Eigen8internal22outer_product_selectorILi0EE3runINS_14GeneralProductINS_12CwiseUnaryOpINS0_18scalar_multiple_opIdEEKNS_5BlockIKNS_6MatrixIdLin1ELin1ELi0ELin1ELin1EEELin1ELi1ELb0ELb1EEEEENS_3MapINS9_IdLi1ELin1ELi1ELi1ELin1EEELi0ENS_6StrideILi0ELi0EEEEELi2EEENS8_INS8_ISA_Lin1ELin1ELb0ELb1EEELin1ELin1ELb0ELb1EEEEEvRKT_RT0_NSN_6ScalarE@Base 1.1.0
 (optional=templinst)_ZN5Eigen8internal22outer_product_selectorILi0EE3runINS_14GeneralProductINS_12CwiseUnaryOpINS0_18scalar_multiple_opIdEEKNS_5BlockINS8_INS_6MatrixIdLin1ELin1ELi0ELin1ELin1EEELin1ELi1ELb1ELb1EEELin1ELi1ELb0ELb1EEEEENS_3MapINS9_IdLi1ELin1ELi1ELi1ELin1EEELi0ENS_6StrideILi0ELi0EEEEELi2EEENS8_INS8_ISA_Lin1ELin1ELb0ELb1EEELin1ELin1ELb0ELb1EEEEEvRKT_RT0_NSN_6ScalarE@Base 1.1.0
 (optional=templinst)_ZN5Eigen8internal22qr_preconditioner_implINS_6MatrixIdLin1ELin1ELi0ELin1ELin1EEELi2ELi0ELb1EE8allocateERKNS_9JacobiSVDIS3_Li2EEE@Base 1.1.0
 (optional=templinst)_ZN5Eigen8internal22qr_preconditioner_implINS_6MatrixIdLin1ELin1ELi0ELin1ELin1EEELi2ELi0ELb1EED1Ev@Base 1.1.0
 (optional=templinst)_ZN5Eigen8internal22qr_preconditioner_implINS_6MatrixIdLin1ELin1ELi0ELin1ELin1EEELi2ELi0ELb1EED2Ev@Base 1.1.0
 (optional=templinst)_ZN5Eigen8internal22qr_preconditioner_implINS_6MatrixIdLin1ELin1ELi0ELin1ELin1EEELi2ELi1ELb1EE3runERNS_9JacobiSVDIS3_Li2EEERKS3_@Base 1.1.0
 (optional=templinst)_ZN5Eigen8internal22qr_preconditioner_implINS_6MatrixIdLin1ELin1ELi0ELin1ELin1EEELi2ELi1ELb1EE8allocateERKNS_9JacobiSVDIS3_Li2EEE@Base 1.1.0
 (optional=templinst)_ZN5Eigen8internal22qr_preconditioner_implINS_6MatrixIdLin1ELin1ELi0ELin1ELin1EEELi2ELi1ELb1EED1Ev@Base 1.1.0
 (optional=templinst)_ZN5Eigen8internal22qr_preconditioner_implINS_6MatrixIdLin1ELin1ELi0ELin1ELin1EEELi2ELi1ELb1EED2Ev@Base 1.1.0
 (optional=templinst)_ZN5Eigen8internal23triangular_solve_vectorIddlLi1ELi2ELb0ELi0EE3runElPKdlPd@Base 1.1.0
 (optional=templinst)_ZN5Eigen8internal26triangular_solver_selectorIKNS_5BlockIKNS_6MatrixIdLi6ELi6ELi0ELi6ELi6EEELin1ELin1ELb0ELb1EEENS2_INS3_IdLi6ELi1ELi0ELi6ELi1EEELin1ELi1ELb0ELb1EEELi1ELi2ELi0ELi1EE3runERS7_RS9_@Base 1.1.0
 (optional=templinst)_ZN5Eigen8internal26triangular_solver_selectorIKNS_5BlockIKNS_6MatrixIdLin1ELin1ELi0ELin1ELin1EEELin1ELin1ELb0ELb1EEENS2_INS3_IdLi6ELi1ELi0ELi6ELi1EEELin1ELi1ELb0ELb1EEELi1ELi2ELi0ELi1EE3runERS7_RS9_@Base 1.1.0
 (optional=templinst)_ZN5Eigen8internal26triangular_solver_selectorIKNS_5BlockIKNS_6MatrixIdLin1ELin1ELi0ELin1ELin1EEELin1ELin1ELb0ELb1EEENS2_INS3_IdLin1ELi1ELi0ELin1ELi1EEELin1ELi1ELb0ELb1EEELi1ELi2ELi0ELi1EE3runERS7_RS9_@Base 1.1.0
 (optional=templinst)_ZN5Eigen8internal27apply_rotation_in_the_planeINS_5BlockINS_6MatrixIdLin1ELin1ELi0ELin1ELin1EEELin1ELi1ELb1ELb1EEES5_dEEvRT_RT0_RKNS_14JacobiRotationIT1_EE@Base 1.1.0
 _ZN5Eigen8internal27queryCacheSizes_intel_codesERiS1_S1_@Base 1.1.0
 (optional=templinst)_ZN5Eigen8internal28aligned_stack_memory_handlerIdED1Ev@Base 1.1.0
 (optional=templinst)_ZN5Eigen8internal28aligned_stack_memory_handlerIdED2Ev@Base 1.1.0
 (optional=templinst)_ZN5Eigen8internal28conditional_aligned_new_autoIdLb1EEEPT_m@Base 1.1.0
 _ZN5Eigen8internal28queryCacheSizes_intel_directERiS1_S1_@Base 1.1.0
 (optional=templinst)_ZN5Eigen8internal29general_matrix_matrix_productIldLi0ELb0EdLi0ELb0ELi0EE3runElllPKdlS4_lPdldRNS0_15level3_blockingIddEEPNS0_16GemmParallelInfoIlEE@Base 1.1.0
 (optional=templinst)_ZN5Eigen8internal29general_matrix_matrix_productIldLi0ELb0EdLi1ELb0ELi0EE3runElllPKdlS4_lPdldRNS0_15level3_blockingIddEEPNS0_16GemmParallelInfoIlEE@Base 1.1.0
 (optional=templinst)_ZN5Eigen8internal29general_matrix_matrix_productIldLi1ELb0EdLi0ELb0ELi0EE3runElllPKdlS4_lPdldRNS0_15level3_blockingIddEEPNS0_16GemmParallelInfoIlEE@Base 1.1.0
 (optional=templinst)_ZN5Eigen8internal29general_matrix_vector_productIldLi0ELb0EdLb0ELi0EE3runEllPKdlS4_lPdld@Base 1.1.0
 (optional=templinst)_ZN5Eigen8internal29general_matrix_vector_productIldLi0ELb0EdLb0ELi1EE3runEllPKdlS4_lPdld@Base 1.1.0
 (optional=templinst)_ZN5Eigen8internal29general_matrix_vector_productIldLi1ELb0EdLb0ELi0EE3runEllPKdlS4_lPdld@Base 1.1.0
 (optional=templinst)_ZN5Eigen8internal32transform_transform_product_implINS_9TransformIdLi3ELi2ELi0EEES3_Lb0EE3runERKS3_S6_@Base 1.1.0
 (optional=templinst)_ZN5Eigen8internal32triangular_matrix_vector_productIlLi2EdLb0EdLb0ELi0ELi0EE3runEllPKdlS4_lPdld@Base 1.1.0
 (optional=templinst)_ZN5Eigen8internal41assign_DefaultTraversal_CompleteUnrollingINS_5BlockINS_6MatrixIdLi4ELi4ELi0ELi4ELi4EEELi3ELi3ELb0ELb1EEENS3_IdLi3ELi3ELi0ELi3ELi3EEELi4ELi9EE3runERS5_RKS6_@Base 1.1.0
 (optional=templinst)_ZN5Eigen8internal41assign_DefaultTraversal_CompleteUnrollingINS_6MatrixIdLi3ELi1ELi0ELi3ELi1EEENS_17CoeffBasedProductIKNS_5BlockIKNS2_IdLi4ELi4ELi0ELi4ELi4EEELi3ELi3ELb0ELb1EEEKNS5_IS7_Li3ELi1ELb0ELb1EEELi6EEELi1ELi3EE3runERS3_RKSC_@Base 1.1.0
 (optional=templinst)_ZN5Eigen8internal41assign_DefaultTraversal_CompleteUnrollingINS_6MatrixIdLi3ELi1ELi0ELi3ELi1EEENS_17CoeffBasedProductIKNS_9TransposeINS_5BlockINS2_IdLi4ELi4ELi0ELi4ELi4EEELi3ELi3ELb0ELb1EEEEERKS3_Li6EEELi1ELi3EE3runERS3_RKSD_@Base 1.1.0
 (optional=templinst)_ZN5Eigen8internal41assign_DefaultTraversal_CompleteUnrollingINS_6MatrixIdLi3ELi1ELi0ELi3ELi1EEENS_17CoeffBasedProductIRKNS2_IdLi3ELi3ELi0ELi3ELi3EEERKS3_Li6EEELi1ELi3EE3runERS3_RKSA_@Base 1.1.0
 (optional=templinst)_ZN5Eigen8internal41assign_DefaultTraversal_CompleteUnrollingINS_6MatrixIdLi3ELi3ELi0ELi3ELi3EEENS_17CoeffBasedProductIKNS_5BlockIKNS2_IdLi4ELi4ELi0ELi4ELi4EEELi3ELi3ELb0ELb1EEES9_Li6EEELi2ELi9EE3runERS3_RKSA_@Base 1.1.0
 (optional=templinst)_ZN5Eigen8internal41assign_DefaultTraversal_CompleteUnrollingINS_6MatrixIdLi3ELi3ELi0ELi3ELi3EEENS_17CoeffBasedProductIKNS_5BlockIKNS2_IdLi4ELi4ELi0ELi4ELi4EEELi3ELi3ELb0ELb1EEES9_Li6EEELi5ELi9EE3runERS3_RKSA_@Base 1.1.0
 (optional=templinst)_ZN5Eigen8internal41assign_DefaultTraversal_CompleteUnrollingINS_6MatrixIdLi3ELi3ELi0ELi3ELi3EEENS_17CoeffBasedProductIKNS_5BlockIKNS2_IdLi4ELi4ELi0ELi4ELi4EEELi3ELi3ELb0ELb1EEES9_Li6EEELi7ELi9EE3runERS3_RKSA_@Base 1.1.0
 (optional=templinst)_ZN5Eigen8internal41assign_DefaultTraversal_CompleteUnrollingINS_6MatrixIdLi3ELi3ELi0ELi3ELi3EEENS_17CoeffBasedProductIRKS3_KNS_9TransposeIS3_EELi6EEELi1ELi9EE3runERS3_RKSA_@Base 1.1.0
 (optional=templinst)_ZN5Eigen8internal41assign_DefaultTraversal_CompleteUnrollingINS_6MatrixIdLi3ELi3ELi0ELi3ELi3EEENS_17CoeffBasedProductIRKS3_KNS_9TransposeIS3_EELi6EEELi5ELi9EE3runERS3_RKSA_@Base 1.1.0
 (optional=templinst)_ZN5Eigen8internal41assign_DefaultTraversal_CompleteUnrollingINS_6MatrixIdLi3ELi3ELi0ELi3ELi3EEENS_17CoeffBasedProductIRKS3_KNS_9TransposeIS3_EELi6EEELi7ELi9EE3runERS3_RKSA_@Base 1.1.0
 (optional=templinst)_ZN5Eigen8internal41assign_DefaultTraversal_CompleteUnrollingINS_6MatrixIdLi3ELi3ELi0ELi3ELi3EEENS_17CoeffBasedProductIRKS3_S6_Li6EEELi1ELi9EE3runERS3_RKS7_@Base 1.1.0
 (optional=templinst)_ZN5Eigen8internal41assign_DefaultTraversal_CompleteUnrollingINS_6MatrixIdLi3ELi3ELi0ELi3ELi3EEENS_17CoeffBasedProductIRKS3_S6_Li6EEELi4ELi9EE3runERS3_RKS7_@Base 1.1.0
 (optional=templinst)_ZN5Eigen8internal41assign_DefaultTraversal_CompleteUnrollingINS_6MatrixIdLi3ELi3ELi0ELi3ELi3EEENS_17CoeffBasedProductIRKS3_S6_Li6EEELi7ELi9EE3runERS3_RKS7_@Base 1.1.0
 (optional=templinst)_ZN5Eigen9JacobiSVDINS_6MatrixIdLin1ELin1ELi0ELin1ELin1EEELi2EE7computeERKS2_j@Base 1.1.0
 (optional=templinst)_ZN5Eigen9JacobiSVDINS_6MatrixIdLin1ELin1ELi0ELin1ELin1EEELi2EE8allocateEllj@Base 1.1.0
 (optional=templinst)_ZN5Eigen9JacobiSVDINS_6MatrixIdLin1ELin1ELi0ELin1ELin1EEELi2EED1Ev@Base 1.1.0
 (optional=templinst)_ZN5Eigen9JacobiSVDINS_6MatrixIdLin1ELin1ELi0ELin1ELin1EEELi2EED2Ev@Base 1.1.0
 (optional=templinst)_ZN5Eigen9TransformIdLi3ELi2ELi0EE10makeAffineEv@Base 1.1.0
 (optional=templinst)_ZN5Eigen9TransformIdLi3ELi2ELi0EEC1ERKS1_@Base 1.1.0
 (optional=templinst)_ZN5Eigen9TransformIdLi3ELi2ELi0EEC2ERKS1_@Base 1.1.0
 (optional=templinst)_ZN5Eigen9TransformIdLi3ELi2ELi0EEaSERKS1_@Base 1.1.0
 (optional=templinst)_ZN5EigenlsINS_6MatrixIdLi3ELi1ELi0ELi3ELi1EEEEERSoS3_RKNS_9DenseBaseIT_EE@Base 1.1.0
 (optional=templinst)_ZN5EigenlsINS_6MatrixIdLi3ELi3ELi0ELi3ELi3EEEEERSoS3_RKNS_9DenseBaseIT_EE@Base 1.1.0
 (optional=templinst)_ZN5boost10shared_ptrIN5cnoid10BodyMotionEED1Ev@Base 1.1.0
 (optional=templinst)_ZN5boost10shared_ptrIN5cnoid10BodyMotionEED2Ev@Base 1.1.0
 (optional=templinst)_ZN5boost10shared_ptrIN5cnoid10Vector3SeqEED1Ev@Base 1.1.0
 (optional=templinst)_ZN5boost10shared_ptrIN5cnoid10Vector3SeqEED2Ev@Base 1.1.0
 (optional=templinst)_ZN5boost10shared_ptrIN5cnoid11CompositeIKEED1Ev@Base 1.1.0
 (optional=templinst)_ZN5boost10shared_ptrIN5cnoid11CompositeIKEED2Ev@Base 1.1.0
 (optional=templinst)_ZN5boost10shared_ptrIN5cnoid12JointNodeSetEED1Ev@Base 1.1.0
 (optional=templinst)_ZN5boost10shared_ptrIN5cnoid12JointNodeSetEED2Ev@Base 1.1.0
 (optional=templinst)_ZN5boost10shared_ptrIN5cnoid12JointNodeSetEEaSERKS3_@Base 1.1.0
 (optional=templinst)_ZN5boost10shared_ptrIN5cnoid12ModelNodeSetEE5resetIS2_EEvPT_@Base 1.1.0
 (optional=templinst)_ZN5boost10shared_ptrIN5cnoid12ModelNodeSetEED1Ev@Base 1.1.0
 (optional=templinst)_ZN5boost10shared_ptrIN5cnoid12ModelNodeSetEED2Ev@Base 1.1.0
 (optional=templinst)_ZN5boost10shared_ptrIN5cnoid13MultiValueSeqEED1Ev@Base 1.1.0
 (optional=templinst)_ZN5boost10shared_ptrIN5cnoid13MultiValueSeqEED2Ev@Base 1.1.0
 (optional=templinst)_ZN5boost10shared_ptrIN5cnoid15MultiAffine3SeqEED1Ev@Base 1.1.0
 (optional=templinst)_ZN5boost10shared_ptrIN5cnoid15MultiAffine3SeqEED2Ev@Base 1.1.0
 (optional=templinst)_ZN5boost10shared_ptrIN5cnoid17InverseKinematicsEED1Ev@Base 1.1.0
 (optional=templinst)_ZN5boost10shared_ptrIN5cnoid17InverseKinematicsEED2Ev@Base 1.1.0
 (optional=templinst)_ZN5boost10shared_ptrIN5cnoid9JointPathEED1Ev@Base 1.1.0
 (optional=templinst)_ZN5boost10shared_ptrIN5cnoid9JointPathEED2Ev@Base 1.1.0
 (optional=templinst)_ZN5boost10shared_ptrINS_11filesystem222basic_filesystem_errorINS1_10basic_pathISsNS1_11path_traitsEEEE5m_impEE5resetEv@Base 1.1.0
 (optional=templinst)_ZN5boost10shared_ptrINS_11filesystem222basic_filesystem_errorINS1_10basic_pathISsNS1_11path_traitsEEEE5m_impEE5resetIS7_EEvPT_@Base 1.1.0
 (optional=templinst)_ZN5boost10shared_ptrINS_11filesystem222basic_filesystem_errorINS1_10basic_pathISsNS1_11path_traitsEEEE5m_impEED1Ev@Base 1.1.0
 (optional=templinst)_ZN5boost10shared_ptrINS_11filesystem222basic_filesystem_errorINS1_10basic_pathISsNS1_11path_traitsEEEE5m_impEED2Ev@Base 1.1.0
 (optional=templinst)_ZN5boost10shared_ptrINS_11filesystem26detail11dir_itr_impINS1_10basic_pathISsNS1_11path_traitsEEEEEED1Ev@Base 1.1.0
 (optional=templinst)_ZN5boost10shared_ptrINS_11filesystem26detail11dir_itr_impINS1_10basic_pathISsNS1_11path_traitsEEEEEED2Ev@Base 1.1.0
 (optional=templinst)_ZN5boost10shared_ptrINS_7signals6detail9slot_base6data_tEE5resetIS4_EEvPT_@Base 1.1.0
 (optional=templinst)_ZN5boost10shared_ptrIvED1Ev@Base 1.1.0
 (optional=templinst)_ZN5boost10shared_ptrIvED2Ev@Base 1.1.0
 (optional=templinst)_ZN5boost11filesystem210basic_pathISsNS0_11path_traitsEE28m_append_separator_if_neededEv@Base 1.1.0
 (optional=templinst)_ZN5boost11filesystem210basic_pathISsNS0_11path_traitsEE8iteratorD1Ev@Base 1.1.0
 (optional=templinst)_ZN5boost11filesystem210basic_pathISsNS0_11path_traitsEE8iteratorD2Ev@Base 1.1.0
 (optional=templinst)_ZN5boost11filesystem210basic_pathISsNS0_11path_traitsEEC1ERKSs@Base 1.1.0
 (optional=templinst)_ZN5boost11filesystem210basic_pathISsNS0_11path_traitsEEC2ERKSs@Base 1.1.0
 (optional=templinst)_ZN5boost11filesystem210basic_pathISsNS0_11path_traitsEED1Ev@Base 1.1.0
 (optional=templinst)_ZN5boost11filesystem210basic_pathISsNS0_11path_traitsEED2Ev@Base 1.1.0
 (optional=templinst)_ZN5boost11filesystem210basic_pathISsNS0_11path_traitsEEdVEPKc@Base 1.1.0
 (optional=templinst)_ZN5boost11filesystem212is_directoryINS0_10basic_pathISsNS0_11path_traitsEEEEENS_9enable_ifINS0_13is_basic_pathIT_EEbE4typeERKS7_@Base 1.1.0
 (optional=templinst)_ZN5boost11filesystem216change_extensionINS0_10basic_pathISsNS0_11path_traitsEEEEENS_9enable_ifINS0_13is_basic_pathIT_EES7_E4typeERKS7_RKNS7_11string_typeE@Base 1.1.0
 (optional=templinst)_ZN5boost11filesystem221basic_directory_entryINS0_10basic_pathISsNS0_11path_traitsEEEED1Ev@Base 1.1.0
 (optional=templinst)_ZN5boost11filesystem221basic_directory_entryINS0_10basic_pathISsNS0_11path_traitsEEEED2Ev@Base 1.1.0
 (optional=templinst)_ZN5boost11filesystem222basic_filesystem_errorINS0_10basic_pathISsNS0_11path_traitsEEEE5m_impD1Ev@Base 1.1.0
 (optional=templinst)_ZN5boost11filesystem222basic_filesystem_errorINS0_10basic_pathISsNS0_11path_traitsEEEE5m_impD2Ev@Base 1.1.0
 (optional=templinst)_ZN5boost11filesystem222basic_filesystem_errorINS0_10basic_pathISsNS0_11path_traitsEEEEC1ERKSsRKS4_NS_6system10error_codeE@Base 1.1.0
 (optional=templinst)_ZN5boost11filesystem222basic_filesystem_errorINS0_10basic_pathISsNS0_11path_traitsEEEEC2ERKSsRKS4_NS_6system10error_codeE@Base 1.1.0
 (optional=templinst)_ZN5boost11filesystem222basic_filesystem_errorINS0_10basic_pathISsNS0_11path_traitsEEEED0Ev@Base 1.1.0
 (optional=templinst)_ZN5boost11filesystem222basic_filesystem_errorINS0_10basic_pathISsNS0_11path_traitsEEEED1Ev@Base 1.1.0
 (optional=templinst)_ZN5boost11filesystem222basic_filesystem_errorINS0_10basic_pathISsNS0_11path_traitsEEEED2Ev@Base 1.1.0
 (optional=templinst)_ZN5boost11filesystem224basic_directory_iteratorINS0_10basic_pathISsNS0_11path_traitsEEEE6m_initERKS4_@Base 1.1.0
 (optional=templinst)_ZN5boost11filesystem224basic_directory_iteratorINS0_10basic_pathISsNS0_11path_traitsEEEE9incrementEv@Base 1.1.0
 (optional=templinst)_ZN5boost11filesystem224basic_directory_iteratorINS0_10basic_pathISsNS0_11path_traitsEEEEC1ERKS4_@Base 1.1.0
 (optional=templinst)_ZN5boost11filesystem224basic_directory_iteratorINS0_10basic_pathISsNS0_11path_traitsEEEEC2ERKS4_@Base 1.1.0
 (optional=templinst)_ZN5boost11filesystem224basic_directory_iteratorINS0_10basic_pathISsNS0_11path_traitsEEEED1Ev@Base 1.1.0
 (optional=templinst)_ZN5boost11filesystem224basic_directory_iteratorINS0_10basic_pathISsNS0_11path_traitsEEEED2Ev@Base 1.1.0
 (optional=templinst)_ZN5boost11filesystem26detail12filename_posISsNS0_11path_traitsEEENT_9size_typeERKS4_S5_@Base 1.1.0
 (optional=templinst)_ZN5boost11filesystem26detail13first_elementISsNS0_11path_traitsEEEvRKT_RNS4_9size_typeES8_S7_@Base 1.1.0
 (optional=templinst)_ZN5boost11filesystem26detail17is_non_root_slashISsNS0_11path_traitsEEEbRKT_NS4_9size_typeE@Base 1.1.0
 (optional=templinst)_ZN5boost11filesystem26detail20root_directory_startISsNS0_11path_traitsEEENT_9size_typeERKS4_S5_@Base 1.1.0
 _ZN5boost11filesystem26detail4whatEPKcRKNS0_10basic_pathISsNS0_11path_traitsEEES8_RSs@Base 1.1.0
 (optional=templinst)_ZN5boost11filesystem26existsINS0_10basic_pathISsNS0_11path_traitsEEEEENS_9enable_ifINS0_13is_basic_pathIT_EEbE4typeERKS7_@Base 1.1.0
 (optional=templinst)_ZN5boost11filesystem28basenameINS0_10basic_pathISsNS0_11path_traitsEEEEENS_9enable_ifINS0_13is_basic_pathIT_EENS7_11string_typeEE4typeERKS7_@Base 1.1.0
 (optional=templinst)_ZN5boost11filesystem29extensionINS0_10basic_pathISsNS0_11path_traitsEEEEENS_9enable_ifINS0_13is_basic_pathIT_EENS7_11string_typeEE4typeERKS7_@Base 1.1.0
 (optional=templinst)_ZN5boost11filesystem2dvISsNS0_11path_traitsEEENS0_10basic_pathIT_T0_EERKS6_RKS4_@Base 1.1.0
 (optional=templinst)_ZN5boost11filesystem2dvISsNS0_11path_traitsEEENS0_10basic_pathIT_T0_EERKS6_S8_@Base 1.1.0
 (optional=templinst)_ZN5boost12basic_formatIcSt11char_traitsIcESaIcEE18make_or_reuse_dataEm@Base 1.1.0
 (optional=templinst)_ZN5boost12basic_formatIcSt11char_traitsIcESaIcEE5clearEv@Base 1.1.0
 (optional=templinst)_ZN5boost12basic_formatIcSt11char_traitsIcESaIcEE5parseERKSs@Base 1.1.0
 (optional=templinst)_ZN5boost12basic_formatIcSt11char_traitsIcESaIcEEC1EPKc@Base 1.1.0
 (optional=templinst)_ZN5boost12basic_formatIcSt11char_traitsIcESaIcEEC2EPKc@Base 1.1.0
 (optional=templinst)_ZN5boost12basic_formatIcSt11char_traitsIcESaIcEED1Ev@Base 1.1.0
 (optional=templinst)_ZN5boost12basic_formatIcSt11char_traitsIcESaIcEED2Ev@Base 1.1.0
 (optional=templinst)_ZN5boost13intrusive_ptrIN5cnoid11ColdetModelEED1Ev@Base 1.1.0
 (optional=templinst)_ZN5boost13intrusive_ptrIN5cnoid11ColdetModelEED2Ev@Base 1.1.0
 (optional=templinst)_ZN5boost13intrusive_ptrIN5cnoid11ColdetModelEEaSERKS3_@Base 1.1.0
 (optional=templinst)_ZN5boost13intrusive_ptrIN5cnoid11YamlMappingEED1Ev@Base 1.1.0
 (optional=templinst)_ZN5boost13intrusive_ptrIN5cnoid11YamlMappingEED2Ev@Base 1.1.0
 (optional=templinst)_ZN5boost13intrusive_ptrIN5cnoid11YamlMappingEEaSEPS2_@Base 1.1.0
 (optional=templinst)_ZN5boost13intrusive_ptrIN5cnoid15ColdetModelPairEED1Ev@Base 1.1.0
 (optional=templinst)_ZN5boost13intrusive_ptrIN5cnoid15ColdetModelPairEED2Ev@Base 1.1.0
 (optional=templinst)_ZN5boost13intrusive_ptrIN5cnoid17VrmlProtoInstanceEED1Ev@Base 1.1.0
 (optional=templinst)_ZN5boost13intrusive_ptrIN5cnoid17VrmlProtoInstanceEED2Ev@Base 1.1.0
 (optional=templinst)_ZN5boost13intrusive_ptrIN5cnoid4BodyEED1Ev@Base 1.1.0
 (optional=templinst)_ZN5boost13intrusive_ptrIN5cnoid4BodyEED2Ev@Base 1.1.0
 (optional=templinst)_ZN5boost13intrusive_ptrIN5cnoid4BodyEEaSEPS2_@Base 1.1.0
 (optional=templinst)_ZN5boost13intrusive_ptrIN5cnoid7CFSImpl8LinkPairEED1Ev@Base 1.1.0
 (optional=templinst)_ZN5boost13intrusive_ptrIN5cnoid7CFSImpl8LinkPairEED2Ev@Base 1.1.0
 (optional=templinst)_ZN5boost13intrusive_ptrIN5cnoid7CFSImpl8LinkPairEEaSEPS3_@Base 1.1.0
 (optional=templinst)_ZN5boost13intrusive_ptrIN5cnoid8VrmlNodeEED1Ev@Base 1.1.0
 (optional=templinst)_ZN5boost13intrusive_ptrIN5cnoid8VrmlNodeEED2Ev@Base 1.1.0
 (optional=templinst)_ZN5boost13intrusive_ptrIN5cnoid8VrmlNodeEEaSERKS3_@Base 1.1.0
 (optional=templinst)_ZN5boost13intrusive_ptrIN5cnoid9LinkGroupEED1Ev@Base 1.1.0
 (optional=templinst)_ZN5boost13intrusive_ptrIN5cnoid9LinkGroupEED2Ev@Base 1.1.0
 (optional=templinst)_ZN5boost13intrusive_ptrIN5cnoid9VrmlProtoEED1Ev@Base 1.1.0
 (optional=templinst)_ZN5boost13intrusive_ptrIN5cnoid9VrmlProtoEED2Ev@Base 1.1.0
 (optional=templinst)_ZN5boost14char_separatorIcSt11char_traitsIcEED1Ev@Base 1.1.0
 (optional=templinst)_ZN5boost14char_separatorIcSt11char_traitsIcEED2Ev@Base 1.1.0
 (optional=templinst)_ZN5boost14checked_deleteIN5cnoid12JointNodeSetEEEvPT_@Base 1.1.0
 (optional=templinst)_ZN5boost14checked_deleteINS_11filesystem222basic_filesystem_errorINS1_10basic_pathISsNS1_11path_traitsEEEE5m_impEEEvPT_@Base 1.1.0
 (optional=templinst)_ZN5boost14checked_deleteINS_11filesystem26detail11dir_itr_impINS1_10basic_pathISsNS1_11path_traitsEEEEEEEvPT_@Base 1.1.0
 (optional=templinst)_ZN5boost14checked_deleteINS_7signals6detail9slot_base6data_tEEEvPT_@Base 1.1.0
 (optional=templinst)_ZN5boost14token_iteratorINS_14char_separatorIcSt11char_traitsIcEEEN9__gnu_cxx17__normal_iteratorIPKcSsEESsED1Ev@Base 1.1.0
 (optional=templinst)_ZN5boost14token_iteratorINS_14char_separatorIcSt11char_traitsIcEEEN9__gnu_cxx17__normal_iteratorIPKcSsEESsED2Ev@Base 1.1.0
 (optional=templinst)_ZN5boost15throw_exceptionINS_17bad_function_callEEEvRKT_@Base 1.1.0
 (optional=templinst)_ZN5boost15throw_exceptionINS_2io12too_few_argsEEEvRKT_@Base 1.1.0
 (optional=templinst)_ZN5boost15throw_exceptionINS_2io13too_many_argsEEEvRKT_@Base 1.1.0
 (optional=templinst)_ZN5boost15throw_exceptionINS_2io17bad_format_stringEEEvRKT_@Base 1.1.0
 (optional=templinst)_ZN5boost16base_from_memberINS_10shared_ptrINS_2io18basic_altstringbufIcSt11char_traitsIcESaIcEEEEELi0EED1Ev@Base 1.1.0
 (optional=templinst)_ZN5boost16base_from_memberINS_10shared_ptrINS_2io18basic_altstringbufIcSt11char_traitsIcESaIcEEEEELi0EED2Ev@Base 1.1.0
 _ZN5boost16exception_detail10clone_baseD0Ev@Base 1.1.0
 _ZN5boost16exception_detail10clone_baseD1Ev@Base 1.1.0
 _ZN5boost16exception_detail10clone_baseD2Ev@Base 1.1.0
 (optional=templinst)_ZN5boost16exception_detail10clone_implINS0_19error_info_injectorINS_17bad_function_callEEEED0Ev@Base 1.1.0
 (optional=templinst)_ZN5boost16exception_detail10clone_implINS0_19error_info_injectorINS_17bad_function_callEEEED1Ev@Base 1.1.0
 (optional=templinst)_ZN5boost16exception_detail10clone_implINS0_19error_info_injectorINS_17bad_function_callEEEED2Ev@Base 1.1.0
 (optional=templinst)_ZN5boost16exception_detail10clone_implINS0_19error_info_injectorINS_2io12too_few_argsEEEED0Ev@Base 1.1.0
 (optional=templinst)_ZN5boost16exception_detail10clone_implINS0_19error_info_injectorINS_2io12too_few_argsEEEED1Ev@Base 1.1.0
 (optional=templinst)_ZN5boost16exception_detail10clone_implINS0_19error_info_injectorINS_2io12too_few_argsEEEED2Ev@Base 1.1.0
 (optional=templinst)_ZN5boost16exception_detail10clone_implINS0_19error_info_injectorINS_2io13too_many_argsEEEED0Ev@Base 1.1.0
 (optional=templinst)_ZN5boost16exception_detail10clone_implINS0_19error_info_injectorINS_2io13too_many_argsEEEED1Ev@Base 1.1.0
 (optional=templinst)_ZN5boost16exception_detail10clone_implINS0_19error_info_injectorINS_2io13too_many_argsEEEED2Ev@Base 1.1.0
 (optional=templinst)_ZN5boost16exception_detail10clone_implINS0_19error_info_injectorINS_2io17bad_format_stringEEEED0Ev@Base 1.1.0
 (optional=templinst)_ZN5boost16exception_detail10clone_implINS0_19error_info_injectorINS_2io17bad_format_stringEEEED1Ev@Base 1.1.0
 (optional=templinst)_ZN5boost16exception_detail10clone_implINS0_19error_info_injectorINS_2io17bad_format_stringEEEED2Ev@Base 1.1.0
 (optional=templinst)_ZN5boost16exception_detail12refcount_ptrINS0_20error_info_containerEE7releaseEv@Base 1.1.0
 (optional=templinst)_ZN5boost16exception_detail19error_info_injectorINS_17bad_function_callEEC1ERKS3_@Base 1.1.0
 (optional=templinst)_ZN5boost16exception_detail19error_info_injectorINS_17bad_function_callEEC2ERKS3_@Base 1.1.0
 (optional=templinst)_ZN5boost16exception_detail19error_info_injectorINS_17bad_function_callEED0Ev@Base 1.1.0
 (optional=templinst)_ZN5boost16exception_detail19error_info_injectorINS_17bad_function_callEED1Ev@Base 1.1.0
 (optional=templinst)_ZN5boost16exception_detail19error_info_injectorINS_17bad_function_callEED2Ev@Base 1.1.0
 (optional=templinst)_ZN5boost16exception_detail19error_info_injectorINS_2io12too_few_argsEEC1ERKS4_@Base 1.1.0
 (optional=templinst)_ZN5boost16exception_detail19error_info_injectorINS_2io12too_few_argsEEC2ERKS4_@Base 1.1.0
 (optional=templinst)_ZN5boost16exception_detail19error_info_injectorINS_2io12too_few_argsEED0Ev@Base 1.1.0
 (optional=templinst)_ZN5boost16exception_detail19error_info_injectorINS_2io12too_few_argsEED1Ev@Base 1.1.0
 (optional=templinst)_ZN5boost16exception_detail19error_info_injectorINS_2io12too_few_argsEED2Ev@Base 1.1.0
 (optional=templinst)_ZN5boost16exception_detail19error_info_injectorINS_2io13too_many_argsEEC1ERKS4_@Base 1.1.0
 (optional=templinst)_ZN5boost16exception_detail19error_info_injectorINS_2io13too_many_argsEEC2ERKS4_@Base 1.1.0
 (optional=templinst)_ZN5boost16exception_detail19error_info_injectorINS_2io13too_many_argsEED0Ev@Base 1.1.0
 (optional=templinst)_ZN5boost16exception_detail19error_info_injectorINS_2io13too_many_argsEED1Ev@Base 1.1.0
 (optional=templinst)_ZN5boost16exception_detail19error_info_injectorINS_2io13too_many_argsEED2Ev@Base 1.1.0
 (optional=templinst)_ZN5boost16exception_detail19error_info_injectorINS_2io17bad_format_stringEEC1ERKS4_@Base 1.1.0
 (optional=templinst)_ZN5boost16exception_detail19error_info_injectorINS_2io17bad_format_stringEEC2ERKS4_@Base 1.1.0
 (optional=templinst)_ZN5boost16exception_detail19error_info_injectorINS_2io17bad_format_stringEED0Ev@Base 1.1.0
 (optional=templinst)_ZN5boost16exception_detail19error_info_injectorINS_2io17bad_format_stringEED1Ev@Base 1.1.0
 (optional=templinst)_ZN5boost16exception_detail19error_info_injectorINS_2io17bad_format_stringEED2Ev@Base 1.1.0
 _ZN5boost16exception_detail20copy_boost_exceptionEPNS_9exceptionEPKS1_@Base 1.1.0
 _ZN5boost17bad_function_callC1Ev@Base 1.1.0
 _ZN5boost17bad_function_callC2Ev@Base 1.1.0
 _ZN5boost17bad_function_callD0Ev@Base 1.1.0
 _ZN5boost17bad_function_callD1Ev@Base 1.1.0
 _ZN5boost17bad_function_callD2Ev@Base 1.1.0
 (optional=templinst)_ZN5boost20dynamic_pointer_castIN5cnoid17VrmlProtoInstanceENS1_8VrmlNodeEEENS_13intrusive_ptrIT_EERKNS4_IT0_EE@Base 1.1.0
 (optional=templinst)_ZN5boost20dynamic_pointer_castIN5cnoid18VrmlIndexedFaceSetENS1_8VrmlNodeEEENS_13intrusive_ptrIT_EERKNS4_IT0_EE@Base 1.1.0
 _ZN5boost2io12format_errorD0Ev@Base 1.1.0
 _ZN5boost2io12format_errorD1Ev@Base 1.1.0
 _ZN5boost2io12format_errorD2Ev@Base 1.1.0
 _ZN5boost2io12too_few_argsD0Ev@Base 1.1.0
 _ZN5boost2io12too_few_argsD1Ev@Base 1.1.0
 _ZN5boost2io12too_few_argsD2Ev@Base 1.1.0
 _ZN5boost2io13too_many_argsD0Ev@Base 1.1.0
 _ZN5boost2io13too_many_argsD1Ev@Base 1.1.0
 _ZN5boost2io13too_many_argsD2Ev@Base 1.1.0
 _ZN5boost2io17bad_format_stringD0Ev@Base 1.1.0
 _ZN5boost2io17bad_format_stringD1Ev@Base 1.1.0
 _ZN5boost2io17bad_format_stringD2Ev@Base 1.1.0
 (optional=templinst)_ZN5boost2io18basic_altstringbufIcSt11char_traitsIcESaIcEE12clear_bufferEv@Base 1.1.0
 (optional=templinst)_ZN5boost2io18basic_altstringbufIcSt11char_traitsIcESaIcEE7seekoffElSt12_Ios_SeekdirSt13_Ios_Openmode@Base 1.1.0
 (optional=templinst)_ZN5boost2io18basic_altstringbufIcSt11char_traitsIcESaIcEE7seekposESt4fposI11__mbstate_tESt13_Ios_Openmode@Base 1.1.0
 (optional=templinst)_ZN5boost2io18basic_altstringbufIcSt11char_traitsIcESaIcEE8overflowEi@Base 1.1.0
 (optional=templinst)_ZN5boost2io18basic_altstringbufIcSt11char_traitsIcESaIcEE9pbackfailEi@Base 1.1.0
 (optional=templinst)_ZN5boost2io18basic_altstringbufIcSt11char_traitsIcESaIcEE9underflowEv@Base 1.1.0
 (optional=templinst)_ZN5boost2io18basic_altstringbufIcSt11char_traitsIcESaIcEED0Ev@Base 1.1.0
 (optional=templinst)_ZN5boost2io18basic_altstringbufIcSt11char_traitsIcESaIcEED1Ev@Base 1.1.0
 (optional=templinst)_ZN5boost2io18basic_altstringbufIcSt11char_traitsIcESaIcEED2Ev@Base 1.1.0
 (optional=templinst)_ZN5boost2io22basic_oaltstringstreamIcSt11char_traitsIcESaIcEEC1EPNS0_18basic_altstringbufIcS3_S4_EE@Base 1.1.0
 (optional=templinst)_ZN5boost2io22basic_oaltstringstreamIcSt11char_traitsIcESaIcEED0Ev@Base 1.1.0
 (optional=templinst)_ZN5boost2io22basic_oaltstringstreamIcSt11char_traitsIcESaIcEED1Ev@Base 1.1.0
 (optional=templinst)_ZN5boost2io6detail10distributeIcSt11char_traitsIcESaIcERKSsEEvRNS_12basic_formatIT_T0_T1_EET2_@Base 1.1.0
 (optional=templinst)_ZN5boost2io6detail10distributeIcSt11char_traitsIcESaIcERKdEEvRNS_12basic_formatIT_T0_T1_EET2_@Base 1.1.0
 (optional=templinst)_ZN5boost2io6detail10distributeIcSt11char_traitsIcESaIcERPKcEEvRNS_12basic_formatIT_T0_T1_EET2_@Base 1.1.0
 (optional=templinst)_ZN5boost2io6detail10distributeIcSt11char_traitsIcESaIcERSsEEvRNS_12basic_formatIT_T0_T1_EET2_@Base 1.1.0
 (optional=templinst)_ZN5boost2io6detail10distributeIcSt11char_traitsIcESaIcERdEEvRNS_12basic_formatIT_T0_T1_EET2_@Base 1.1.0
 (optional=templinst)_ZN5boost2io6detail10distributeIcSt11char_traitsIcESaIcERiEEvRNS_12basic_formatIT_T0_T1_EET2_@Base 1.1.0
 (optional=templinst)_ZN5boost2io6detail11format_itemIcSt11char_traitsIcESaIcEEC1ERKS6_@Base 1.1.0
 (optional=templinst)_ZN5boost2io6detail11format_itemIcSt11char_traitsIcESaIcEEC2ERKS6_@Base 1.1.0
 (optional=templinst)_ZN5boost2io6detail11format_itemIcSt11char_traitsIcESaIcEED1Ev@Base 1.1.0
 (optional=templinst)_ZN5boost2io6detail11format_itemIcSt11char_traitsIcESaIcEED2Ev@Base 1.1.0
 (optional=templinst)_ZN5boost2io6detail13skip_asteriskIN9__gnu_cxx17__normal_iteratorIPKcSsEESt5ctypeIcEEET_SA_SA_RKT0_@Base 1.1.0
 _ZN5boost2io6detail21maybe_throw_exceptionEhmm@Base 1.1.0
 (optional=templinst)_ZN5boost2io6detail22parse_printf_directiveIcSt11char_traitsIcESaIcEN9__gnu_cxx17__normal_iteratorIPKcSsEESt5ctypeIcEEEbRT2_RKSD_PNS1_11format_itemIT_T0_T1_EERKT3_mh@Base 1.1.0
 (optional=templinst)_ZN5boost2io6detail24upper_bound_from_fstringISsSt5ctypeIcEEEiRKT_NS5_10value_typeERKT0_h@Base 1.1.0
 (optional=templinst)_ZN5boost2io6detail3putIcSt11char_traitsIcESaIcERKSsEEvT2_RKNS1_11format_itemIT_T0_T1_EERNS_12basic_formatISA_SB_SC_E11string_typeERNSH_20internal_streambuf_tEPSt6locale@Base 1.1.0
 (optional=templinst)_ZN5boost2io6detail3putIcSt11char_traitsIcESaIcERKdEEvT2_RKNS1_11format_itemIT_T0_T1_EERNS_12basic_formatISA_SB_SC_E11string_typeERNSH_20internal_streambuf_tEPSt6locale@Base 1.1.0
 (optional=templinst)_ZN5boost2io6detail3putIcSt11char_traitsIcESaIcERPKcEEvT2_RKNS1_11format_itemIT_T0_T1_EERNS_12basic_formatISB_SC_SD_E11string_typeERNSI_20internal_streambuf_tEPSt6locale@Base 1.1.0
 (optional=templinst)_ZN5boost2io6detail3putIcSt11char_traitsIcESaIcERSsEEvT2_RKNS1_11format_itemIT_T0_T1_EERNS_12basic_formatIS9_SA_SB_E11string_typeERNSG_20internal_streambuf_tEPSt6locale@Base 1.1.0
 (optional=templinst)_ZN5boost2io6detail3putIcSt11char_traitsIcESaIcERdEEvT2_RKNS1_11format_itemIT_T0_T1_EERNS_12basic_formatIS9_SA_SB_E11string_typeERNSG_20internal_streambuf_tEPSt6locale@Base 1.1.0
 (optional=templinst)_ZN5boost2io6detail3putIcSt11char_traitsIcESaIcERiEEvT2_RKNS1_11format_itemIT_T0_T1_EERNS_12basic_formatIS9_SA_SB_E11string_typeERNSG_20internal_streambuf_tEPSt6locale@Base 1.1.0
 (optional=templinst)_ZN5boost2io6detail4feedIcSt11char_traitsIcESaIcERKdEERNS_12basic_formatIT_T0_T1_EESD_T2_@Base 1.1.0
 (optional=templinst)_ZN5boost2io6detail4feedIcSt11char_traitsIcESaIcERdEERNS_12basic_formatIT_T0_T1_EESC_T2_@Base 1.1.0
 (optional=templinst)_ZN5boost2io6detail4feedIcSt11char_traitsIcESaIcERiEERNS_12basic_formatIT_T0_T1_EESC_T2_@Base 1.1.0
 (optional=templinst)_ZN5boost2io6detail6mk_strIcSt11char_traitsIcESaIcEEEvRSbIT_T0_T1_EPKS6_NS9_9size_typeElS6_St13_Ios_FmtflagsS6_b@Base 1.1.0
 (optional=templinst)_ZN5boost2io6detail7str2intIiN9__gnu_cxx17__normal_iteratorIPKcSsEESt5ctypeIcEEET0_RKSA_SC_RT_RKT1_@Base 1.1.0
 (optional=templinst)_ZN5boost2io6detail7str2intIlN9__gnu_cxx17__normal_iteratorIPKcSsEESt5ctypeIcEEET0_RKSA_SC_RT_RKT1_@Base 1.1.0
 _ZN5boost3any11placeholderD0Ev@Base 1.1.0
 _ZN5boost3any11placeholderD1Ev@Base 1.1.0
 _ZN5boost3any11placeholderD2Ev@Base 1.1.0
 (optional=templinst)_ZN5boost3any6holderINS_10last_valueIvEEED0Ev@Base 1.1.0
 (optional=templinst)_ZN5boost3any6holderINS_10last_valueIvEEED1Ev@Base 1.1.0
 (optional=templinst)_ZN5boost3any6holderINS_10last_valueIvEEED2Ev@Base 1.1.0
 (optional=templinst)_ZN5boost3any6holderINS_8functionIFvRKSsEEEED0Ev@Base 1.1.0
 (optional=templinst)_ZN5boost3any6holderINS_8functionIFvRKSsEEEED1Ev@Base 1.1.0
 (optional=templinst)_ZN5boost3any6holderINS_8functionIFvRKSsEEEED2Ev@Base 1.1.0
 (optional=templinst)_ZN5boost3anyC1INS_8functionIFvRKSsEEEEERKT_@Base 1.1.0
 (optional=templinst)_ZN5boost3anyC2INS_8functionIFvRKSsEEEEERKT_@Base 1.1.0
 (optional=templinst)_ZN5boost3getIN5Eigen6MatrixIdLi3ELi1ELi0ELi3ELi1EEEbidNS2_IdLi2ELi1ELi0ELi2ELi1EEES3_NS1_9AngleAxisIdEENS1_5ArrayIfLi3ELi1ELi0ELi3ELi1EEEN5cnoid6SFTimeESsNS_13intrusive_ptrINS9_8VrmlNodeEEENS9_7SFImageESt6vectorIiSaIiEESF_IdSaIdEESF_IS4_NS1_17aligned_allocatorIS4_EEESF_IS3_SaIS3_EESF_IS6_SaIS6_EESF_IS8_SaIS8_EESF_ISA_SaISA_EESF_ISsSaISsEESF_ISD_SaISD_EEEENS_13add_referenceIT_E4typeERNS_7variantIT0_T1_T2_T3_T4_T5_T6_T7_T8_T9_T10_T11_T12_T13_T14_T15_T16_T17_T18_T19_EE@Base 1.1.0
 (optional=templinst)_ZN5boost3getIN5Eigen9AngleAxisIdEEbidNS1_6MatrixIdLi2ELi1ELi0ELi2ELi1EEENS4_IdLi3ELi1ELi0ELi3ELi1EEES3_NS1_5ArrayIfLi3ELi1ELi0ELi3ELi1EEEN5cnoid6SFTimeESsNS_13intrusive_ptrINS9_8VrmlNodeEEENS9_7SFImageESt6vectorIiSaIiEESF_IdSaIdEESF_IS5_NS1_17aligned_allocatorIS5_EEESF_IS6_SaIS6_EESF_IS3_SaIS3_EESF_IS8_SaIS8_EESF_ISA_SaISA_EESF_ISsSaISsEESF_ISD_SaISD_EEEENS_13add_referenceIT_E4typeERNS_7variantIT0_T1_T2_T3_T4_T5_T6_T7_T8_T9_T10_T11_T12_T13_T14_T15_T16_T17_T18_T19_EE@Base 1.1.0
 (optional=templinst)_ZN5boost3getISsbidN5Eigen6MatrixIdLi2ELi1ELi0ELi2ELi1EEENS2_IdLi3ELi1ELi0ELi3ELi1EEENS1_9AngleAxisIdEENS1_5ArrayIfLi3ELi1ELi0ELi3ELi1EEEN5cnoid6SFTimeESsNS_13intrusive_ptrINS9_8VrmlNodeEEENS9_7SFImageESt6vectorIiSaIiEESF_IdSaIdEESF_IS3_NS1_17aligned_allocatorIS3_EEESF_IS4_SaIS4_EESF_IS6_SaIS6_EESF_IS8_SaIS8_EESF_ISA_SaISA_EESF_ISsSaISsEESF_ISD_SaISD_EEEENS_13add_referenceIT_E4typeERNS_7variantIT0_T1_T2_T3_T4_T5_T6_T7_T8_T9_T10_T11_T12_T13_T14_T15_T16_T17_T18_T19_EE@Base 1.1.0
 (optional=templinst)_ZN5boost3getISt6vectorISsSaISsEEbidN5Eigen6MatrixIdLi2ELi1ELi0ELi2ELi1EEENS5_IdLi3ELi1ELi0ELi3ELi1EEENS4_9AngleAxisIdEENS4_5ArrayIfLi3ELi1ELi0ELi3ELi1EEEN5cnoid6SFTimeESsNS_13intrusive_ptrINSC_8VrmlNodeEEENSC_7SFImageES1_IiSaIiEES1_IdSaIdEES1_IS6_NS4_17aligned_allocatorIS6_EEES1_IS7_SaIS7_EES1_IS9_SaIS9_EES1_ISB_SaISB_EES1_ISD_SaISD_EES3_S1_ISG_SaISG_EEEENS_13add_referenceIT_E4typeERNS_7variantIT0_T1_T2_T3_T4_T5_T6_T7_T8_T9_T10_T11_T12_T13_T14_T15_T16_T17_T18_T19_EE@Base 1.1.0
 (optional=templinst)_ZN5boost3getIibidN5Eigen6MatrixIdLi2ELi1ELi0ELi2ELi1EEENS2_IdLi3ELi1ELi0ELi3ELi1EEENS1_9AngleAxisIdEENS1_5ArrayIfLi3ELi1ELi0ELi3ELi1EEEN5cnoid6SFTimeESsNS_13intrusive_ptrINS9_8VrmlNodeEEENS9_7SFImageESt6vectorIiSaIiEESF_IdSaIdEESF_IS3_NS1_17aligned_allocatorIS3_EEESF_IS4_SaIS4_EESF_IS6_SaIS6_EESF_IS8_SaIS8_EESF_ISA_SaISA_EESF_ISsSaISsEESF_ISD_SaISD_EEEENS_13add_referenceIT_E4typeERNS_7variantIT0_T1_T2_T3_T4_T5_T6_T7_T8_T9_T10_T11_T12_T13_T14_T15_T16_T17_T18_T19_EE@Base 1.1.0
 (optional=templinst)_ZN5boost4bindIbN5cnoid14BodyLoaderImplEPNS1_9VrmlShapeERKN5Eigen9TransformIdLi3ELi2ELi0EEEPS2_NS_3argILi1EEENSB_ILi2EEEEENS_3_bi6bind_tIT_NS_4_mfi3mf2ISG_T0_T1_T2_EENSE_9list_av_3IT3_T4_T5_E4typeEEEMSJ_FSG_SK_SL_ESO_SP_SQ_@Base 1.1.0
 (optional=templinst)_ZN5boost4slotINS_8functionIFvRKSsEEEEC1INS_6signalIS4_NS_10last_valueIvEEiSt4lessIiES5_EEEERKT_@Base 1.1.0
 (optional=templinst)_ZN5boost4slotINS_8functionIFvRKSsEEEEC2INS_6signalIS4_NS_10last_valueIvEEiSt4lessIiES5_EEEERKT_@Base 1.1.0
 (optional=templinst)_ZN5boost4slotINS_8functionIFvRKSsEEEED1Ev@Base 1.1.0
 (optional=templinst)_ZN5boost4slotINS_8functionIFvRKSsEEEED2Ev@Base 1.1.0
 (optional=templinst)_ZN5boost6detail11multi_array22const_multi_array_viewIN5Eigen9TransformIdLi3ELi2ELi0EEELm1EPS5_EC1INS_5arrayIlLm1EEElEES6_RKT_RKNS9_IT0_Lm1EEE@Base 1.1.0
 (optional=templinst)_ZN5boost6detail11multi_array22const_multi_array_viewIN5Eigen9TransformIdLi3ELi2ELi0EEELm1EPS5_EC2INS_5arrayIlLm1EEElEES6_RKT_RKNS9_IT0_Lm1EEE@Base 1.1.0
 (optional=templinst)_ZN5boost6detail11multi_array22const_multi_array_viewIdLm1EPdEC1INS_5arrayIlLm1EEElEES3_RKT_RKNS6_IT0_Lm1EEE@Base 1.1.0
 (optional=templinst)_ZN5boost6detail11multi_array22const_multi_array_viewIdLm1EPdEC2INS_5arrayIlLm1EEElEES3_RKT_RKNS6_IT0_Lm1EEE@Base 1.1.0
 (optional=templinst)_ZN5boost6detail12shared_countC1IN5cnoid12ModelNodeSetEEEPT_@Base 1.1.0
 (optional=templinst)_ZN5boost6detail12shared_countC1INS_7signals6detail9slot_base6data_tEEEPT_@Base 1.1.0
 (optional=templinst)_ZN5boost6detail12shared_countC2IN5cnoid12ModelNodeSetEEEPT_@Base 1.1.0
 (optional=templinst)_ZN5boost6detail12shared_countC2INS_7signals6detail9slot_base6data_tEEEPT_@Base 1.1.0
 _ZN5boost6detail12shared_countD1Ev@Base 1.1.0
 _ZN5boost6detail12shared_countD2Ev@Base 1.1.0
 _ZN5boost6detail15sp_counted_base7destroyEv@Base 1.1.0
 _ZN5boost6detail15sp_counted_base7releaseEv@Base 1.1.0
 _ZN5boost6detail15sp_counted_baseD0Ev@Base 1.1.0
 _ZN5boost6detail15sp_counted_baseD1Ev@Base 1.1.0
 _ZN5boost6detail15sp_counted_baseD2Ev@Base 1.1.0
 (optional=templinst)_ZN5boost6detail17sp_counted_impl_pIN5cnoid10Vector3SeqEE11get_deleterERKSt9type_info@Base 1.1.0
 (optional=templinst)_ZN5boost6detail17sp_counted_impl_pIN5cnoid10Vector3SeqEE7disposeEv@Base 1.1.0
 (optional=templinst)_ZN5boost6detail17sp_counted_impl_pIN5cnoid10Vector3SeqEED0Ev@Base 1.1.0
 (optional=templinst)_ZN5boost6detail17sp_counted_impl_pIN5cnoid10Vector3SeqEED1Ev@Base 1.1.0
 (optional=templinst)_ZN5boost6detail17sp_counted_impl_pIN5cnoid10Vector3SeqEED2Ev@Base 1.1.0
 (optional=templinst)_ZN5boost6detail17sp_counted_impl_pIN5cnoid11CompositeIKEE11get_deleterERKSt9type_info@Base 1.1.0
 (optional=templinst)_ZN5boost6detail17sp_counted_impl_pIN5cnoid11CompositeIKEE7disposeEv@Base 1.1.0
 (optional=templinst)_ZN5boost6detail17sp_counted_impl_pIN5cnoid11CompositeIKEED0Ev@Base 1.1.0
 (optional=templinst)_ZN5boost6detail17sp_counted_impl_pIN5cnoid11CompositeIKEED1Ev@Base 1.1.0
 (optional=templinst)_ZN5boost6detail17sp_counted_impl_pIN5cnoid11CompositeIKEED2Ev@Base 1.1.0
 (optional=templinst)_ZN5boost6detail17sp_counted_impl_pIN5cnoid12JointNodeSetEE11get_deleterERKSt9type_info@Base 1.1.0
 (optional=templinst)_ZN5boost6detail17sp_counted_impl_pIN5cnoid12JointNodeSetEE7disposeEv@Base 1.1.0
 (optional=templinst)_ZN5boost6detail17sp_counted_impl_pIN5cnoid12JointNodeSetEED0Ev@Base 1.1.0
 (optional=templinst)_ZN5boost6detail17sp_counted_impl_pIN5cnoid12JointNodeSetEED1Ev@Base 1.1.0
 (optional=templinst)_ZN5boost6detail17sp_counted_impl_pIN5cnoid12JointNodeSetEED2Ev@Base 1.1.0
 (optional=templinst)_ZN5boost6detail17sp_counted_impl_pIN5cnoid12LinkTraverseEE11get_deleterERKSt9type_info@Base 1.1.0
 (optional=templinst)_ZN5boost6detail17sp_counted_impl_pIN5cnoid12LinkTraverseEE7disposeEv@Base 1.1.0
 (optional=templinst)_ZN5boost6detail17sp_counted_impl_pIN5cnoid12LinkTraverseEED0Ev@Base 1.1.0
 (optional=templinst)_ZN5boost6detail17sp_counted_impl_pIN5cnoid12LinkTraverseEED1Ev@Base 1.1.0
 (optional=templinst)_ZN5boost6detail17sp_counted_impl_pIN5cnoid12LinkTraverseEED2Ev@Base 1.1.0
 (optional=templinst)_ZN5boost6detail17sp_counted_impl_pIN5cnoid12ModelNodeSetEE11get_deleterERKSt9type_info@Base 1.1.0
 (optional=templinst)_ZN5boost6detail17sp_counted_impl_pIN5cnoid12ModelNodeSetEE7disposeEv@Base 1.1.0
 (optional=templinst)_ZN5boost6detail17sp_counted_impl_pIN5cnoid12ModelNodeSetEED0Ev@Base 1.1.0
 (optional=templinst)_ZN5boost6detail17sp_counted_impl_pIN5cnoid12ModelNodeSetEED1Ev@Base 1.1.0
 (optional=templinst)_ZN5boost6detail17sp_counted_impl_pIN5cnoid12ModelNodeSetEED2Ev@Base 1.1.0
 (optional=templinst)_ZN5boost6detail17sp_counted_impl_pIN5cnoid13MultiValueSeqEE11get_deleterERKSt9type_info@Base 1.1.0
 (optional=templinst)_ZN5boost6detail17sp_counted_impl_pIN5cnoid13MultiValueSeqEE7disposeEv@Base 1.1.0
 (optional=templinst)_ZN5boost6detail17sp_counted_impl_pIN5cnoid13MultiValueSeqEED0Ev@Base 1.1.0
 (optional=templinst)_ZN5boost6detail17sp_counted_impl_pIN5cnoid13MultiValueSeqEED1Ev@Base 1.1.0
 (optional=templinst)_ZN5boost6detail17sp_counted_impl_pIN5cnoid13MultiValueSeqEED2Ev@Base 1.1.0
 (optional=templinst)_ZN5boost6detail17sp_counted_impl_pIN5cnoid15MultiAffine3SeqEE11get_deleterERKSt9type_info@Base 1.1.0
 (optional=templinst)_ZN5boost6detail17sp_counted_impl_pIN5cnoid15MultiAffine3SeqEE7disposeEv@Base 1.1.0
 (optional=templinst)_ZN5boost6detail17sp_counted_impl_pIN5cnoid15MultiAffine3SeqEED0Ev@Base 1.1.0
 (optional=templinst)_ZN5boost6detail17sp_counted_impl_pIN5cnoid15MultiAffine3SeqEED1Ev@Base 1.1.0
 (optional=templinst)_ZN5boost6detail17sp_counted_impl_pIN5cnoid15MultiAffine3SeqEED2Ev@Base 1.1.0
 (optional=templinst)_ZN5boost6detail17sp_counted_impl_pIN5cnoid17ForwardDynamicsMMEE11get_deleterERKSt9type_info@Base 1.1.0
 (optional=templinst)_ZN5boost6detail17sp_counted_impl_pIN5cnoid17ForwardDynamicsMMEE7disposeEv@Base 1.1.0
 (optional=templinst)_ZN5boost6detail17sp_counted_impl_pIN5cnoid17ForwardDynamicsMMEED0Ev@Base 1.1.0
 (optional=templinst)_ZN5boost6detail17sp_counted_impl_pIN5cnoid17ForwardDynamicsMMEED1Ev@Base 1.1.0
 (optional=templinst)_ZN5boost6detail17sp_counted_impl_pIN5cnoid17ForwardDynamicsMMEED2Ev@Base 1.1.0
 (optional=templinst)_ZN5boost6detail17sp_counted_impl_pIN5cnoid18ForwardDynamicsABMEE11get_deleterERKSt9type_info@Base 1.1.0
 (optional=templinst)_ZN5boost6detail17sp_counted_impl_pIN5cnoid18ForwardDynamicsABMEE7disposeEv@Base 1.1.0
 (optional=templinst)_ZN5boost6detail17sp_counted_impl_pIN5cnoid18ForwardDynamicsABMEED0Ev@Base 1.1.0
 (optional=templinst)_ZN5boost6detail17sp_counted_impl_pIN5cnoid18ForwardDynamicsABMEED1Ev@Base 1.1.0
 (optional=templinst)_ZN5boost6detail17sp_counted_impl_pIN5cnoid18ForwardDynamicsABMEED2Ev@Base 1.1.0
 (optional=templinst)_ZN5boost6detail17sp_counted_impl_pIN5cnoid19CustomizedJointPathEE11get_deleterERKSt9type_info@Base 1.1.0
 (optional=templinst)_ZN5boost6detail17sp_counted_impl_pIN5cnoid19CustomizedJointPathEE7disposeEv@Base 1.1.0
 (optional=templinst)_ZN5boost6detail17sp_counted_impl_pIN5cnoid19CustomizedJointPathEED0Ev@Base 1.1.0
 (optional=templinst)_ZN5boost6detail17sp_counted_impl_pIN5cnoid19CustomizedJointPathEED1Ev@Base 1.1.0
 (optional=templinst)_ZN5boost6detail17sp_counted_impl_pIN5cnoid19CustomizedJointPathEED2Ev@Base 1.1.0
 (optional=templinst)_ZN5boost6detail17sp_counted_impl_pIN5cnoid8LinkPathEE11get_deleterERKSt9type_info@Base 1.1.0
 (optional=templinst)_ZN5boost6detail17sp_counted_impl_pIN5cnoid8LinkPathEE7disposeEv@Base 1.1.0
 (optional=templinst)_ZN5boost6detail17sp_counted_impl_pIN5cnoid8LinkPathEED0Ev@Base 1.1.0
 (optional=templinst)_ZN5boost6detail17sp_counted_impl_pIN5cnoid8LinkPathEED1Ev@Base 1.1.0
 (optional=templinst)_ZN5boost6detail17sp_counted_impl_pIN5cnoid8LinkPathEED2Ev@Base 1.1.0
 (optional=templinst)_ZN5boost6detail17sp_counted_impl_pIN5cnoid9JointPathEE11get_deleterERKSt9type_info@Base 1.1.0
 (optional=templinst)_ZN5boost6detail17sp_counted_impl_pIN5cnoid9JointPathEE7disposeEv@Base 1.1.0
 (optional=templinst)_ZN5boost6detail17sp_counted_impl_pIN5cnoid9JointPathEED0Ev@Base 1.1.0
 (optional=templinst)_ZN5boost6detail17sp_counted_impl_pIN5cnoid9JointPathEED1Ev@Base 1.1.0
 (optional=templinst)_ZN5boost6detail17sp_counted_impl_pIN5cnoid9JointPathEED2Ev@Base 1.1.0
 (optional=templinst)_ZN5boost6detail17sp_counted_impl_pINS_11filesystem222basic_filesystem_errorINS2_10basic_pathISsNS2_11path_traitsEEEE5m_impEE11get_deleterERKSt9type_info@Base 1.1.0
 (optional=templinst)_ZN5boost6detail17sp_counted_impl_pINS_11filesystem222basic_filesystem_errorINS2_10basic_pathISsNS2_11path_traitsEEEE5m_impEE7disposeEv@Base 1.1.0
 (optional=templinst)_ZN5boost6detail17sp_counted_impl_pINS_11filesystem222basic_filesystem_errorINS2_10basic_pathISsNS2_11path_traitsEEEE5m_impEED0Ev@Base 1.1.0
 (optional=templinst)_ZN5boost6detail17sp_counted_impl_pINS_11filesystem222basic_filesystem_errorINS2_10basic_pathISsNS2_11path_traitsEEEE5m_impEED1Ev@Base 1.1.0
 (optional=templinst)_ZN5boost6detail17sp_counted_impl_pINS_11filesystem222basic_filesystem_errorINS2_10basic_pathISsNS2_11path_traitsEEEE5m_impEED2Ev@Base 1.1.0
 (optional=templinst)_ZN5boost6detail17sp_counted_impl_pINS_11filesystem26detail11dir_itr_impINS2_10basic_pathISsNS2_11path_traitsEEEEEE11get_deleterERKSt9type_info@Base 1.1.0
 (optional=templinst)_ZN5boost6detail17sp_counted_impl_pINS_11filesystem26detail11dir_itr_impINS2_10basic_pathISsNS2_11path_traitsEEEEEE7disposeEv@Base 1.1.0
 (optional=templinst)_ZN5boost6detail17sp_counted_impl_pINS_11filesystem26detail11dir_itr_impINS2_10basic_pathISsNS2_11path_traitsEEEEEED0Ev@Base 1.1.0
 (optional=templinst)_ZN5boost6detail17sp_counted_impl_pINS_11filesystem26detail11dir_itr_impINS2_10basic_pathISsNS2_11path_traitsEEEEEED1Ev@Base 1.1.0
 (optional=templinst)_ZN5boost6detail17sp_counted_impl_pINS_11filesystem26detail11dir_itr_impINS2_10basic_pathISsNS2_11path_traitsEEEEEED2Ev@Base 1.1.0
 (optional=templinst)_ZN5boost6detail17sp_counted_impl_pINS_7signals6detail9slot_base6data_tEE11get_deleterERKSt9type_info@Base 1.1.0
 (optional=templinst)_ZN5boost6detail17sp_counted_impl_pINS_7signals6detail9slot_base6data_tEE7disposeEv@Base 1.1.0
 (optional=templinst)_ZN5boost6detail17sp_counted_impl_pINS_7signals6detail9slot_base6data_tEED0Ev@Base 1.1.0
 (optional=templinst)_ZN5boost6detail17sp_counted_impl_pINS_7signals6detail9slot_base6data_tEED1Ev@Base 1.1.0
 (optional=templinst)_ZN5boost6detail17sp_counted_impl_pINS_7signals6detail9slot_base6data_tEED2Ev@Base 1.1.0
 (optional=templinst)_ZN5boost6detail18sp_counted_impl_pdIPNS_2io18basic_altstringbufIcSt11char_traitsIcESaIcEEENS2_22basic_oaltstringstreamIcS5_S6_E5No_OpEE11get_deleterERKSt9type_info@Base 1.1.0
 (optional=templinst)_ZN5boost6detail18sp_counted_impl_pdIPNS_2io18basic_altstringbufIcSt11char_traitsIcESaIcEEENS2_22basic_oaltstringstreamIcS5_S6_E5No_OpEE7disposeEv@Base 1.1.0
 (optional=templinst)_ZN5boost6detail18sp_counted_impl_pdIPNS_2io18basic_altstringbufIcSt11char_traitsIcESaIcEEENS2_22basic_oaltstringstreamIcS5_S6_E5No_OpEED0Ev@Base 1.1.0
 (optional=templinst)_ZN5boost6detail18sp_counted_impl_pdIPNS_2io18basic_altstringbufIcSt11char_traitsIcESaIcEEENS2_22basic_oaltstringstreamIcS5_S6_E5No_OpEED1Ev@Base 1.1.0
 (optional=templinst)_ZN5boost6detail18sp_counted_impl_pdIPNS_2io18basic_altstringbufIcSt11char_traitsIcESaIcEEENS2_22basic_oaltstringstreamIcS5_S6_E5No_OpEED2Ev@Base 1.1.0
 (optional=templinst)_ZN5boost6detail7variant15visitation_implIN4mpl_4int_ILi0EEENS1_20visitation_impl_stepINS_3mpl6l_iterINS7_6l_itemINS3_5long_ILl20EEEbNS9_INSA_ILl19EEEiNS9_INSA_ILl18EEEdNS9_INSA_ILl17EEEN5Eigen6MatrixIdLi2ELi1ELi0ELi2ELi1EEENS9_INSA_ILl16EEENSG_IdLi3ELi1ELi0ELi3ELi1EEENS9_INSA_ILl15EEENSF_9AngleAxisIdEENS9_INSA_ILl14EEENSF_5ArrayIfLi3ELi1ELi0ELi3ELi1EEENS9_INSA_ILl13EEEN5cnoid6SFTimeENS9_INSA_ILl12EEESsNS9_INSA_ILl11EEENS_13intrusive_ptrINSR_8VrmlNodeEEENS9_INSA_ILl10EEENSR_7SFImageENS9_INSA_ILl9EEESt6vectorIiSaIiEENS9_INSA_ILl8EEES11_IdSaIdEENS9_INSA_ILl7EEES11_ISH_NSF_17aligned_allocatorISH_EEENS9_INSA_ILl6EEES11_ISJ_SaISJ_EENS9_INSA_ILl5EEES11_ISM_SaISM_EENS9_INSA_ILl4EEES11_ISP_SaISP_EENS9_INSA_ILl3EEES11_ISS_SaISS_EENS9_INSA_ILl2EEES11_ISsSaISsEENS9_INSA_ILl1EEES11_ISX_SaISX_EENS7_5l_endEEEEEEEEEEEEEEEEEEEEEEEEEEEEEEEEEEEEEEEEEEENS8_IS1T_EEEENS1_14assign_storageEPvNS_7variantIbidSH_SJ_SM_SP_SS_SsSX_SZ_S13_S16_S1A_S1D_S1G_S1J_S1M_S1P_S1S_E18has_fallback_type_EEENT1_11result_typeEiiRS2M_T2_NS3_5bool_ILb0EEET3_PT_PT0_@Base 1.1.0
 (optional=templinst)_ZN5boost6detail7variant15visitation_implIN4mpl_4int_ILi0EEENS1_20visitation_impl_stepINS_3mpl6l_iterINS7_6l_itemINS3_5long_ILl20EEEbNS9_INSA_ILl19EEEiNS9_INSA_ILl18EEEdNS9_INSA_ILl17EEEN5Eigen6MatrixIdLi2ELi1ELi0ELi2ELi1EEENS9_INSA_ILl16EEENSG_IdLi3ELi1ELi0ELi3ELi1EEENS9_INSA_ILl15EEENSF_9AngleAxisIdEENS9_INSA_ILl14EEENSF_5ArrayIfLi3ELi1ELi0ELi3ELi1EEENS9_INSA_ILl13EEEN5cnoid6SFTimeENS9_INSA_ILl12EEESsNS9_INSA_ILl11EEENS_13intrusive_ptrINSR_8VrmlNodeEEENS9_INSA_ILl10EEENSR_7SFImageENS9_INSA_ILl9EEESt6vectorIiSaIiEENS9_INSA_ILl8EEES11_IdSaIdEENS9_INSA_ILl7EEES11_ISH_NSF_17aligned_allocatorISH_EEENS9_INSA_ILl6EEES11_ISJ_SaISJ_EENS9_INSA_ILl5EEES11_ISM_SaISM_EENS9_INSA_ILl4EEES11_ISP_SaISP_EENS9_INSA_ILl3EEES11_ISS_SaISS_EENS9_INSA_ILl2EEES11_ISsSaISsEENS9_INSA_ILl1EEES11_ISX_SaISX_EENS7_5l_endEEEEEEEEEEEEEEEEEEEEEEEEEEEEEEEEEEEEEEEEEEENS8_IS1T_EEEENS1_9copy_intoEPKvNS_7variantIbidSH_SJ_SM_SP_SS_SsSX_SZ_S13_S16_S1A_S1D_S1G_S1J_S1M_S1P_S1S_E18has_fallback_type_EEENT1_11result_typeEiiRS2N_T2_NS3_5bool_ILb0EEET3_PT_PT0_@Base 1.1.0
 (optional=templinst)_ZN5boost6detail7variant15visitation_implIN4mpl_4int_ILi0EEENS1_20visitation_impl_stepINS_3mpl6l_iterINS7_6l_itemINS3_5long_ILl20EEEbNS9_INSA_ILl19EEEiNS9_INSA_ILl18EEEdNS9_INSA_ILl17EEEN5Eigen6MatrixIdLi2ELi1ELi0ELi2ELi1EEENS9_INSA_ILl16EEENSG_IdLi3ELi1ELi0ELi3ELi1EEENS9_INSA_ILl15EEENSF_9AngleAxisIdEENS9_INSA_ILl14EEENSF_5ArrayIfLi3ELi1ELi0ELi3ELi1EEENS9_INSA_ILl13EEEN5cnoid6SFTimeENS9_INSA_ILl12EEESsNS9_INSA_ILl11EEENS_13intrusive_ptrINSR_8VrmlNodeEEENS9_INSA_ILl10EEENSR_7SFImageENS9_INSA_ILl9EEESt6vectorIiSaIiEENS9_INSA_ILl8EEES11_IdSaIdEENS9_INSA_ILl7EEES11_ISH_NSF_17aligned_allocatorISH_EEENS9_INSA_ILl6EEES11_ISJ_SaISJ_EENS9_INSA_ILl5EEES11_ISM_SaISM_EENS9_INSA_ILl4EEES11_ISP_SaISP_EENS9_INSA_ILl3EEES11_ISS_SaISS_EENS9_INSA_ILl2EEES11_ISsSaISsEENS9_INSA_ILl1EEES11_ISX_SaISX_EENS7_5l_endEEEEEEEEEEEEEEEEEEEEEEEEEEEEEEEEEEEEEEEEEEENS8_IS1T_EEEENS1_9destroyerEPvNS_7variantIbidSH_SJ_SM_SP_SS_SsSX_SZ_S13_S16_S1A_S1D_S1G_S1J_S1M_S1P_S1S_E18has_fallback_type_EEENT1_11result_typeEiiRS2M_T2_NS3_5bool_ILb0EEET3_PT_PT0_@Base 1.1.0
 (optional=templinst)_ZN5boost6detail7variant15visitation_implIN4mpl_4int_ILi0EEENS1_20visitation_impl_stepINS_3mpl6l_iterINS7_6l_itemINS3_5long_ILl20EEEbNS9_INSA_ILl19EEEiNS9_INSA_ILl18EEEdNS9_INSA_ILl17EEEN5Eigen6MatrixIdLi2ELi1ELi0ELi2ELi1EEENS9_INSA_ILl16EEENSG_IdLi3ELi1ELi0ELi3ELi1EEENS9_INSA_ILl15EEENSF_9AngleAxisIdEENS9_INSA_ILl14EEENSF_5ArrayIfLi3ELi1ELi0ELi3ELi1EEENS9_INSA_ILl13EEEN5cnoid6SFTimeENS9_INSA_ILl12EEESsNS9_INSA_ILl11EEENS_13intrusive_ptrINSR_8VrmlNodeEEENS9_INSA_ILl10EEENSR_7SFImageENS9_INSA_ILl9EEESt6vectorIiSaIiEENS9_INSA_ILl8EEES11_IdSaIdEENS9_INSA_ILl7EEES11_ISH_NSF_17aligned_allocatorISH_EEENS9_INSA_ILl6EEES11_ISJ_SaISJ_EENS9_INSA_ILl5EEES11_ISM_SaISM_EENS9_INSA_ILl4EEES11_ISP_SaISP_EENS9_INSA_ILl3EEES11_ISS_SaISS_EENS9_INSA_ILl2EEES11_ISsSaISsEENS9_INSA_ILl1EEES11_ISX_SaISX_EENS7_5l_endEEEEEEEEEEEEEEEEEEEEEEEEEEEEEEEEEEEEEEEEEEENS8_IS1T_EEEENS_7variantIbidSH_SJ_SM_SP_SS_SsSX_SZ_S13_S16_S1A_S1D_S1G_S1J_S1M_S1P_S1S_E8assignerEPKvNS2I_18has_fallback_type_EEENT1_11result_typeEiiRS2N_T2_NS3_5bool_ILb0EEET3_PT_PT0_@Base 1.1.0
 (optional=templinst)_ZN5boost6detail8function15functor_managerINS_3_bi6bind_tIbNS_4_mfi3mf2IbN5cnoid14BodyLoaderImplEPNS7_9VrmlShapeERKN5Eigen9TransformIdLi3ELi2ELi0EEEEENS3_5list3INS3_5valueIPS8_EENS_3argILi1EEENSL_ILi2EEEEEEEE6manageERKNS1_15function_bufferERSR_NS1_30functor_manager_operation_typeE@Base 1.1.0
 (optional=templinst)_ZN5boost6detail8function15functor_managerINS_7signals6detail20group_bridge_compareISt4lessIiEiEEE6manageERKNS1_15function_bufferERSA_NS1_30functor_manager_operation_typeE@Base 1.1.0
 _ZN5boost6detail8function16has_empty_targetEz@Base 1.1.0
 (optional=templinst)_ZN5boost6detail8function17reference_managerIKNS_6signalIFvRKSsENS_10last_valueIvEEiSt4lessIiENS_8functionIS6_EEEEE6manageERKNS1_15function_bufferERSG_NS1_30functor_manager_operation_typeE@Base 1.1.0
 (optional=templinst)_ZN5boost6detail8function21function_obj_invoker2INS_3_bi6bind_tIbNS_4_mfi3mf2IbN5cnoid14BodyLoaderImplEPNS7_9VrmlShapeERKN5Eigen9TransformIdLi3ELi2ELi0EEEEENS3_5list3INS3_5valueIPS8_EENS_3argILi1EEENSL_ILi2EEEEEEEbSA_SF_E6invokeERNS1_15function_bufferESA_SF_@Base 1.1.0
 (optional=templinst)_ZN5boost6detail8function21function_obj_invoker2INS_7signals6detail20group_bridge_compareISt4lessIiEiEEbNS4_12stored_groupES9_E6invokeERNS1_15function_bufferES9_S9_@Base 1.1.0
 (optional=templinst)_ZN5boost6detail8function22functor_manager_commonINS_3_bi6bind_tIbNS_4_mfi3mf2IbN5cnoid14BodyLoaderImplEPNS7_9VrmlShapeERKN5Eigen9TransformIdLi3ELi2ELi0EEEEENS3_5list3INS3_5valueIPS8_EENS_3argILi1EEENSL_ILi2EEEEEEEE12manage_smallERKNS1_15function_bufferERSR_NS1_30functor_manager_operation_typeE@Base 1.1.0
 (optional=templinst)_ZN5boost6detail8function22functor_manager_commonINS_7signals6detail20group_bridge_compareISt4lessIiEiEEE12manage_smallERKNS1_15function_bufferERSA_NS1_30functor_manager_operation_typeE@Base 1.1.0
 (optional=templinst)_ZN5boost6detail8function26void_function_ref_invoker1IKNS_6signalIFvRKSsENS_10last_valueIvEEiSt4lessIiENS_8functionIS6_EEEEvS5_E6invokeERNS1_15function_bufferES5_@Base 1.1.0
 _ZN5boost6system10error_code21unspecified_bool_trueEv@Base 1.1.0
 _ZN5boost6system12system_errorD0Ev@Base 1.1.0
 _ZN5boost6system12system_errorD1Ev@Base 1.1.0
 _ZN5boost6system12system_errorD2Ev@Base 1.1.0
 _ZN5boost6system14error_categoryD0Ev@Base 1.1.0
 _ZN5boost6system14error_categoryD1Ev@Base 1.1.0
 _ZN5boost6system14error_categoryD2Ev@Base 1.1.0
 _ZN5boost7bad_getD0Ev@Base 1.1.0
 _ZN5boost7bad_getD1Ev@Base 1.1.0
 _ZN5boost7bad_getD2Ev@Base 1.1.0
 (optional=templinst)_ZN5boost7signal1IvRKSsNS_10last_valueIvEEiSt4lessIiENS_8functionIFvS2_EEEE7connectERKNS_4slotIS9_EENS_7signals16connect_positionE@Base 1.1.0
 (optional=templinst)_ZN5boost7signal1IvRKSsNS_10last_valueIvEEiSt4lessIiENS_8functionIFvS2_EEEEC1ERKS4_RKS6_@Base 1.1.0
 (optional=templinst)_ZN5boost7signal1IvRKSsNS_10last_valueIvEEiSt4lessIiENS_8functionIFvS2_EEEEC2ERKS4_RKS6_@Base 1.1.0
 (optional=templinst)_ZN5boost7signal1IvRKSsNS_10last_valueIvEEiSt4lessIiENS_8functionIFvS2_EEEED1Ev@Base 1.1.0
 (optional=templinst)_ZN5boost7signal1IvRKSsNS_10last_valueIvEEiSt4lessIiENS_8functionIFvS2_EEEED2Ev@Base 1.1.0
 (optional=templinst)_ZN5boost7signal1IvRKSsNS_10last_valueIvEEiSt4lessIiENS_8functionIFvS2_EEEEclES2_@Base 1.1.0
 (optional=templinst)_ZN5boost7signals6detail18slot_call_iteratorINS1_11call_bound1IvE6callerIRKSsNS_8functionIFvS7_EEEEENS1_23named_slot_map_iteratorEEC1ESC_SC_SB_RNS_8optionalINS1_8unusableEEE@Base 1.1.0
 (optional=templinst)_ZN5boost7signals6detail18slot_call_iteratorINS1_11call_bound1IvE6callerIRKSsNS_8functionIFvS7_EEEEENS1_23named_slot_map_iteratorEEC2ESC_SC_SB_RNS_8optionalINS1_8unusableEEE@Base 1.1.0
 _ZN5boost7signals6detail23named_slot_map_iterator15init_next_groupEv@Base 1.1.0
 _ZN5boost7signals6detail9slot_base6data_tD1Ev@Base 1.1.0
 _ZN5boost7signals6detail9slot_base6data_tD2Ev@Base 1.1.0
 _ZN5boost7signals6detail9slot_baseD1Ev@Base 1.1.0
 _ZN5boost7signals6detail9slot_baseD2Ev@Base 1.1.0
 (optional=templinst)_ZN5boost7variantINS_13intrusive_ptrIN5cnoid9LinkGroupEEEiNS_6detail7variant5void_ES7_S7_S7_S7_S7_S7_S7_S7_S7_S7_S7_S7_S7_S7_S7_S7_S7_E22internal_apply_visitorINS6_9destroyerEEENT_11result_typeERSB_@Base 1.1.0
 (optional=templinst)_ZN5boost7variantIbidN5Eigen6MatrixIdLi2ELi1ELi0ELi2ELi1EEENS2_IdLi3ELi1ELi0ELi3ELi1EEENS1_9AngleAxisIdEENS1_5ArrayIfLi3ELi1ELi0ELi3ELi1EEEN5cnoid6SFTimeESsNS_13intrusive_ptrINS9_8VrmlNodeEEENS9_7SFImageESt6vectorIiSaIiEESF_IdSaIdEESF_IS3_NS1_17aligned_allocatorIS3_EEESF_IS4_SaIS4_EESF_IS6_SaIS6_EESF_IS8_SaIS8_EESF_ISA_SaISA_EESF_ISsSaISsEESF_ISD_SaISD_EEE14variant_assignERKSZ_@Base 1.1.0
 (optional=templinst)_ZN5boost7variantIbidN5Eigen6MatrixIdLi2ELi1ELi0ELi2ELi1EEENS2_IdLi3ELi1ELi0ELi3ELi1EEENS1_9AngleAxisIdEENS1_5ArrayIfLi3ELi1ELi0ELi3ELi1EEEN5cnoid6SFTimeESsNS_13intrusive_ptrINS9_8VrmlNodeEEENS9_7SFImageESt6vectorIiSaIiEESF_IdSaIdEESF_IS3_NS1_17aligned_allocatorIS3_EEESF_IS4_SaIS4_EESF_IS6_SaIS6_EESF_IS8_SaIS8_EESF_ISA_SaISA_EESF_ISsSaISsEESF_ISD_SaISD_EEE15destroy_contentEv@Base 1.1.0
 (optional=templinst)_ZN5boost7variantIbidN5Eigen6MatrixIdLi2ELi1ELi0ELi2ELi1EEENS2_IdLi3ELi1ELi0ELi3ELi1EEENS1_9AngleAxisIdEENS1_5ArrayIfLi3ELi1ELi0ELi3ELi1EEEN5cnoid6SFTimeESsNS_13intrusive_ptrINS9_8VrmlNodeEEENS9_7SFImageESt6vectorIiSaIiEESF_IdSaIdEESF_IS3_NS1_17aligned_allocatorIS3_EEESF_IS4_SaIS4_EESF_IS6_SaIS6_EESF_IS8_SaIS8_EESF_ISA_SaISA_EESF_ISsSaISsEESF_ISD_SaISD_EEE22internal_apply_visitorINS_6detail7variant9destroyerEEENT_11result_typeERS14_@Base 1.1.0
 (optional=templinst)_ZN5boost7variantIbidN5Eigen6MatrixIdLi2ELi1ELi0ELi2ELi1EEENS2_IdLi3ELi1ELi0ELi3ELi1EEENS1_9AngleAxisIdEENS1_5ArrayIfLi3ELi1ELi0ELi3ELi1EEEN5cnoid6SFTimeESsNS_13intrusive_ptrINS9_8VrmlNodeEEENS9_7SFImageESt6vectorIiSaIiEESF_IdSaIdEESF_IS3_NS1_17aligned_allocatorIS3_EEESF_IS4_SaIS4_EESF_IS6_SaIS6_EESF_IS8_SaIS8_EESF_ISA_SaISA_EESF_ISsSaISsEESF_ISD_SaISD_EEE6assignIS4_EEvRKT_@Base 1.1.0
 (optional=templinst)_ZN5boost7variantIbidN5Eigen6MatrixIdLi2ELi1ELi0ELi2ELi1EEENS2_IdLi3ELi1ELi0ELi3ELi1EEENS1_9AngleAxisIdEENS1_5ArrayIfLi3ELi1ELi0ELi3ELi1EEEN5cnoid6SFTimeESsNS_13intrusive_ptrINS9_8VrmlNodeEEENS9_7SFImageESt6vectorIiSaIiEESF_IdSaIdEESF_IS3_NS1_17aligned_allocatorIS3_EEESF_IS4_SaIS4_EESF_IS6_SaIS6_EESF_IS8_SaIS8_EESF_ISA_SaISA_EESF_ISsSaISsEESF_ISD_SaISD_EEE6assignIS6_EEvRKT_@Base 1.1.0
 (optional=templinst)_ZN5boost7variantIbidN5Eigen6MatrixIdLi2ELi1ELi0ELi2ELi1EEENS2_IdLi3ELi1ELi0ELi3ELi1EEENS1_9AngleAxisIdEENS1_5ArrayIfLi3ELi1ELi0ELi3ELi1EEEN5cnoid6SFTimeESsNS_13intrusive_ptrINS9_8VrmlNodeEEENS9_7SFImageESt6vectorIiSaIiEESF_IdSaIdEESF_IS3_NS1_17aligned_allocatorIS3_EEESF_IS4_SaIS4_EESF_IS6_SaIS6_EESF_IS8_SaIS8_EESF_ISA_SaISA_EESF_ISsSaISsEESF_ISD_SaISD_EEE6assignISJ_EEvRKT_@Base 1.1.0
 (optional=templinst)_ZN5boost7variantIbidN5Eigen6MatrixIdLi2ELi1ELi0ELi2ELi1EEENS2_IdLi3ELi1ELi0ELi3ELi1EEENS1_9AngleAxisIdEENS1_5ArrayIfLi3ELi1ELi0ELi3ELi1EEEN5cnoid6SFTimeESsNS_13intrusive_ptrINS9_8VrmlNodeEEENS9_7SFImageESt6vectorIiSaIiEESF_IdSaIdEESF_IS3_NS1_17aligned_allocatorIS3_EEESF_IS4_SaIS4_EESF_IS6_SaIS6_EESF_IS8_SaIS8_EESF_ISA_SaISA_EESF_ISsSaISsEESF_ISD_SaISD_EEE6assignISW_EEvRKT_@Base 1.1.0
 (optional=templinst)_ZN5boost7variantIbidN5Eigen6MatrixIdLi2ELi1ELi0ELi2ELi1EEENS2_IdLi3ELi1ELi0ELi3ELi1EEENS1_9AngleAxisIdEENS1_5ArrayIfLi3ELi1ELi0ELi3ELi1EEEN5cnoid6SFTimeESsNS_13intrusive_ptrINS9_8VrmlNodeEEENS9_7SFImageESt6vectorIiSaIiEESF_IdSaIdEESF_IS3_NS1_17aligned_allocatorIS3_EEESF_IS4_SaIS4_EESF_IS6_SaIS6_EESF_IS8_SaIS8_EESF_ISA_SaISA_EESF_ISsSaISsEESF_ISD_SaISD_EEE6assignISsEEvRKT_@Base 1.1.0
 (optional=templinst)_ZN5boost7variantIbidN5Eigen6MatrixIdLi2ELi1ELi0ELi2ELi1EEENS2_IdLi3ELi1ELi0ELi3ELi1EEENS1_9AngleAxisIdEENS1_5ArrayIfLi3ELi1ELi0ELi3ELi1EEEN5cnoid6SFTimeESsNS_13intrusive_ptrINS9_8VrmlNodeEEENS9_7SFImageESt6vectorIiSaIiEESF_IdSaIdEESF_IS3_NS1_17aligned_allocatorIS3_EEESF_IS4_SaIS4_EESF_IS6_SaIS6_EESF_IS8_SaIS8_EESF_ISA_SaISA_EESF_ISsSaISsEESF_ISD_SaISD_EEE6assignIdEEvRKT_@Base 1.1.0
 (optional=templinst)_ZN5boost8optionalISt6localeED1Ev@Base 1.1.0
 (optional=templinst)_ZN5boost8optionalISt6localeED2Ev@Base 1.1.0
 _ZN5boost9exceptionD0Ev@Base 1.1.0
 _ZN5boost9exceptionD1Ev@Base 1.1.0
 _ZN5boost9exceptionD2Ev@Base 1.1.0
 (optional=templinst)_ZN5boost9function1IvRKSsE5clearEv@Base 1.1.0
 (optional=templinst)_ZN5boost9function2IbNS_7signals6detail12stored_groupES3_E5clearEv@Base 1.1.0
 (optional=templinst)_ZN5boost9function2IbPN5cnoid9VrmlShapeERKN5Eigen9TransformIdLi3ELi2ELi0EEEE5clearEv@Base 1.1.0
 (optional=templinst)_ZN5boostlsIcSt11char_traitsIcESaIcEEERSt13basic_ostreamIT_T0_ES8_RKNS_12basic_formatIS5_S6_T1_EE@Base 1.1.0
 _ZN5cnoid10BodyLoader10sigMessageEv@Base 1.1.0
 _ZN5cnoid10BodyLoader12errorMessageEv@Base 1.1.0
 _ZN5cnoid10BodyLoader12modelNodeSetEv@Base 1.1.0
 _ZN5cnoid10BodyLoader13loadModelFileERKSsbbb@Base 1.1.0
 _ZN5cnoid10BodyLoader17setDivisionNumberEi@Base 1.1.0
 _ZN5cnoid10BodyLoaderC1Ev@Base 1.1.0
 _ZN5cnoid10BodyLoaderC2Ev@Base 1.1.0
 _ZN5cnoid10BodyLoaderD1Ev@Base 1.1.0
 _ZN5cnoid10BodyLoaderD2Ev@Base 1.1.0
 _ZN5cnoid10BodyMotion11setNumPartsEib@Base 1.1.0
 _ZN5cnoid10BodyMotion12setDimensionEiib@Base 1.1.0
 _ZN5cnoid10BodyMotion12setDimensionEiiib@Base 1.1.0
 _ZN5cnoid10BodyMotion12setFrameRateEd@Base 1.1.0
 _ZN5cnoid10BodyMotion12setNumFramesEib@Base 1.1.0
 _ZN5cnoid10BodyMotion14relativeZmpSeqEv@Base 1.1.0
 _ZN5cnoid10BodyMotion22loadStandardYamlFormatERKSs@Base 1.1.0
 _ZN5cnoid10BodyMotion24saveAsStandardYamlFormatERKSs@Base 1.1.0
 _ZN5cnoid10BodyMotion4readERKNS_11YamlMappingE@Base 1.1.0
 _ZN5cnoid10BodyMotion5writeERNS_10YamlWriterE@Base 1.1.0
 _ZN5cnoid10BodyMotionC1ERKS0_@Base 1.1.0
 _ZN5cnoid10BodyMotionC1Ev@Base 1.1.0
 _ZN5cnoid10BodyMotionC2ERKS0_@Base 1.1.0
 _ZN5cnoid10BodyMotionC2Ev@Base 1.1.0
 _ZN5cnoid10BodyMotionD0Ev@Base 1.1.0
 _ZN5cnoid10BodyMotionD1Ev@Base 1.1.0
 _ZN5cnoid10BodyMotionD2Ev@Base 1.1.0
 _ZN5cnoid10LeggedBody11doResetInfoERKNS_11YamlMappingE@Base 1.1.0
 _ZN5cnoid10LeggedBody15doLegIkToMoveCmERKN5Eigen6MatrixIdLi3ELi1ELi0ELi3ELi1EEEb@Base 1.1.0
 _ZN5cnoid10LeggedBody25checkBodyInfoAsLeggedBodyEN5boost13intrusive_ptrINS_11YamlMappingEEE@Base 1.1.0
 _ZN5cnoid10LeggedBody9setStanceEdPNS_4LinkE@Base 1.1.0
 _ZN5cnoid10LeggedBodyC1ERKS0_@Base 1.1.0
 _ZN5cnoid10LeggedBodyC1Ev@Base 1.1.0
 _ZN5cnoid10LeggedBodyC2ERKS0_@Base 1.1.0
 _ZN5cnoid10LeggedBodyC2Ev@Base 1.1.0
 _ZN5cnoid10LeggedBodyD0Ev@Base 1.1.0
 _ZN5cnoid10LeggedBodyD1Ev@Base 1.1.0
 _ZN5cnoid10LeggedBodyD2Ev@Base 1.1.0
 _ZN5cnoid10ReferencedD0Ev@Base 1.1.0
 _ZN5cnoid10ReferencedD1Ev@Base 1.1.0
 _ZN5cnoid10ReferencedD2Ev@Base 1.1.0
 _ZN5cnoid11AccelSensor14putInformationERSo@Base 1.1.0
 _ZN5cnoid11AccelSensor5clearEv@Base 1.1.0
 _ZN5cnoid11AccelSensorC1Ev@Base 1.1.0
 _ZN5cnoid11AccelSensorC2Ev@Base 1.1.0
 _ZN5cnoid11AccelSensorD0Ev@Base 1.1.0
 _ZN5cnoid11AccelSensorD1Ev@Base 1.1.0
 _ZN5cnoid11AccelSensorD2Ev@Base 1.1.0
 _ZN5cnoid11CompositeIK11addBaseLinkEPNS_4LinkE@Base 1.1.0
 _ZN5cnoid11CompositeIK13setMaxIKerrorEd@Base 1.1.0
 _ZN5cnoid11CompositeIK21calcInverseKinematicsERKN5Eigen6MatrixIdLi3ELi1ELi0ELi3ELi1EEERKNS2_IdLi3ELi3ELi0ELi3ELi3EEE@Base 1.1.0
 _ZN5cnoid11CompositeIK8PathInfoD1Ev@Base 1.1.0
 _ZN5cnoid11CompositeIK8PathInfoD2Ev@Base 1.1.0
 _ZN5cnoid11CompositeIKC1EN5boost13intrusive_ptrINS_4BodyEEEPNS_4LinkE@Base 1.1.0
 _ZN5cnoid11CompositeIKC2EN5boost13intrusive_ptrINS_4BodyEEEPNS_4LinkE@Base 1.1.0
 _ZN5cnoid11CompositeIKD0Ev@Base 1.1.0
 _ZN5cnoid11CompositeIKD1Ev@Base 1.1.0
 _ZN5cnoid11CompositeIKD2Ev@Base 1.1.0
 _ZN5cnoid11ForceSensor14putInformationERSo@Base 1.1.0
 _ZN5cnoid11ForceSensor5clearEv@Base 1.1.0
 _ZN5cnoid11ForceSensorC1Ev@Base 1.1.0
 _ZN5cnoid11ForceSensorC2Ev@Base 1.1.0
 _ZN5cnoid11ForceSensorD0Ev@Base 1.1.0
 _ZN5cnoid11ForceSensorD1Ev@Base 1.1.0
 _ZN5cnoid11ForceSensorD2Ev@Base 1.1.0
 _ZN5cnoid11RangeSensorC1Ev@Base 1.1.0
 _ZN5cnoid11RangeSensorC2Ev@Base 1.1.0
 _ZN5cnoid11RangeSensorD0Ev@Base 1.1.0
 _ZN5cnoid11RangeSensorD1Ev@Base 1.1.0
 _ZN5cnoid11RangeSensorD2Ev@Base 1.1.0
 _ZN5cnoid12JointNodeSetD1Ev@Base 1.1.0
 _ZN5cnoid12JointNodeSetD2Ev@Base 1.1.0
 _ZN5cnoid12LinkTraverse4findEPNS_4LinkEbb@Base 1.1.0
 _ZN5cnoid12LinkTraverse8traverseEPNS_4LinkEbbbS2_@Base 1.1.0
 _ZN5cnoid12LinkTraverseC1EPNS_4LinkEbb@Base 1.1.0
 _ZN5cnoid12LinkTraverseC1Ei@Base 1.1.0
 _ZN5cnoid12LinkTraverseC1Ev@Base 1.1.0
 _ZN5cnoid12LinkTraverseC2EPNS_4LinkEbb@Base 1.1.0
 _ZN5cnoid12LinkTraverseC2Ei@Base 1.1.0
 _ZN5cnoid12LinkTraverseC2Ev@Base 1.1.0
 _ZN5cnoid12LinkTraverseD0Ev@Base 1.1.0
 _ZN5cnoid12LinkTraverseD1Ev@Base 1.1.0
 _ZN5cnoid12LinkTraverseD2Ev@Base 1.1.0
 _ZN5cnoid12ModelNodeSet12humanoidNodeEv@Base 1.1.0
 _ZN5cnoid12ModelNodeSet13loadModelFileERKSs@Base 1.1.0
 _ZN5cnoid12ModelNodeSet13numJointNodesEv@Base 1.1.0
 _ZN5cnoid12ModelNodeSet16rootJointNodeSetEv@Base 1.1.0
 _ZN5cnoid12ModelNodeSet9ExceptionC1ERKSs@Base 1.1.0
 _ZN5cnoid12ModelNodeSet9ExceptionC2ERKSs@Base 1.1.0
 _ZN5cnoid12ModelNodeSet9ExceptionD1Ev@Base 1.1.0
 _ZN5cnoid12ModelNodeSet9ExceptionD2Ev@Base 1.1.0
 _ZN5cnoid12ModelNodeSetC1Ev@Base 1.1.0
 _ZN5cnoid12ModelNodeSetC2Ev@Base 1.1.0
 _ZN5cnoid12ModelNodeSetD0Ev@Base 1.1.0
 _ZN5cnoid12ModelNodeSetD1Ev@Base 1.1.0
 _ZN5cnoid12ModelNodeSetD2Ev@Base 1.1.0
 _ZN5cnoid12PoseProviderD0Ev@Base 1.1.0
 _ZN5cnoid12PoseProviderD1Ev@Base 1.1.0
 _ZN5cnoid12PoseProviderD2Ev@Base 1.1.0
 (optional=templinst)_ZN5cnoid12RangeLimiter15finalizeSegmentIN5boost6detail11multi_array16multi_array_viewIdLm1EEEEEPNS0_8TSegmentES8_iRT_@Base 1.1.0
 (optional=templinst)_ZN5cnoid12RangeLimiter5applyIN5boost6detail11multi_array16multi_array_viewIdLm1EEEEEbRT_dddd@Base 1.1.0
 _ZN5cnoid12RangeLimiterD1Ev@Base 1.1.0
 _ZN5cnoid12RangeLimiterD2Ev@Base 1.1.0
 _ZN5cnoid13PinDragIKImpl10initializeEv@Base 1.1.0
 _ZN5cnoid13PinDragIKImpl11PinPropertyC1ERKS1_@Base 1.1.0
 _ZN5cnoid13PinDragIKImpl11PinPropertyC2ERKS1_@Base 1.1.0
 _ZN5cnoid13PinDragIKImpl11calcOneStepERKN5Eigen6MatrixIdLi3ELi1ELi0ELi3ELi1EEES5_@Base 1.1.0
 _ZN5cnoid13PinDragIKImpl11setBaseLinkEPNS_4LinkE@Base 1.1.0
 _ZN5cnoid13PinDragIKImpl13setTargetLinkEPNS_4LinkEb@Base 1.1.0
 _ZN5cnoid13PinDragIKImpl14setJointWeightEid@Base 1.1.0
 _ZN5cnoid13PinDragIKImpl16setIKErrorThreshEd@Base 1.1.0
 _ZN5cnoid13PinDragIKImpl16solveConstraintsEv@Base 1.1.0
 _ZN5cnoid13PinDragIKImpl17addPinConstraintsEv@Base 1.1.0
 _ZN5cnoid13PinDragIKImpl17setFreeRootWeightEdd@Base 1.1.0
 _ZN5cnoid13PinDragIKImpl21calcInverseKinematicsERKN5Eigen6MatrixIdLi3ELi1ELi0ELi3ELi1EEERKNS2_IdLi3ELi3ELi0ELi3ELi3EEE@Base 1.1.0
 _ZN5cnoid13PinDragIKImpl21setJacobianForOnePathERN5Eigen6MatrixIdLin1ELin1ELi0ELin1ELin1EEEiRNS_9JointPathEi@Base 1.1.0
 _ZN5cnoid13PinDragIKImpl22setJacobianForFreeRootERN5Eigen6MatrixIdLin1ELin1ELi0ELin1ELin1EEEiRNS_9JointPathEi@Base 1.1.0
 _ZN5cnoid13PinDragIKImpl22setSRInverseParametersEdd@Base 1.1.0
 _ZN5cnoid13PinDragIKImpl24addJointRangeConstraintsEv@Base 1.1.0
 _ZN5cnoid13PinDragIKImpl27enableJointRangeConstraintsEb@Base 1.1.0
 _ZN5cnoid13PinDragIKImpl6setPinEPNS_4LinkENS_17InverseKinematics7AxisSetEd@Base 1.1.0
 _ZN5cnoid13PinDragIKImpl7pinAxesEPNS_4LinkE@Base 1.1.0
 _ZN5cnoid13PinDragIKImplC1EN5boost13intrusive_ptrINS_4BodyEEE@Base 1.1.0
 _ZN5cnoid13PinDragIKImplC2EN5boost13intrusive_ptrINS_4BodyEEE@Base 1.1.0
 _ZN5cnoid13PinDragIKImplD1Ev@Base 1.1.0
 _ZN5cnoid13PinDragIKImplD2Ev@Base 1.1.0
 _ZN5cnoid14BodyLoaderImpl10createLinkEN5boost10shared_ptrINS_12JointNodeSetEEERKN5Eigen6MatrixIdLi3ELi3ELi0ELi3ELi3EEE@Base 1.1.0
 _ZN5cnoid14BodyLoaderImpl13collectMeshesEPNS_9VrmlShapeERKN5Eigen9TransformIdLi3ELi2ELi0EEE@Base 1.1.0
 _ZN5cnoid14BodyLoaderImpl13createSensorsEPNS_4LinkERSt6vectorIN5boost13intrusive_ptrINS_17VrmlProtoInstanceEEESaIS7_EE@Base 1.1.0
 _ZN5cnoid14BodyLoaderImpl13loadModelFileERKSsbbb@Base 1.1.0
 _ZN5cnoid14BodyLoaderImpl13sensorTypeMapE@Base 1.1.0
 _ZN5cnoid14BodyLoaderImpl14setColdetModelEPNS_4LinkESt6vectorIN5boost13intrusive_ptrINS_17VrmlProtoInstanceEEESaIS7_EERKS3_IN5Eigen9TransformIdLi3ELi2ELi0EEENSA_17aligned_allocatorISC_EEE@Base 1.1.0
 _ZN5cnoid14BodyLoaderImpl17setDivisionNumberEi@Base 1.1.0
 _ZN5cnoid14BodyLoaderImpl18setJointPropertiesEPNS_4LinkEN5boost13intrusive_ptrINS_17VrmlProtoInstanceEEERKN5Eigen6MatrixIdLi3ELi3ELi0ELi3ELi3EEE@Base 1.1.0
 _ZN5cnoid14BodyLoaderImpl20setSegmentPropertiesEPNS_4LinkESt6vectorIN5boost13intrusive_ptrINS_17VrmlProtoInstanceEEESaIS7_EERKS3_IN5Eigen9TransformIdLi3ELi2ELi0EEENSA_17aligned_allocatorISC_EEE@Base 1.1.0
 (optional=templinst)_ZN5cnoid14BodyLoaderImpl24extractShapeNodeTraverseEPNS_8VrmlNodeERKN5Eigen9TransformIdLi3ELi2ELi0EEERKN5boost8functionIFbPNS_9VrmlShapeES7_EEE@Base 1.1.0
 _ZN5cnoid14BodyLoaderImpl26createBodyFromModelNodeSetEv@Base 1.1.0
 _ZN5cnoid14BodyLoaderImplC1Ev@Base 1.1.0
 _ZN5cnoid14BodyLoaderImplC2Ev@Base 1.1.0
 _ZN5cnoid14BodyLoaderImplD1Ev@Base 1.1.0
 _ZN5cnoid14BodyLoaderImplD2Ev@Base 1.1.0
 _ZN5cnoid14ColdetLinkPair15updatePositionsEv@Base 1.1.0
 _ZN5cnoid14ColdetLinkPair4linkEi@Base 1.1.0
 _ZN5cnoid14ColdetLinkPairC1EPNS_4LinkES2_@Base 1.1.0
 _ZN5cnoid14ColdetLinkPairC1ERKS0_@Base 1.1.0
 _ZN5cnoid14ColdetLinkPairC2EPNS_4LinkES2_@Base 1.1.0
 _ZN5cnoid14ColdetLinkPairC2ERKS0_@Base 1.1.0
 _ZN5cnoid14ColdetLinkPairD0Ev@Base 1.1.0
 _ZN5cnoid14ColdetLinkPairD1Ev@Base 1.1.0
 _ZN5cnoid14ColdetLinkPairD2Ev@Base 1.1.0
 _ZN5cnoid14RateGyroSensor14putInformationERSo@Base 1.1.0
 _ZN5cnoid14RateGyroSensor5clearEv@Base 1.1.0
 _ZN5cnoid14RateGyroSensorC1Ev@Base 1.1.0
 _ZN5cnoid14RateGyroSensorC2Ev@Base 1.1.0
 _ZN5cnoid14RateGyroSensorD0Ev@Base 1.1.0
 _ZN5cnoid14RateGyroSensorD1Ev@Base 1.1.0
 _ZN5cnoid14RateGyroSensorD2Ev@Base 1.1.0
 _ZN5cnoid14calcCMJacobianERKN5boost13intrusive_ptrINS_4BodyEEEPNS_4LinkERN5Eigen6MatrixIdLin1ELin1ELi0ELin1ELin1EEE@Base 1.1.0
 _ZN5cnoid14calcLinkAccSeqERNS_15MultiAffine3SeqEPNS_6SensorEiiRNS_10Vector3SeqE@Base 1.1.0
 _ZN5cnoid14calcMassMatrixERKN5boost13intrusive_ptrINS_4BodyEEERN5Eigen6MatrixIdLin1ELin1ELi0ELin1ELin1EEE@Base 1.1.0
 (optional=templinst)_ZN5cnoid14setGaussWindowIdEEvT_iRSt6vectorIS1_SaIS1_EE@Base 1.1.0
 _ZN5cnoid15ForwardDynamics11setTimeStepEd@Base 1.1.0
 _ZN5cnoid15ForwardDynamics13enableSensorsEb@Base 1.1.0
 _ZN5cnoid15ForwardDynamics14setEulerMethodEv@Base 1.1.0
 _ZN5cnoid15ForwardDynamics17initializeSensorsEv@Base 1.1.0
 _ZN5cnoid15ForwardDynamics17updateAccelSensorEPNS_11AccelSensorE@Base 1.1.0
 _ZN5cnoid15ForwardDynamics18updateSensorsFinalEv@Base 1.1.0
 _ZN5cnoid15ForwardDynamics19setRungeKuttaMethodEv@Base 1.1.0
 _ZN5cnoid15ForwardDynamics22initializeAccelSensorsEv@Base 1.1.0
 _ZN5cnoid15ForwardDynamics22setGravityAccelerationERKN5Eigen6MatrixIdLi3ELi1ELi0ELi3ELi1EEE@Base 1.1.0
 _ZN5cnoid15ForwardDynamics6SE3expERN5Eigen6MatrixIdLi3ELi1ELi0ELi3ELi1EEERNS2_IdLi3ELi3ELi0ELi3ELi3EEERKS3_RKS5_S8_S8_d@Base 1.1.0
 _ZN5cnoid15ForwardDynamicsC1EN5boost13intrusive_ptrINS_4BodyEEE@Base 1.1.0
 _ZN5cnoid15ForwardDynamicsC2EN5boost13intrusive_ptrINS_4BodyEEE@Base 1.1.0
 _ZN5cnoid15ForwardDynamicsD0Ev@Base 1.1.0
 _ZN5cnoid15ForwardDynamicsD1Ev@Base 1.1.0
 _ZN5cnoid15ForwardDynamicsD2Ev@Base 1.1.0
 _ZN5cnoid16ModelNodeSetImpl10putMessageERKSs@Base 1.1.0
 (optional=templinst)_ZN5cnoid16ModelNodeSetImpl12requireFieldIN5Eigen6MatrixIdLi3ELi1ELi0ELi3ELi1EEEEEvRKSs@Base 1.1.0
 (optional=templinst)_ZN5cnoid16ModelNodeSetImpl12requireFieldIN5Eigen9AngleAxisIdEEEEvRKSs@Base 1.1.0
 (optional=templinst)_ZN5cnoid16ModelNodeSetImpl12requireFieldISsEEvRKSs@Base 1.1.0
 (optional=templinst)_ZN5cnoid16ModelNodeSetImpl12requireFieldISt6vectorIN5boost13intrusive_ptrINS_8VrmlNodeEEESaIS6_EEEEvRKSs@Base 1.1.0
 (optional=templinst)_ZN5cnoid16ModelNodeSetImpl12requireFieldISt6vectorIdSaIdEEEEvRKSs@Base 1.1.0
 (optional=templinst)_ZN5cnoid16ModelNodeSetImpl12requireFieldIdEEvRKSs@Base 1.1.0
 (optional=templinst)_ZN5cnoid16ModelNodeSetImpl12requireFieldIiEEvRKSs@Base 1.1.0
 _ZN5cnoid16ModelNodeSetImpl13loadModelFileERKSs@Base 1.1.0
 _ZN5cnoid16ModelNodeSetImpl15addJointNodeSetEN5boost13intrusive_ptrINS_17VrmlProtoInstanceEEE@Base 1.1.0
 _ZN5cnoid16ModelNodeSetImpl15checkJointProtoEv@Base 1.1.0
 _ZN5cnoid16ModelNodeSetImpl17checkSegmentProtoEv@Base 1.1.0
 _ZN5cnoid16ModelNodeSetImpl17extractChildNodesEN5boost10shared_ptrINS_12JointNodeSetEEERSt6vectorINS1_13intrusive_ptrINS_8VrmlNodeEEESaIS8_EESt6bitsetILm6EERKN5Eigen9TransformIdLi3ELi2ELi0EEE@Base 1.1.0
 _ZN5cnoid16ModelNodeSetImpl17extractJointNodesEv@Base 1.1.0
 _ZN5cnoid16ModelNodeSetImpl18checkHumanoidProtoEv@Base 1.1.0
 _ZN5cnoid16ModelNodeSetImpl19extractHumanoidNodeERNS_10VrmlParserE@Base 1.1.0
 _ZN5cnoid16ModelNodeSetImpl22checkSensorProtoCommonEv@Base 1.1.0
 _ZN5cnoid16ModelNodeSetImpl27checkHardwareComponentProtoEv@Base 1.1.0
 _ZN5cnoid16ModelNodeSetImpl28throwExceptionOfIllegalFieldERKSsPKc@Base 1.1.0
 (optional=templinst)_ZN5cnoid16ModelNodeSetImpl8addFieldIN5Eigen6MatrixIdLi3ELi1ELi0ELi3ELi1EEEEEPN5boost7variantIbidNS3_IdLi2ELi1ELi0ELi2ELi1EEES4_NS2_9AngleAxisIdEENS2_5ArrayIfLi3ELi1ELi0ELi3ELi1EEENS_6SFTimeESsNS5_13intrusive_ptrINS_8VrmlNodeEEENS_7SFImageESt6vectorIiSaIiEESH_IdSaIdEESH_IS7_NS2_17aligned_allocatorIS7_EEESH_IS4_SaIS4_EESH_IS9_SaIS9_EESH_ISB_SaISB_EESH_ISC_SaISC_EESH_ISsSaISsEESH_ISF_SaISF_EEEERKSsRKT_@Base 1.1.0
 (optional=templinst)_ZN5cnoid16ModelNodeSetImpl8addFieldIN5Eigen9AngleAxisIdEEEEPN5boost7variantIbidNS2_6MatrixIdLi2ELi1ELi0ELi2ELi1EEENS7_IdLi3ELi1ELi0ELi3ELi1EEES4_NS2_5ArrayIfLi3ELi1ELi0ELi3ELi1EEENS_6SFTimeESsNS5_13intrusive_ptrINS_8VrmlNodeEEENS_7SFImageESt6vectorIiSaIiEESH_IdSaIdEESH_IS8_NS2_17aligned_allocatorIS8_EEESH_IS9_SaIS9_EESH_IS4_SaIS4_EESH_ISB_SaISB_EESH_ISC_SaISC_EESH_ISsSaISsEESH_ISF_SaISF_EEEERKSsRKT_@Base 1.1.0
 (optional=templinst)_ZN5cnoid16ModelNodeSetImpl8addFieldISsEEPN5boost7variantIbidN5Eigen6MatrixIdLi2ELi1ELi0ELi2ELi1EEENS5_IdLi3ELi1ELi0ELi3ELi1EEENS4_9AngleAxisIdEENS4_5ArrayIfLi3ELi1ELi0ELi3ELi1EEENS_6SFTimeESsNS2_13intrusive_ptrINS_8VrmlNodeEEENS_7SFImageESt6vectorIiSaIiEESH_IdSaIdEESH_IS6_NS4_17aligned_allocatorIS6_EEESH_IS7_SaIS7_EESH_IS9_SaIS9_EESH_ISB_SaISB_EESH_ISC_SaISC_EESH_ISsSaISsEESH_ISF_SaISF_EEEERKSsRKT_@Base 1.1.0
 (optional=templinst)_ZN5cnoid16ModelNodeSetImpl8addFieldISt6vectorISsSaISsEEEEPN5boost7variantIbidN5Eigen6MatrixIdLi2ELi1ELi0ELi2ELi1EEENS8_IdLi3ELi1ELi0ELi3ELi1EEENS7_9AngleAxisIdEENS7_5ArrayIfLi3ELi1ELi0ELi3ELi1EEENS_6SFTimeESsNS5_13intrusive_ptrINS_8VrmlNodeEEENS_7SFImageES2_IiSaIiEES2_IdSaIdEES2_IS9_NS7_17aligned_allocatorIS9_EEES2_ISA_SaISA_EES2_ISC_SaISC_EES2_ISE_SaISE_EES2_ISF_SaISF_EES4_S2_ISI_SaISI_EEEERKSsRKT_@Base 1.1.0
 (optional=templinst)_ZN5cnoid16ModelNodeSetImpl8addFieldISt6vectorIdSaIdEEEEPN5boost7variantIbidN5Eigen6MatrixIdLi2ELi1ELi0ELi2ELi1EEENS8_IdLi3ELi1ELi0ELi3ELi1EEENS7_9AngleAxisIdEENS7_5ArrayIfLi3ELi1ELi0ELi3ELi1EEENS_6SFTimeESsNS5_13intrusive_ptrINS_8VrmlNodeEEENS_7SFImageES2_IiSaIiEES4_S2_IS9_NS7_17aligned_allocatorIS9_EEES2_ISA_SaISA_EES2_ISC_SaISC_EES2_ISE_SaISE_EES2_ISF_SaISF_EES2_ISsSaISsEES2_ISI_SaISI_EEEERKSsRKT_@Base 1.1.0
 (optional=templinst)_ZN5cnoid16ModelNodeSetImpl8addFieldIdEEPN5boost7variantIbidN5Eigen6MatrixIdLi2ELi1ELi0ELi2ELi1EEENS5_IdLi3ELi1ELi0ELi3ELi1EEENS4_9AngleAxisIdEENS4_5ArrayIfLi3ELi1ELi0ELi3ELi1EEENS_6SFTimeESsNS2_13intrusive_ptrINS_8VrmlNodeEEENS_7SFImageESt6vectorIiSaIiEESH_IdSaIdEESH_IS6_NS4_17aligned_allocatorIS6_EEESH_IS7_SaIS7_EESH_IS9_SaIS9_EESH_ISB_SaISB_EESH_ISC_SaISC_EESH_ISsSaISsEESH_ISF_SaISF_EEEERKSsRKT_@Base 1.1.0
 _ZN5cnoid16ModelNodeSetImplC1EPNS_12ModelNodeSetE@Base 1.1.0
 _ZN5cnoid16ModelNodeSetImplC2EPNS_12ModelNodeSetE@Base 1.1.0
 _ZN5cnoid16ModelNodeSetImplD1Ev@Base 1.1.0
 _ZN5cnoid16ModelNodeSetImplD2Ev@Base 1.1.0
 _ZN5cnoid17ForwardDynamicsMM10initializeEv@Base 1.1.0
 _ZN5cnoid17ForwardDynamicsMM13calcNextStateEv@Base 1.1.0
 _ZN5cnoid17ForwardDynamicsMM14calcMassMatrixEv@Base 1.1.0
 _ZN5cnoid17ForwardDynamicsMM17initializeSensorsEv@Base 1.1.0
 _ZN5cnoid17ForwardDynamicsMM17sumExternalForcesEv@Base 1.1.0
 _ZN5cnoid17ForwardDynamicsMM18solveUnknownAccelsEPNS_4LinkERKN5Eigen6MatrixIdLi3ELi1ELi0ELi3ELi1EEES7_S7_S7_@Base 1.1.0
 _ZN5cnoid17ForwardDynamicsMM18solveUnknownAccelsERKN5Eigen6MatrixIdLi3ELi1ELi0ELi3ELi1EEES5_@Base 1.1.0
 _ZN5cnoid17ForwardDynamicsMM19calcInverseDynamicsEPNS_4LinkERN5Eigen6MatrixIdLi3ELi1ELi0ELi3ELi1EEES6_@Base 1.1.0
 _ZN5cnoid17ForwardDynamicsMM21initializeAccelSolverEv@Base 1.1.0
 _ZN5cnoid17ForwardDynamicsMM21setColumnOfMassMatrixERN5Eigen6MatrixIdLin1ELin1ELi0ELin1ELin1EEEi@Base 1.1.0
 _ZN5cnoid17ForwardDynamicsMM21updateForceSensorInfoEPNS_4LinkEb@Base 1.1.0
 _ZN5cnoid17ForwardDynamicsMM25calcMotionWithEulerMethodEv@Base 1.1.0
 _ZN5cnoid17ForwardDynamicsMM25calcPositionAndVelocityFKEv@Base 1.1.0
 _ZN5cnoid17ForwardDynamicsMM26integrateRungeKuttaOneStepEdd@Base 1.1.0
 _ZN5cnoid17ForwardDynamicsMM30calcMotionWithRungeKuttaMethodEv@Base 1.1.0
 _ZN5cnoid17ForwardDynamicsMM30preserveHighGainModeJointStateEv@Base 1.1.0
 _ZN5cnoid17ForwardDynamicsMM31calcAccelFKandForceSensorValuesEPNS_4LinkERN5Eigen6MatrixIdLi3ELi1ELi0ELi3ELi1EEES6_@Base 1.1.0
 _ZN5cnoid17ForwardDynamicsMM6calcd1EPNS_4LinkERN5Eigen6MatrixIdLi3ELi1ELi0ELi3ELi1EEES6_@Base 1.1.0
 _ZN5cnoid17ForwardDynamicsMMC1EN5boost13intrusive_ptrINS_4BodyEEE@Base 1.1.0
 _ZN5cnoid17ForwardDynamicsMMC2EN5boost13intrusive_ptrINS_4BodyEEE@Base 1.1.0
 _ZN5cnoid17ForwardDynamicsMMD0Ev@Base 1.1.0
 _ZN5cnoid17ForwardDynamicsMMD1Ev@Base 1.1.0
 _ZN5cnoid17ForwardDynamicsMMD2Ev@Base 1.1.0
 _ZN5cnoid17InverseKinematicsD0Ev@Base 1.1.0
 _ZN5cnoid17InverseKinematicsD1Ev@Base 1.1.0
 _ZN5cnoid17InverseKinematicsD2Ev@Base 1.1.0
 (optional=templinst)_ZN5cnoid17dynamic_node_castINS_18VrmlIndexedFaceSetEEEN5boost13intrusive_ptrIT_EENS3_INS_8VrmlNodeEEE@Base 1.1.0
 _ZN5cnoid18ForwardDynamicsABM10initializeEv@Base 1.1.0
 _ZN5cnoid18ForwardDynamicsABM13calcABMPhase1Ev@Base 1.1.0
 _ZN5cnoid18ForwardDynamicsABM13calcABMPhase2Ev@Base 1.1.0
 _ZN5cnoid18ForwardDynamicsABM13calcABMPhase3Ev@Base 1.1.0
 _ZN5cnoid18ForwardDynamicsABM13calcNextStateEv@Base 1.1.0
 _ZN5cnoid18ForwardDynamicsABM17updateForceSensorEPNS_11ForceSensorE@Base 1.1.0
 _ZN5cnoid18ForwardDynamicsABM18calcABMPhase2Part1Ev@Base 1.1.0
 _ZN5cnoid18ForwardDynamicsABM18calcABMPhase2Part2Ev@Base 1.1.0
 _ZN5cnoid18ForwardDynamicsABM18updateForceSensorsEv@Base 1.1.0
 _ZN5cnoid18ForwardDynamicsABM25calcMotionWithEulerMethodEv@Base 1.1.0
 _ZN5cnoid18ForwardDynamicsABM26integrateRungeKuttaOneStepEdd@Base 1.1.0
 _ZN5cnoid18ForwardDynamicsABM30calcMotionWithRungeKuttaMethodEv@Base 1.1.0
 _ZN5cnoid18ForwardDynamicsABMC1EN5boost13intrusive_ptrINS_4BodyEEE@Base 1.1.0
 _ZN5cnoid18ForwardDynamicsABMC2EN5boost13intrusive_ptrINS_4BodyEEE@Base 1.1.0
 _ZN5cnoid18ForwardDynamicsABMD0Ev@Base 1.1.0
 _ZN5cnoid18ForwardDynamicsABMD1Ev@Base 1.1.0
 _ZN5cnoid18ForwardDynamicsABMD2Ev@Base 1.1.0
 _ZN5cnoid18PenetrationBlocker15addOpponentLinkEPNS_4LinkE@Base 1.1.0
 _ZN5cnoid18PenetrationBlocker5startEv@Base 1.1.0
 _ZN5cnoid18PenetrationBlocker6adjustERN5Eigen6MatrixIdLi3ELi1ELi0ELi3ELi1EEERKNS2_IdLi3ELi3ELi0ELi3ELi3EEERKS3_@Base 1.1.0
 _ZN5cnoid18PenetrationBlocker8setDepthEd@Base 1.1.0
 _ZN5cnoid18PenetrationBlockerC1EPNS_4LinkE@Base 1.1.0
 _ZN5cnoid18PenetrationBlockerC2EPNS_4LinkE@Base 1.1.0
 _ZN5cnoid18findBodyCustomizerESs@Base 1.1.0
 _ZN5cnoid19CustomizedJointPath18onJointPathUpdatedEv@Base 1.1.0
 _ZN5cnoid19CustomizedJointPath21calcInverseKinematicsERKN5Eigen6MatrixIdLi3ELi1ELi0ELi3ELi1EEERKNS2_IdLi3ELi3ELi0ELi3ELi3EEE@Base 1.1.0
 _ZN5cnoid19CustomizedJointPathC1EPNS_4BodyEPNS_4LinkES4_@Base 1.1.0
 _ZN5cnoid19CustomizedJointPathC2EPNS_4BodyEPNS_4LinkES4_@Base 1.1.0
 _ZN5cnoid19CustomizedJointPathD0Ev@Base 1.1.0
 _ZN5cnoid19CustomizedJointPathD1Ev@Base 1.1.0
 _ZN5cnoid19CustomizedJointPathD2Ev@Base 1.1.0
 _ZN5cnoid19applyGaussianFilterERNS_13MultiValueSeqEdiRSo@Base 1.1.0
 (optional=templinst)_ZN5cnoid19applyGaussianFilterIN5boost6detail11multi_array16multi_array_viewIdLm1EEESt6vectorIdSaIdEEddEEvRT_RKT0_RS6_IT2_SaISE_EET1_@Base 1.1.0
 _ZN5cnoid19calcInverseDynamicsERKN5boost13intrusive_ptrINS_4BodyEEEPNS_4LinkERN5Eigen6MatrixIdLi3ELi1ELi0ELi3ELi1EEESB_@Base 1.1.0
 _ZN5cnoid19loadBodyCustomizersEPNS_13BodyInterfaceE@Base 1.1.0
 _ZN5cnoid19loadBodyCustomizersESs@Base 1.1.0
 _ZN5cnoid19loadBodyCustomizersESsPNS_13BodyInterfaceE@Base 1.1.0
 _ZN5cnoid19loadBodyCustomizersEv@Base 1.1.0
 _ZN5cnoid20loadHrpsysSeqFileSetERNS_10BodyMotionERKSsRSo@Base 1.1.0
 _ZN5cnoid20saveHrpsysSeqFileSetERNS_10BodyMotionEN5boost13intrusive_ptrINS_4BodyEEERKSsRSo@Base 1.1.0
 _ZN5cnoid21ConstraintForceSolver10initializeEv@Base 1.1.0
 _ZN5cnoid21ConstraintForceSolver19clearExternalForcesEv@Base 1.1.0
 _ZN5cnoid21ConstraintForceSolver24setGaussSeidelParametersEiid@Base 1.1.0
 _ZN5cnoid21ConstraintForceSolver25addCollisionCheckLinkPairEiPNS_4LinkEiS2_dddd@Base 1.1.0
 _ZN5cnoid21ConstraintForceSolver27enableConstraintForceOutputEb@Base 1.1.0
 _ZN5cnoid21ConstraintForceSolver28clearCollisionCheckLinkPairsEv@Base 1.1.0
 _ZN5cnoid21ConstraintForceSolver38setNegativeVelocityRatioForPenetrationEd@Base 1.1.0
 _ZN5cnoid21ConstraintForceSolver5solveEv@Base 1.1.0
 _ZN5cnoid21ConstraintForceSolverC1ERNS_9WorldBaseE@Base 1.1.0
 _ZN5cnoid21ConstraintForceSolverC2ERNS_9WorldBaseE@Base 1.1.0
 _ZN5cnoid21ConstraintForceSolverD1Ev@Base 1.1.0
 _ZN5cnoid21ConstraintForceSolverD2Ev@Base 1.1.0
 _ZN5cnoid21applyRangeLimitFilterERNS_13MultiValueSeqEN5boost13intrusive_ptrINS_4BodyEEEdddRSo@Base 1.1.0
 _ZN5cnoid22BodyMotionPoseProvider10initializeEN5boost13intrusive_ptrINS_4BodyEEENS1_10shared_ptrINS_10BodyMotionEEE@Base 1.1.0
 _ZN5cnoid22BodyMotionPoseProvider12updateMotionEv@Base 1.1.0
 _ZN5cnoid22BodyMotionPoseProvider4seekEd@Base 1.1.0
 _ZN5cnoid22BodyMotionPoseProvider4seekEdiRKN5Eigen6MatrixIdLi3ELi1ELi0ELi3ELi1EEE@Base 1.1.0
 _ZN5cnoid22BodyMotionPoseProvider4seekEdiRKN5Eigen6MatrixIdLi3ELi1ELi0ELi3ELi1EEEb@Base 1.1.0
 _ZN5cnoid22BodyMotionPoseProviderC1EN5boost13intrusive_ptrINS_4BodyEEENS1_10shared_ptrINS_10BodyMotionEEE@Base 1.1.0
 _ZN5cnoid22BodyMotionPoseProviderC1Ev@Base 1.1.0
 _ZN5cnoid22BodyMotionPoseProviderC2EN5boost13intrusive_ptrINS_4BodyEEENS1_10shared_ptrINS_10BodyMotionEEE@Base 1.1.0
 _ZN5cnoid22BodyMotionPoseProviderC2Ev@Base 1.1.0
 _ZN5cnoid22BodyMotionPoseProviderD0Ev@Base 1.1.0
 _ZN5cnoid22BodyMotionPoseProviderD1Ev@Base 1.1.0
 _ZN5cnoid22BodyMotionPoseProviderD2Ev@Base 1.1.0
 _ZN5cnoid22PenetrationBlockerImpl15addOpponentLinkEPNS_4LinkE@Base 1.1.0
 _ZN5cnoid22PenetrationBlockerImpl6adjustERN5Eigen6MatrixIdLi3ELi1ELi0ELi3ELi1EEERKNS2_IdLi3ELi3ELi0ELi3ELi3EEERKS3_@Base 1.1.0
 _ZN5cnoid22PenetrationBlockerImpl8LinkInfoD1Ev@Base 1.1.0
 _ZN5cnoid22PenetrationBlockerImpl8LinkInfoD2Ev@Base 1.1.0
 _ZN5cnoid22PenetrationBlockerImpl9adjustSubERN5Eigen6MatrixIdLi3ELi1ELi0ELi3ELi1EEERKNS2_IdLi3ELi3ELi0ELi3ELi3EEERKS3_@Base 1.1.0
 _ZN5cnoid22PenetrationBlockerImplC1EPNS_4LinkE@Base 1.1.0
 _ZN5cnoid22PenetrationBlockerImplC2EPNS_4LinkE@Base 1.1.0
 _ZN5cnoid24applyVelocityLimitFilterERNS_13MultiValueSeqEN5boost13intrusive_ptrINS_4BodyEEERSo@Base 1.1.0
 _ZN5cnoid25applyVelocityLimitFilter2ERNS_13MultiValueSeqEid@Base 1.1.0
 _ZN5cnoid29applyVelocityLimitFilterDummyEv@Base 1.1.0
 _ZN5cnoid31applyPollardVelocityLimitFilterERNS_13MultiValueSeqEN5boost13intrusive_ptrINS_4BodyEEEdRSo@Base 1.1.0
 _ZN5cnoid33PoseProviderToBodyMotionConverter12setTimeRangeEdd@Base 1.1.0
 _ZN5cnoid33PoseProviderToBodyMotionConverter16setFullTimeRangeEv@Base 1.1.0
 _ZN5cnoid33PoseProviderToBodyMotionConverter24setAllLinkPositionOutputEb@Base 1.1.0
 _ZN5cnoid33PoseProviderToBodyMotionConverter7convertEN5boost13intrusive_ptrINS_4BodyEEEPNS_12PoseProviderERNS_10BodyMotionE@Base 1.1.0
 _ZN5cnoid33PoseProviderToBodyMotionConverterC1Ev@Base 1.1.0
 _ZN5cnoid33PoseProviderToBodyMotionConverterC2Ev@Base 1.1.0
 _ZN5cnoid4Body10initializeEv@Base 1.1.0
 _ZN5cnoid4Body11doResetInfoERKNS_11YamlMappingE@Base 1.1.0
 _ZN5cnoid4Body11setRootLinkEPNS_4LinkE@Base 1.1.0
 _ZN5cnoid4Body12createSensorEPNS_4LinkEiiRKSs@Base 1.1.0
 _ZN5cnoid4Body12getDefaultIKEPNS_4LinkE@Base 1.1.0
 _ZN5cnoid4Body12getJointPathEPNS_4LinkES2_@Base 1.1.0
 _ZN5cnoid4Body13bodyInterfaceEv@Base 1.1.0
 _ZN5cnoid4Body13calcTotalMassEv@Base 1.1.0
 _ZN5cnoid4Body14putInformationERSo@Base 1.1.0
 _ZN5cnoid4Body14updateLinkTreeEv@Base 1.1.0
 _ZN5cnoid4Body16createEmptyJointEi@Base 1.1.0
 _ZN5cnoid4Body17calcTotalMomentumERN5Eigen6MatrixIdLi3ELi1ELi0ELi3ELi1EEES4_@Base 1.1.0
 _ZN5cnoid4Body17clearSensorValuesEv@Base 1.1.0
 _ZN5cnoid4Body17installCustomizerEPNS_23BodyCustomizerInterfaceE@Base 1.1.0
 _ZN5cnoid4Body17installCustomizerEv@Base 1.1.0
 _ZN5cnoid4Body19clearExternalForcesEv@Base 1.1.0
 _ZN5cnoid4Body21calcForwardKinematicsEbb@Base 1.1.0
 _ZN5cnoid4Body21setVirtualJointForcesEv@Base 1.1.0
 _ZN5cnoid4Body22addCustomizerDirectoryERKSs@Base 1.1.0
 _ZN5cnoid4Body22getDefaultRootPositionERN5Eigen6MatrixIdLi3ELi1ELi0ELi3ELi1EEERNS2_IdLi3ELi3ELi0ELi3ELi3EEE@Base 1.1.0
 _ZN5cnoid4Body22setDefaultRootPositionERKN5Eigen6MatrixIdLi3ELi1ELi0ELi3ELi1EEERKNS2_IdLi3ELi3ELi0ELi3ELi3EEE@Base 1.1.0
 _ZN5cnoid4Body23initializeConfigurationEv@Base 1.1.0
 _ZN5cnoid4Body30updateLinkColdetModelPositionsEv@Base 1.1.0
 _ZN5cnoid4Body6calcCMEv@Base 1.1.0
 _ZN5cnoid4Body9addSensorEPNS_6SensorEii@Base 1.1.0
 _ZN5cnoid4Body9resetInfoEN5boost13intrusive_ptrINS_11YamlMappingEEE@Base 1.1.0
 _ZN5cnoid4BodyC1ERKS0_@Base 1.1.0
 _ZN5cnoid4BodyC1Ev@Base 1.1.0
 _ZN5cnoid4BodyC2ERKS0_@Base 1.1.0
 _ZN5cnoid4BodyC2Ev@Base 1.1.0
 _ZN5cnoid4BodyD0Ev@Base 1.1.0
 _ZN5cnoid4BodyD1Ev@Base 1.1.0
 _ZN5cnoid4BodyD2Ev@Base 1.1.0
 _ZN5cnoid4Link11detachChildEPS0_@Base 1.1.0
 _ZN5cnoid4Link11setBodyIterEPNS_4BodyE@Base 1.1.0
 _ZN5cnoid4Link13calcSubMassCMEv@Base 1.1.0
 _ZN5cnoid4Link14putInformationERSo@Base 1.1.0
 _ZN5cnoid4Link8addChildEPS0_@Base 1.1.0
 _ZN5cnoid4LinkC1ERKS0_@Base 1.1.0
 _ZN5cnoid4LinkC1Ev@Base 1.1.0
 _ZN5cnoid4LinkC2ERKS0_@Base 1.1.0
 _ZN5cnoid4LinkC2Ev@Base 1.1.0
 _ZN5cnoid4LinkD1Ev@Base 1.1.0
 _ZN5cnoid4LinkD2Ev@Base 1.1.0
 (optional=templinst)_ZN5cnoid4readIN5Eigen6MatrixIdLi3ELi1ELi0ELi3ELi1EEEEEbRKNS_11YamlMappingERKSsRNS1_10MatrixBaseIT_EE@Base 1.1.0
 _ZN5cnoid6Sensor14putInformationERSo@Base 1.1.0
 _ZN5cnoid6Sensor5clearEv@Base 1.1.0
 _ZN5cnoid6Sensor6createEi@Base 1.1.0
 _ZN5cnoid6Sensor7destroyEPS0_@Base 1.1.0
 _ZN5cnoid6SensorC1Ev@Base 1.1.0
 _ZN5cnoid6SensorC2Ev@Base 1.1.0
 _ZN5cnoid6SensorD0Ev@Base 1.1.0
 _ZN5cnoid6SensorD1Ev@Base 1.1.0
 _ZN5cnoid6SensorD2Ev@Base 1.1.0
 _ZN5cnoid6SensoraSERKS0_@Base 1.1.0
 _ZN5cnoid7CFSImpl10initializeEv@Base 1.1.0
 _ZN5cnoid7CFSImpl12calcAccelsMMERNS0_8BodyDataEi@Base 1.1.0
 _ZN5cnoid7CFSImpl12initMatricesEv@Base 1.1.0
 _ZN5cnoid7CFSImpl13calcAccelsABMERNS0_8BodyDataEi@Base 1.1.0
 _ZN5cnoid7CFSImpl14checkLCPResultERN5Eigen6MatrixIdLin1ELin1ELi1ELin1ELin1EEERNS2_IdLin1ELi1ELi0ELin1ELi1EEES6_@Base 1.1.0
 _ZN5cnoid7CFSImpl14checkMCPResultERN5Eigen6MatrixIdLin1ELin1ELi1ELin1ELin1EEERNS2_IdLin1ELi1ELi0ELin1ELi1EEES6_@Base 1.1.0
 _ZN5cnoid7CFSImpl15ConstraintPointC1ERKS1_@Base 1.1.0
 _ZN5cnoid7CFSImpl15ConstraintPointC2ERKS1_@Base 1.1.0
 _ZN5cnoid7CFSImpl16putContactPointsEv@Base 1.1.0
 _ZN5cnoid7CFSImpl18setFrictionVectorsERNS0_15ConstraintPointE@Base 1.1.0
 _ZN5cnoid7CFSImpl19setConstraintPointsEv@Base 1.1.0
 _ZN5cnoid7CFSImpl21setAccelerationMatrixEv@Base 1.1.0
 _ZN5cnoid7CFSImpl22solveImpactConstraintsEv@Base 1.1.0
 _ZN5cnoid7CFSImpl24addConstraintForceToLinkEPNS0_8LinkPairEi@Base 1.1.0
 _ZN5cnoid7CFSImpl25addCollisionCheckLinkPairEiPNS_4LinkEiS2_dddd@Base 1.1.0
 _ZN5cnoid7CFSImpl25addConstraintForceToLinksEv@Base 1.1.0
 _ZN5cnoid7CFSImpl25setContactConstraintPointERNS0_8LinkPairERNS_14collision_dataEi@Base 1.1.0
 _ZN5cnoid7CFSImpl27setAccelCalcSkipInformationEv@Base 1.1.0
 _ZN5cnoid7CFSImpl27setConstantVectorAndMuBlockEv@Base 1.1.0
 _ZN5cnoid7CFSImpl28setDefaultAccelerationVectorEv@Base 1.1.0
 _ZN5cnoid7CFSImpl29setConnectionConstraintPointsERNS0_8LinkPairE@Base 1.1.0
 _ZN5cnoid7CFSImpl30solveMCPByProjectedGaussSeidelERKN5Eigen6MatrixIdLin1ELin1ELi1ELin1ELin1EEERKNS2_IdLin1ELi1ELi0ELin1ELi1EEERS6_@Base 1.1.0
 _ZN5cnoid7CFSImpl33calcABMForceElementsWithTestForceERNS0_8BodyDataEPNS_4LinkERKN5Eigen6MatrixIdLi3ELi1ELi0ELi3ELi1EEES9_@Base 1.1.0
 _ZN5cnoid7CFSImpl33extractRelAccelsFromLinkPairCase1ERN5Eigen5BlockINS1_6MatrixIdLin1ELin1ELi1ELin1ELin1EEELin1ELin1ELb0ELb1EEES6_RNS0_8LinkPairEii@Base 1.1.0
 _ZN5cnoid7CFSImpl33extractRelAccelsFromLinkPairCase2ERN5Eigen5BlockINS1_6MatrixIdLin1ELin1ELi1ELin1ELin1EEELin1ELin1ELb0ELb1EEES6_RNS0_8LinkPairEiiii@Base 1.1.0
 _ZN5cnoid7CFSImpl33extractRelAccelsFromLinkPairCase3ERN5Eigen5BlockINS1_6MatrixIdLin1ELin1ELi1ELin1ELin1EEELin1ELin1ELb0ELb1EEES6_RNS0_8LinkPairEii@Base 1.1.0
 _ZN5cnoid7CFSImpl34extractRelAccelsOfConstraintPointsERN5Eigen5BlockINS1_6MatrixIdLin1ELin1ELi1ELin1ELin1EEELin1ELin1ELb0ELb1EEES6_ii@Base 1.1.0
 _ZN5cnoid7CFSImpl34initABMForceElementsWithNoExtForceERNS0_8BodyDataE@Base 1.1.0
 _ZN5cnoid7CFSImpl34solveMCPByProjectedGaussSeidelMainERKN5Eigen6MatrixIdLin1ELin1ELi1ELin1ELin1EEERKNS2_IdLin1ELi1ELi0ELin1ELi1EEERS6_i@Base 1.1.0
 _ZN5cnoid7CFSImpl37solveMCPByProjectedGaussSeidelInitialERKN5Eigen6MatrixIdLin1ELin1ELi1ELin1ELin1EEERKNS2_IdLin1ELi1ELi0ELin1ELi1EEERS6_i@Base 1.1.0
 _ZN5cnoid7CFSImpl40solveMCPByProjectedGaussSeidelErrorCheckERKN5Eigen6MatrixIdLin1ELin1ELi1ELin1ELin1EEERKNS2_IdLin1ELi1ELi0ELin1ELi1EEERS6_@Base 1.1.0
 _ZN5cnoid7CFSImpl41copySymmetricElementsOfAccelerationMatrixERN5Eigen5BlockINS1_6MatrixIdLin1ELin1ELi1ELin1ELin1EEELin1ELin1ELb0ELb1EEES6_S6_S6_@Base 1.1.0
 _ZN5cnoid7CFSImpl52clearSingularPointConstraintsOfClosedLoopConnectionsEv@Base 1.1.0
 _ZN5cnoid7CFSImpl5solveEv@Base 1.1.0
 _ZN5cnoid7CFSImpl8BodyDataC1ERKS1_@Base 1.1.0
 _ZN5cnoid7CFSImpl8BodyDataC2ERKS1_@Base 1.1.0
 _ZN5cnoid7CFSImpl8BodyDataD1Ev@Base 1.1.0
 _ZN5cnoid7CFSImpl8BodyDataD2Ev@Base 1.1.0
 _ZN5cnoid7CFSImpl8LinkDataC1ERKS1_@Base 1.1.0
 _ZN5cnoid7CFSImpl8LinkDataC2ERKS1_@Base 1.1.0
 _ZN5cnoid7CFSImpl8LinkPairD0Ev@Base 1.1.0
 _ZN5cnoid7CFSImpl8LinkPairD1Ev@Base 1.1.0
 _ZN5cnoid7CFSImpl8LinkPairD2Ev@Base 1.1.0
 _ZN5cnoid7CFSImplC1ERNS_9WorldBaseE@Base 1.1.0
 _ZN5cnoid7CFSImplC2ERNS_9WorldBaseE@Base 1.1.0
 _ZN5cnoid7CFSImplD1Ev@Base 1.1.0
 _ZN5cnoid7CFSImplD2Ev@Base 1.1.0
 _ZN5cnoid7SeqBase10setPurposeERKSs@Base 1.1.0
 _ZN5cnoid8LinkPath11findPathSubEPNS_4LinkES2_S2_b@Base 1.1.0
 _ZN5cnoid8LinkPath19findPathFromRootSubEPNS_4LinkE@Base 1.1.0
 _ZN5cnoid8LinkPath4findEPNS_4LinkE@Base 1.1.0
 _ZN5cnoid8LinkPath4findEPNS_4LinkES2_@Base 1.1.0
 _ZN5cnoid8LinkPath4findEPNS_4LinkEbb@Base 1.1.0
 _ZN5cnoid8LinkPathC1EPNS_4LinkE@Base 1.1.0
 _ZN5cnoid8LinkPathC1EPNS_4LinkES2_@Base 1.1.0
 _ZN5cnoid8LinkPathC1Ev@Base 1.1.0
 _ZN5cnoid8LinkPathC2EPNS_4LinkE@Base 1.1.0
 _ZN5cnoid8LinkPathC2EPNS_4LinkES2_@Base 1.1.0
 _ZN5cnoid8LinkPathC2Ev@Base 1.1.0
 _ZN5cnoid8LinkPathD0Ev@Base 1.1.0
 _ZN5cnoid8LinkPathD1Ev@Base 1.1.0
 _ZN5cnoid8LinkPathD2Ev@Base 1.1.0
 (optional=templinst)_ZN5cnoid8MultiSeqIN5Eigen9TransformIdLi3ELi2ELi0EEENS1_17aligned_allocatorIS3_EEE4partEi@Base 1.1.0
 (optional=templinst)_ZN5cnoid8MultiSeqIdSaIdEE4partEi@Base 1.1.0
 _ZN5cnoid9JointPath10initializeEv@Base 1.1.0
 _ZN5cnoid9JointPath13extractJointsEv@Base 1.1.0
 _ZN5cnoid9JointPath13setMaxIKerrorEd@Base 1.1.0
 _ZN5cnoid9JointPath18onJointPathUpdatedEv@Base 1.1.0
 _ZN5cnoid9JointPath19setBestEffortIKModeEb@Base 1.1.0
 _ZN5cnoid9JointPath21calcInverseKinematicsERKN5Eigen6MatrixIdLi3ELi1ELi0ELi3ELi1EEERKNS2_IdLi3ELi3ELi0ELi3ELi3EEE@Base 1.1.0
 _ZN5cnoid9JointPath21calcInverseKinematicsERKN5Eigen6MatrixIdLi3ELi1ELi0ELi3ELi1EEERKNS2_IdLi3ELi3ELi0ELi3ELi3EEES5_S8_@Base 1.1.0
 _ZN5cnoid9JointPath4findEPNS_4LinkE@Base 1.1.0
 _ZN5cnoid9JointPath4findEPNS_4LinkES2_@Base 1.1.0
 _ZN5cnoid9JointPathC1EPNS_4LinkE@Base 1.1.0
 _ZN5cnoid9JointPathC1EPNS_4LinkES2_@Base 1.1.0
 _ZN5cnoid9JointPathC1Ev@Base 1.1.0
 _ZN5cnoid9JointPathC2EPNS_4LinkE@Base 1.1.0
 _ZN5cnoid9JointPathC2EPNS_4LinkES2_@Base 1.1.0
 _ZN5cnoid9JointPathC2Ev@Base 1.1.0
 _ZN5cnoid9JointPathD0Ev@Base 1.1.0
 _ZN5cnoid9JointPathD1Ev@Base 1.1.0
 _ZN5cnoid9JointPathD2Ev@Base 1.1.0
 _ZN5cnoid9LinkGroup15setFlatLinkListERN5boost13intrusive_ptrINS_4BodyEEE@Base 1.1.0
 _ZN5cnoid9LinkGroup4loadERN5boost13intrusive_ptrINS_4BodyEEERKNS_12YamlSequenceE@Base 1.1.0
 _ZN5cnoid9LinkGroup6createEN5boost13intrusive_ptrINS_4BodyEEERKNS_12YamlSequenceE@Base 1.1.0
 _ZN5cnoid9LinkGroupC1Ev@Base 1.1.0
 _ZN5cnoid9LinkGroupC2Ev@Base 1.1.0
 _ZN5cnoid9LinkGroupD0Ev@Base 1.1.0
 _ZN5cnoid9LinkGroupD1Ev@Base 1.1.0
 _ZN5cnoid9LinkGroupD2Ev@Base 1.1.0
 _ZN5cnoid9PinDragIK10initializeEv@Base 1.1.0
 _ZN5cnoid9PinDragIK11setBaseLinkEPNS_4LinkE@Base 1.1.0
 _ZN5cnoid9PinDragIK13setTargetLinkEPNS_4LinkEb@Base 1.1.0
 _ZN5cnoid9PinDragIK14numPinnedLinksEv@Base 1.1.0
 _ZN5cnoid9PinDragIK14setJointWeightEid@Base 1.1.0
 _ZN5cnoid9PinDragIK15hasAnalyticalIKEv@Base 1.1.0
 _ZN5cnoid9PinDragIK16setIKErrorThreshEd@Base 1.1.0
 _ZN5cnoid9PinDragIK17setFreeRootWeightEdd@Base 1.1.0
 _ZN5cnoid9PinDragIK21calcInverseKinematicsERKN5Eigen6MatrixIdLi3ELi1ELi0ELi3ELi1EEERKNS2_IdLi3ELi3ELi0ELi3ELi3EEE@Base 1.1.0
 _ZN5cnoid9PinDragIK22setSRInverseParametersEdd@Base 1.1.0
 _ZN5cnoid9PinDragIK27enableJointRangeConstraintsEb@Base 1.1.0
 _ZN5cnoid9PinDragIK6setPinEPNS_4LinkENS_17InverseKinematics7AxisSetEd@Base 1.1.0
 _ZN5cnoid9PinDragIK7pinAxesEPNS_4LinkE@Base 1.1.0
 _ZN5cnoid9PinDragIK9clearPinsEv@Base 1.1.0
 _ZN5cnoid9PinDragIKC1EN5boost13intrusive_ptrINS_4BodyEEE@Base 1.1.0
 _ZN5cnoid9PinDragIKC2EN5boost13intrusive_ptrINS_4BodyEEE@Base 1.1.0
 _ZN5cnoid9PinDragIKD0Ev@Base 1.1.0
 _ZN5cnoid9PinDragIKD1Ev@Base 1.1.0
 _ZN5cnoid9PinDragIKD2Ev@Base 1.1.0
 _ZN5cnoid9WorldBase10initializeEv@Base 1.1.0
 _ZN5cnoid9WorldBase11clearBodiesEv@Base 1.1.0
 _ZN5cnoid9WorldBase11setTimeStepEd@Base 1.1.0
 _ZN5cnoid9WorldBase13calcNextStateEv@Base 1.1.0
 _ZN5cnoid9WorldBase13enableSensorsEb@Base 1.1.0
 _ZN5cnoid9WorldBase14setCurrentTimeEd@Base 1.1.0
 _ZN5cnoid9WorldBase14setEulerMethodEv@Base 1.1.0
 _ZN5cnoid9WorldBase19clearCollisionPairsEv@Base 1.1.0
 _ZN5cnoid9WorldBase19getIndexOfLinkPairsEPNS_4LinkES2_@Base 1.1.0
 _ZN5cnoid9WorldBase19setRungeKuttaMethodEv@Base 1.1.0
 _ZN5cnoid9WorldBase22setGravityAccelerationERKN5Eigen6MatrixIdLi3ELi1ELi0ELi3ELi1EEE@Base 1.1.0
 _ZN5cnoid9WorldBase4bodyERKSs@Base 1.1.0
 _ZN5cnoid9WorldBase4bodyEi@Base 1.1.0
 _ZN5cnoid9WorldBase7addBodyEN5boost13intrusive_ptrINS_4BodyEEE@Base 1.1.0
 _ZN5cnoid9WorldBase8BodyInfoD1Ev@Base 1.1.0
 _ZN5cnoid9WorldBase8BodyInfoD2Ev@Base 1.1.0
 _ZN5cnoid9WorldBase9bodyIndexERKSs@Base 1.1.0
 _ZN5cnoid9WorldBaseC1Ev@Base 1.1.0
 _ZN5cnoid9WorldBaseC2Ev@Base 1.1.0
 _ZN5cnoid9WorldBaseD0Ev@Base 1.1.0
 _ZN5cnoid9WorldBaseD1Ev@Base 1.1.0
 _ZN5cnoid9WorldBaseD2Ev@Base 1.1.0
 _ZN5cnoidlsERKNS_10BodyMotion5FrameERKNS_4BodyE@Base 1.1.0
 _ZN5cnoidrsERKNS_10BodyMotion5FrameERKNS_4BodyE@Base 1.1.0
 (optional=templinst)_ZNK5Eigen10MatrixBaseINS_5BlockINS1_INS_6MatrixIdLi6ELi6ELi0ELi6ELi6EEELi6ELi1ELb1ELb1EEELin1ELi1ELb0ELb1EEEE15makeHouseholderINS_11VectorBlockIS5_Lin1EEEEEvRT_RdSC_@Base 1.1.0
 (optional=templinst)_ZNK5Eigen10MatrixBaseINS_5BlockINS1_INS_6MatrixIdLin1ELin1ELi0ELin1ELin1EEELin1ELi1ELb1ELb1EEELin1ELi1ELb0ELb1EEEE15makeHouseholderINS_11VectorBlockIS5_Lin1EEEEEvRT_RdSC_@Base 1.1.0
 (optional=templinst)_ZNK5Eigen10MatrixBaseINS_6MatrixIdLi3ELi1ELi0ELi3ELi1EEEE10normalizedEv@Base 1.1.0
 (optional=templinst)_ZNK5Eigen14GeneralProductINS_15DiagonalProductINS_5BlockIKNS_6MatrixIdLin1ELin1ELi0ELin1ELin1EEELin1ELin1ELb1ELb1EEENS_15DiagonalWrapperIKNS3_IdLin1ELi1ELi0ELin1ELi1EEEEELi2EEENS_9TransposeIKS6_EELi5EE13scaleAndAddToIS4_EEvRT_d@Base 1.1.0
 (optional=templinst)_ZNK5Eigen14GeneralProductINS_6MatrixIdLin1ELin1ELi0ELin1ELin1EEENS_9TransposeIKS2_EELi5EE13scaleAndAddToIS2_EEvRT_d@Base 1.1.0
 (optional=templinst)_ZNK5Eigen14GeneralProductINS_6MatrixIdLin1ELin1ELi0ELin1ELin1EEES2_Li5EE13scaleAndAddToIS2_EEvRT_d@Base 1.1.0
 (optional=templinst)_ZNK5Eigen14GeneralProductINS_9TransposeIKNS_6MatrixIdLin1ELin1ELi0ELin1ELin1EEEEES3_Li5EE13scaleAndAddToIS3_EEvRT_d@Base 1.1.0
 (optional=templinst)_ZNK5Eigen19HouseholderSequenceINS_6MatrixIdLin1ELin1ELi0ELin1ELin1EEENS1_IdLin1ELi1ELi0ELin1ELi1EEELi1EE18applyThisOnTheLeftIS2_NS1_IdLi1ELin1ELi1ELi1ELin1EEEEEvRT_RT0_@Base 1.1.0
 (optional=templinst)_ZNK5Eigen19HouseholderSequenceINS_6MatrixIdLin1ELin1ELi0ELin1ELin1EEENS1_IdLin1ELi1ELi0ELin1ELi1EEELi1EE18applyThisOnTheLeftIS2_S3_EEvRT_RT0_@Base 1.1.0
 (optional=templinst)_ZNK5Eigen19HouseholderSequenceINS_6MatrixIdLin1ELin1ELi0ELin1ELin1EEENS1_IdLin1ELi1ELi0ELin1ELi1EEELi1EE6evalToIS2_NS1_IdLi1ELin1ELi1ELi1ELin1EEEEEvRT_RT0_@Base 1.1.0
 (optional=templinst)_ZNK5Eigen19HouseholderSequenceINS_6MatrixIdLin1ELin1ELi0ELin1ELin1EEENS1_IdLin1ELi1ELi0ELin1ELi1EEELi1EE6evalToIS2_S3_EEvRT_RT0_@Base 1.1.0
 (optional=templinst)_ZNK5Eigen8internal12solve_retvalINS_19ColPivHouseholderQRINS_6MatrixIdLi6ELi6ELi0ELi6ELi6EEEEENS3_IdLi6ELi1ELi0ELi6ELi1EEEE6evalToIS6_EEvRT_@Base 1.1.0
 (optional=templinst)_ZNK5Eigen8internal12solve_retvalINS_19ColPivHouseholderQRINS_6MatrixIdLin1ELin1ELi0ELin1ELin1EEEEENS3_IdLin1ELi1ELi0ELin1ELi1EEEE6evalToIS6_EEvRT_@Base 1.1.0
 (optional=templinst)_ZNK5Eigen8internal12solve_retvalINS_9JacobiSVDINS_6MatrixIdLin1ELin1ELi0ELin1ELin1EEELi2EEENS3_IdLin1ELi1ELi0ELin1ELi1EEEE6evalToIS6_EEvRT_@Base 1.1.0
 (optional=templinst)_ZNK5Eigen9AngleAxisIdE16toRotationMatrixEv@Base 1.1.0
 (optional=templinst)_ZNK5boost11filesystem210basic_pathISsNS0_11path_traitsEE11file_stringEv@Base 1.1.0
 (optional=templinst)_ZNK5boost11filesystem210basic_pathISsNS0_11path_traitsEE11parent_pathEv@Base 1.1.0
 (optional=templinst)_ZNK5boost11filesystem210basic_pathISsNS0_11path_traitsEE13has_root_pathEv@Base 1.1.0
 (optional=templinst)_ZNK5boost11filesystem210basic_pathISsNS0_11path_traitsEE14root_directoryEv@Base 1.1.0
 (optional=templinst)_ZNK5boost11filesystem210basic_pathISsNS0_11path_traitsEE20external_file_stringEv@Base 1.1.0
 (optional=templinst)_ZNK5boost11filesystem210basic_pathISsNS0_11path_traitsEE5beginEv@Base 1.1.0
 (optional=templinst)_ZNK5boost11filesystem210basic_pathISsNS0_11path_traitsEE8filenameEv@Base 1.1.0
 (optional=templinst)_ZNK5boost11filesystem210basic_pathISsNS0_11path_traitsEE9root_nameEv@Base 1.1.0
 (optional=templinst)_ZNK5boost11filesystem210basic_pathISsNS0_11path_traitsEE9root_pathEv@Base 1.1.0
 (optional=templinst)_ZNK5boost11filesystem222basic_filesystem_errorINS0_10basic_pathISsNS0_11path_traitsEEEE4whatEv@Base 1.1.0
 (optional=templinst)_ZNK5boost12basic_formatIcSt11char_traitsIcESaIcEE3strEv@Base 1.1.0
 (optional=templinst)_ZNK5boost12basic_formatIcSt11char_traitsIcESaIcEE4sizeEv@Base 1.1.0
 (optional=templinst)_ZNK5boost12basic_formatIcSt11char_traitsIcESaIcEE6getlocEv@Base 1.1.0
 (optional=templinst)_ZNK5boost15optional_detail13optional_baseIN5Eigen6MatrixIdLi3ELi1ELi0ELi3ELi1EEEE14is_initializedEv@Base 1.1.0
 (optional=templinst)_ZNK5boost15optional_detail13optional_baseISt6localeE14is_initializedEv@Base 1.1.0
 (optional=templinst)_ZNK5boost15optional_detail13optional_baseIdE14is_initializedEv@Base 1.1.0
 (optional=templinst)_ZNK5boost16exception_detail10clone_implINS0_19error_info_injectorINS_17bad_function_callEEEE5cloneEv@Base 1.1.0
 (optional=templinst)_ZNK5boost16exception_detail10clone_implINS0_19error_info_injectorINS_17bad_function_callEEEE7rethrowEv@Base 1.1.0
 (optional=templinst)_ZNK5boost16exception_detail10clone_implINS0_19error_info_injectorINS_2io12too_few_argsEEEE5cloneEv@Base 1.1.0
 (optional=templinst)_ZNK5boost16exception_detail10clone_implINS0_19error_info_injectorINS_2io12too_few_argsEEEE7rethrowEv@Base 1.1.0
 (optional=templinst)_ZNK5boost16exception_detail10clone_implINS0_19error_info_injectorINS_2io13too_many_argsEEEE5cloneEv@Base 1.1.0
 (optional=templinst)_ZNK5boost16exception_detail10clone_implINS0_19error_info_injectorINS_2io13too_many_argsEEEE7rethrowEv@Base 1.1.0
 (optional=templinst)_ZNK5boost16exception_detail10clone_implINS0_19error_info_injectorINS_2io17bad_format_stringEEEE5cloneEv@Base 1.1.0
 (optional=templinst)_ZNK5boost16exception_detail10clone_implINS0_19error_info_injectorINS_2io17bad_format_stringEEEE7rethrowEv@Base 1.1.0
 _ZNK5boost2io12format_error4whatEv@Base 1.1.0
 _ZNK5boost2io12too_few_args4whatEv@Base 1.1.0
 _ZNK5boost2io13too_many_args4whatEv@Base 1.1.0
 _ZNK5boost2io17bad_format_string4whatEv@Base 1.1.0
 (optional=templinst)_ZNK5boost2io6detail19stream_format_stateIcSt11char_traitsIcEE8apply_onERSt9basic_iosIcS4_EPSt6locale@Base 1.1.0
 (optional=templinst)_ZNK5boost3any6holderINS_10last_valueIvEEE4typeEv@Base 1.1.0
 (optional=templinst)_ZNK5boost3any6holderINS_10last_valueIvEEE5cloneEv@Base 1.1.0
 (optional=templinst)_ZNK5boost3any6holderINS_8functionIFvRKSsEEEE4typeEv@Base 1.1.0
 (optional=templinst)_ZNK5boost3any6holderINS_8functionIFvRKSsEEEE5cloneEv@Base 1.1.0
 (optional=templinst)_ZNK5boost6detail11multi_array21multi_array_impl_baseIN5Eigen9TransformIdLi3ELi2ELi0EEELm2EE19generate_array_viewINS1_16multi_array_viewIS5_Lm1EEELi1EPS5_EET_NS_4typeISB_EERKNS1_9index_genILi2EXT0_EEEPKmPKlSL_T1_@Base 1.1.0
 (optional=templinst)_ZNK5boost6detail11multi_array21multi_array_impl_baseIdLm2EE19generate_array_viewINS1_16multi_array_viewIdLm1EEELi1EPdEET_NS_4typeIS8_EERKNS1_9index_genILi2EXT0_EEEPKmPKlSI_T1_@Base 1.1.0
 _ZNK5boost6system12system_error4whatEv@Base 1.1.0
 _ZNK5boost6system14error_category10equivalentERKNS0_10error_codeEi@Base 1.1.0
 _ZNK5boost6system14error_category10equivalentEiRKNS0_15error_conditionE@Base 1.1.0
 _ZNK5boost6system14error_category23default_error_conditionEi@Base 1.1.0
 _ZNK5boost7bad_get4whatEv@Base 1.1.0
 (optional=templinst)_ZNK5boost7signal1IvRKSsNS_10last_valueIvEEiSt4lessIiENS_8functionIFvS2_EEEEclES2_@Base 1.1.0
 (optional=templinst)_ZNK5boost7signals6detail18slot_call_iteratorINS1_11call_bound1IvE6callerIRKSsNS_8functionIFvS7_EEEEENS1_23named_slot_map_iteratorEE5equalERKSD_@Base 1.1.0
 (optional=templinst)_ZNK5boost9function2IbPN5cnoid9VrmlShapeERKN5Eigen9TransformIdLi3ELi2ELi0EEEEclES3_S8_@Base 1.1.0
 _ZNK5cnoid10BodyMotion11getNumPartsEv@Base 1.1.0
 _ZNK5cnoid10BodyMotion12getFrameRateEv@Base 1.1.0
 _ZNK5cnoid10BodyMotion12getNumFramesEv@Base 1.1.0
 _ZNK5cnoid10LeggedBody12centerOfSoleEi@Base 1.1.0
 _ZNK5cnoid10LeggedBody13centerOfSolesEv@Base 1.1.0
 _ZNK5cnoid10LeggedBody13homeCopOfSoleEi@Base 1.1.0
 _ZNK5cnoid10LeggedBody14homeCopOfSolesEv@Base 1.1.0
 _ZNK5cnoid10LeggedBody9duplicateEv@Base 1.1.0
 _ZNK5cnoid11CompositeIK15hasAnalyticalIKEv@Base 1.1.0
 _ZNK5cnoid12LinkTraverse21calcForwardKinematicsEbb@Base 1.1.0
 _ZNK5cnoid17InverseKinematics8axisTypeEv@Base 1.1.0
 _ZNK5cnoid19CustomizedJointPath15hasAnalyticalIKEv@Base 1.1.0
 _ZNK5cnoid22BodyMotionPoseProvider10endingTimeEv@Base 1.1.0
 _ZNK5cnoid22BodyMotionPoseProvider13baseLinkIndexEv@Base 1.1.0
 _ZNK5cnoid22BodyMotionPoseProvider13beginningTimeEv@Base 1.1.0
 _ZNK5cnoid22BodyMotionPoseProvider17getJointPositionsERSt6vectorIN5boost8optionalIdEESaIS4_EE@Base 1.1.0
 _ZNK5cnoid22BodyMotionPoseProvider19getBaseLinkPositionERN5Eigen6MatrixIdLi3ELi1ELi0ELi3ELi1EEERNS2_IdLi3ELi3ELi0ELi3ELi3EEE@Base 1.1.0
 _ZNK5cnoid22BodyMotionPoseProvider3zmpEv@Base 1.1.0
 _ZNK5cnoid22BodyMotionPoseProvider4bodyEv@Base 1.1.0
 _ZNK5cnoid4Body4linkERKSs@Base 1.1.0
 _ZNK5cnoid4Body9duplicateEv@Base 1.1.0
 _ZNK5cnoid9JointPath12calcJacobianERN5Eigen6MatrixIdLin1ELin1ELi0ELin1ELin1EEE@Base 1.1.0
 _ZNK5cnoid9JointPath15hasAnalyticalIKEv@Base 1.1.0
 _ZNK5cnoid9PinDragIK10targetAxesEv@Base 1.1.0
 _ZNK5cnoid9PinDragIK4bodyEv@Base 1.1.0
 _ZNK5cnoid9WorldBase11LinkPairKeyltERKS1_@Base 1.1.0
 (optional=templinst)_ZNKSt6vectorIN5Eigen6MatrixIdLi3ELi1ELi0ELi3ELi1EEESaIS2_EE12_M_check_lenEmPKc@Base 1.1.0
 (optional=templinst)_ZNKSt6vectorIN5boost10shared_ptrIN5cnoid12JointNodeSetEEESaIS4_EE12_M_check_lenEmPKc@Base 1.1.0
 (optional=templinst)_ZNKSt6vectorIN5boost13intrusive_ptrIN5cnoid17VrmlProtoInstanceEEESaIS4_EE12_M_check_lenEmPKc@Base 1.1.0
 (optional=templinst)_ZNKSt6vectorIN5boost13intrusive_ptrIN5cnoid7CFSImpl8LinkPairEEESaIS5_EE12_M_check_lenEmPKc@Base 1.1.0
 (optional=templinst)_ZNKSt6vectorIN5boost2io6detail11format_itemIcSt11char_traitsIcESaIcEEESaIS7_EE12_M_check_lenEmPKc@Base 1.1.0
 (optional=templinst)_ZNKSt6vectorIN5cnoid12RangeLimiter8TSegmentESaIS2_EE12_M_check_lenEmPKc@Base 1.1.0
 (optional=templinst)_ZNKSt6vectorIN5cnoid14BodyLoaderImpl8MeshInfoEN5Eigen29aligned_allocator_indirectionIS2_EEE12_M_check_lenEmPKc@Base 1.1.0
 (optional=templinst)_ZNKSt6vectorIPKN5boost7signals9trackableESaIS4_EE12_M_check_lenEmPKc@Base 1.1.0
 (optional=templinst)_ZNKSt6vectorIPN5cnoid7CFSImpl8LinkPairESaIS3_EE12_M_check_lenEmPKc@Base 1.1.0
 (optional=templinst)_ZNKSt6vectorIbSaIbEE12_M_check_lenEmPKc@Base 1.1.0
 (optional=templinst)_ZNKSt6vectorIdSaIdEE12_M_check_lenEmPKc@Base 1.1.0
 (optional=templinst)_ZNKSt6vectorIiSaIiEE12_M_check_lenEmPKc@Base 1.1.0
 (optional=templinst)_ZNKSt8_Rb_treeISsSt4pairIKSsPN5cnoid4LinkEESt10_Select1stIS5_ESt4lessISsESaIS5_EE4findERS1_@Base 1.1.0
 (optional=templinst)_ZNSt11_Deque_baseIPN5cnoid4LinkESaIS2_EE17_M_initialize_mapEm@Base 1.1.0
 (optional=templinst)_ZNSt11_Deque_baseIPN5cnoid4LinkESaIS2_EED1Ev@Base 1.1.0
 (optional=templinst)_ZNSt11_Deque_baseIPN5cnoid4LinkESaIS2_EED2Ev@Base 1.1.0
 (optional=templinst)_ZNSt11__copy_moveILb0ELb0ESt26random_access_iterator_tagE8__copy_mIPKN5Eigen6MatrixIdLi2ELi1ELi0ELi2ELi1EEEPS5_EET0_T_SA_S9_@Base 1.1.0
 (optional=templinst)_ZNSt11__copy_moveILb0ELb0ESt26random_access_iterator_tagE8__copy_mIPKN5boost13intrusive_ptrIN5cnoid8VrmlNodeEEEPS7_EET0_T_SC_SB_@Base 1.1.0
 (optional=templinst)_ZNSt11__copy_moveILb0ELb0ESt26random_access_iterator_tagE8__copy_mIPKN5cnoid7CFSImpl8LinkDataEPS5_EET0_T_SA_S9_@Base 1.1.0
 (optional=templinst)_ZNSt11__copy_moveILb0ELb0ESt26random_access_iterator_tagE8__copy_mIPKSsPSsEET0_T_S7_S6_@Base 1.1.0
 (optional=templinst)_ZNSt11__copy_moveILb0ELb0ESt26random_access_iterator_tagE8__copy_mIPN5Eigen6MatrixIdLi2ELi1ELi0ELi2ELi1EEES6_EET0_T_S8_S7_@Base 1.1.0
 (optional=templinst)_ZNSt11__copy_moveILb0ELb0ESt26random_access_iterator_tagE8__copy_mIPN5boost13intrusive_ptrIN5cnoid8VrmlNodeEEES8_EET0_T_SA_S9_@Base 1.1.0
 (optional=templinst)_ZNSt11__copy_moveILb0ELb0ESt26random_access_iterator_tagE8__copy_mIPN5cnoid7CFSImpl8LinkDataES6_EET0_T_S8_S7_@Base 1.1.0
 (optional=templinst)_ZNSt11__copy_moveILb0ELb0ESt26random_access_iterator_tagE8__copy_mIPSsS3_EET0_T_S5_S4_@Base 1.1.0
 (optional=templinst)_ZNSt11__copy_moveILb0ELb1ESt26random_access_iterator_tagE8__copy_mIN5cnoid12RangeLimiter8TSegmentEEEPT_PKS6_S9_S7_@Base 1.1.0
 (optional=templinst)_ZNSt11__copy_moveILb0ELb1ESt26random_access_iterator_tagE8__copy_mIPKN5boost7signals9trackableEEEPT_PKS8_SB_S9_@Base 1.1.0
 (optional=templinst)_ZNSt11__copy_moveILb0ELb1ESt26random_access_iterator_tagE8__copy_mIdEEPT_PKS3_S6_S4_@Base 1.1.0
 (optional=templinst)_ZNSt12_Destroy_auxILb0EE9__destroyIN9__gnu_cxx17__normal_iteratorIPN5boost13intrusive_ptrIN5cnoid8VrmlNodeEEESt6vectorIS8_SaIS8_EEEEEEvT_SE_@Base 1.1.0
 (optional=templinst)_ZNSt12_Destroy_auxILb0EE9__destroyIN9__gnu_cxx17__normal_iteratorIPSsSt6vectorISsSaISsEEEEEEvT_S9_@Base 1.1.0
 (optional=templinst)_ZNSt12_Destroy_auxILb0EE9__destroyIPN5boost10shared_ptrIN5cnoid12JointNodeSetEEEEEvT_S8_@Base 1.1.0
 (optional=templinst)_ZNSt12_Destroy_auxILb0EE9__destroyIPN5boost13intrusive_ptrIN5cnoid17VrmlProtoInstanceEEEEEvT_S8_@Base 1.1.0
 (optional=templinst)_ZNSt12_Destroy_auxILb0EE9__destroyIPN5boost13intrusive_ptrIN5cnoid7CFSImpl8LinkPairEEEEEvT_S9_@Base 1.1.0
 (optional=templinst)_ZNSt12_Destroy_auxILb0EE9__destroyIPN5boost13intrusive_ptrIN5cnoid8VrmlNodeEEEEEvT_S8_@Base 1.1.0
 (optional=templinst)_ZNSt12_Destroy_auxILb0EE9__destroyIPN5boost2io6detail11format_itemIcSt11char_traitsIcESaIcEEEEEvT_SB_@Base 1.1.0
 (optional=templinst)_ZNSt12_Destroy_auxILb0EE9__destroyIPN5cnoid10LeggedBody8FootInfoEEEvT_S6_@Base 1.1.0
 (optional=templinst)_ZNSt12_Destroy_auxILb0EE9__destroyIPN5cnoid11CompositeIK8PathInfoEEEvT_S6_@Base 1.1.0
 (optional=templinst)_ZNSt12_Destroy_auxILb0EE9__destroyIPN5cnoid7CFSImpl8BodyDataEEEvT_S6_@Base 1.1.0
 (optional=templinst)_ZNSt12_Destroy_auxILb0EE9__destroyIPSsEEvT_S3_@Base 1.1.0
 (optional=templinst)_ZNSt12_Vector_baseIN5Eigen5ArrayIfLi3ELi1ELi0ELi3ELi1EEESaIS2_EED1Ev@Base 1.1.0
 (optional=templinst)_ZNSt12_Vector_baseIN5Eigen5ArrayIfLi3ELi1ELi0ELi3ELi1EEESaIS2_EED2Ev@Base 1.1.0
 (optional=templinst)_ZNSt12_Vector_baseIN5Eigen6MatrixIdLi2ELi1ELi0ELi2ELi1EEENS0_29aligned_allocator_indirectionIS2_EEED1Ev@Base 1.1.0
 (optional=templinst)_ZNSt12_Vector_baseIN5Eigen6MatrixIdLi2ELi1ELi0ELi2ELi1EEENS0_29aligned_allocator_indirectionIS2_EEED2Ev@Base 1.1.0
 (optional=templinst)_ZNSt12_Vector_baseIN5Eigen6MatrixIdLi3ELi1ELi0ELi3ELi1EEESaIS2_EED1Ev@Base 1.1.0
 (optional=templinst)_ZNSt12_Vector_baseIN5Eigen6MatrixIdLi3ELi1ELi0ELi3ELi1EEESaIS2_EED2Ev@Base 1.1.0
 (optional=templinst)_ZNSt12_Vector_baseIN5Eigen9AngleAxisIdEESaIS2_EED1Ev@Base 1.1.0
 (optional=templinst)_ZNSt12_Vector_baseIN5Eigen9AngleAxisIdEESaIS2_EED2Ev@Base 1.1.0
 (optional=templinst)_ZNSt12_Vector_baseIN5boost13intrusive_ptrIN5cnoid17VrmlProtoInstanceEEESaIS4_EED1Ev@Base 1.1.0
 (optional=templinst)_ZNSt12_Vector_baseIN5boost13intrusive_ptrIN5cnoid17VrmlProtoInstanceEEESaIS4_EED2Ev@Base 1.1.0
 (optional=templinst)_ZNSt12_Vector_baseIN5boost13intrusive_ptrIN5cnoid7CFSImpl8LinkPairEEESaIS5_EED1Ev@Base 1.1.0
 (optional=templinst)_ZNSt12_Vector_baseIN5boost13intrusive_ptrIN5cnoid7CFSImpl8LinkPairEEESaIS5_EED2Ev@Base 1.1.0
 (optional=templinst)_ZNSt12_Vector_baseIN5boost13intrusive_ptrIN5cnoid8VrmlNodeEEESaIS4_EED1Ev@Base 1.1.0
 (optional=templinst)_ZNSt12_Vector_baseIN5boost13intrusive_ptrIN5cnoid8VrmlNodeEEESaIS4_EED2Ev@Base 1.1.0
 (optional=templinst)_ZNSt12_Vector_baseIN5cnoid7CFSImpl8LinkDataESaIS2_EED1Ev@Base 1.1.0
 (optional=templinst)_ZNSt12_Vector_baseIN5cnoid7CFSImpl8LinkDataESaIS2_EED2Ev@Base 1.1.0
 (optional=templinst)_ZNSt12_Vector_baseISsSaISsEED1Ev@Base 1.1.0
 (optional=templinst)_ZNSt12_Vector_baseISsSaISsEED2Ev@Base 1.1.0
 (optional=templinst)_ZNSt12_Vector_baseISt6vectorIPN5cnoid6SensorESaIS3_EESaIS5_EED1Ev@Base 1.1.0
 (optional=templinst)_ZNSt12_Vector_baseISt6vectorIPN5cnoid6SensorESaIS3_EESaIS5_EED2Ev@Base 1.1.0
 (optional=templinst)_ZNSt20__copy_move_backwardILb0ELb0ESt26random_access_iterator_tagE13__copy_move_bIPN5boost10shared_ptrIN5cnoid12JointNodeSetEEES8_EET0_T_SA_S9_@Base 1.1.0
 (optional=templinst)_ZNSt20__copy_move_backwardILb0ELb0ESt26random_access_iterator_tagE13__copy_move_bIPN5boost13intrusive_ptrIN5cnoid7CFSImpl8LinkPairEEES9_EET0_T_SB_SA_@Base 1.1.0
 (optional=templinst)_ZNSt20__copy_move_backwardILb0ELb0ESt26random_access_iterator_tagE13__copy_move_bIPN5boost2io6detail11format_itemIcSt11char_traitsIcESaIcEEESB_EET0_T_SD_SC_@Base 1.1.0
 (optional=templinst)_ZNSt20__copy_move_backwardILb0ELb0ESt26random_access_iterator_tagE13__copy_move_bIPN5cnoid14BodyLoaderImpl8MeshInfoES6_EET0_T_S8_S7_@Base 1.1.0
 (optional=templinst)_ZNSt20__copy_move_backwardILb0ELb0ESt26random_access_iterator_tagE13__copy_move_bIPN5cnoid4Link15ConstraintForceES6_EET0_T_S8_S7_@Base 1.1.0
 (optional=templinst)_ZNSt20__copy_move_backwardILb0ELb0ESt26random_access_iterator_tagE13__copy_move_bIPN5cnoid7CFSImpl15ConstraintPointES6_EET0_T_S8_S7_@Base 1.1.0
 (optional=templinst)_ZNSt20__copy_move_backwardILb0ELb0ESt26random_access_iterator_tagE13__copy_move_bIPN5cnoid7CFSImpl8BodyDataES6_EET0_T_S8_S7_@Base 1.1.0
 (optional=templinst)_ZNSt20__copy_move_backwardILb0ELb0ESt26random_access_iterator_tagE13__copy_move_bIPN5cnoid7CFSImpl8LinkDataES6_EET0_T_S8_S7_@Base 1.1.0
 (optional=templinst)_ZNSt20__uninitialized_copyILb0EE13__uninit_copyIN9__gnu_cxx17__normal_iteratorIPKN5Eigen5ArrayIfLi3ELi1ELi0ELi3ELi1EEESt6vectorIS6_SaIS6_EEEEPS6_EET0_T_SF_SE_@Base 1.1.0
 (optional=templinst)_ZNSt20__uninitialized_copyILb0EE13__uninit_copyIN9__gnu_cxx17__normal_iteratorIPKN5Eigen6MatrixIdLi3ELi1ELi0ELi3ELi1EEESt6vectorIS6_SaIS6_EEEEPS6_EET0_T_SF_SE_@Base 1.1.0
 (optional=templinst)_ZNSt20__uninitialized_copyILb0EE13__uninit_copyIN9__gnu_cxx17__normal_iteratorIPKN5Eigen9AngleAxisIdEESt6vectorIS6_SaIS6_EEEEPS6_EET0_T_SF_SE_@Base 1.1.0
 (optional=templinst)_ZNSt20__uninitialized_copyILb0EE13__uninit_copyIN9__gnu_cxx17__normal_iteratorIPKSsSt6vectorISsSaISsEEEEPSsEET0_T_SC_SB_@Base 1.1.0
 (optional=templinst)_ZNSt20__uninitialized_copyILb0EE13__uninit_copyIPN5Eigen5ArrayIfLi3ELi1ELi0ELi3ELi1EEES5_EET0_T_S7_S6_@Base 1.1.0
 (optional=templinst)_ZNSt20__uninitialized_copyILb0EE13__uninit_copyIPN5Eigen6MatrixIdLi3ELi1ELi0ELi3ELi1EEES5_EET0_T_S7_S6_@Base 1.1.0
 (optional=templinst)_ZNSt20__uninitialized_copyILb0EE13__uninit_copyIPN5Eigen9AngleAxisIdEES5_EET0_T_S7_S6_@Base 1.1.0
 (optional=templinst)_ZNSt20__uninitialized_copyILb0EE13__uninit_copyIPN5boost2io6detail11format_itemIcSt11char_traitsIcESaIcEEESA_EET0_T_SC_SB_@Base 1.1.0
 (optional=templinst)_ZNSt20__uninitialized_copyILb0EE13__uninit_copyIPN5cnoid4Link15ConstraintForceES5_EET0_T_S7_S6_@Base 1.1.0
 (optional=templinst)_ZNSt20__uninitialized_copyILb0EE13__uninit_copyIPN5cnoid7CFSImpl15ConstraintPointES5_EET0_T_S7_S6_@Base 1.1.0
 (optional=templinst)_ZNSt20__uninitialized_copyILb0EE13__uninit_copyIPN5cnoid7CFSImpl8BodyDataES5_EET0_T_S7_S6_@Base 1.1.0
 (optional=templinst)_ZNSt20__uninitialized_copyILb0EE13__uninit_copyIPN5cnoid7CFSImpl8LinkDataES5_EET0_T_S7_S6_@Base 1.1.0
 (optional=templinst)_ZNSt20__uninitialized_copyILb0EE13__uninit_copyIPSsS2_EET0_T_S4_S3_@Base 1.1.0
 (optional=templinst)_ZNSt22__uninitialized_fill_nILb0EE15__uninit_fill_nIPN5boost2io6detail11format_itemIcSt11char_traitsIcESaIcEEEmS9_EEvT_T0_RKT1_@Base 1.1.0
 (optional=templinst)_ZNSt22__uninitialized_fill_nILb0EE15__uninit_fill_nIPN5cnoid4Link15ConstraintForceEmS4_EEvT_T0_RKT1_@Base 1.1.0
 (optional=templinst)_ZNSt22__uninitialized_fill_nILb0EE15__uninit_fill_nIPN5cnoid7CFSImpl15ConstraintPointEmS4_EEvT_T0_RKT1_@Base 1.1.0
 (optional=templinst)_ZNSt22__uninitialized_fill_nILb0EE15__uninit_fill_nIPN5cnoid7CFSImpl8BodyDataEmS4_EEvT_T0_RKT1_@Base 1.1.0
 (optional=templinst)_ZNSt22__uninitialized_fill_nILb0EE15__uninit_fill_nIPN5cnoid7CFSImpl8LinkDataEmS4_EEvT_T0_RKT1_@Base 1.1.0
 (optional=templinst)_ZNSt3mapIPN5cnoid4LinkENS0_13PinDragIKImpl11PinPropertyESt4lessIS2_ESaISt4pairIKS2_S4_EEEixERS8_@Base 1.1.0
 (optional=templinst)_ZNSt3mapISsN5boost7variantIbidN5Eigen6MatrixIdLi2ELi1ELi0ELi2ELi1EEENS3_IdLi3ELi1ELi0ELi3ELi1EEENS2_9AngleAxisIdEENS2_5ArrayIfLi3ELi1ELi0ELi3ELi1EEEN5cnoid6SFTimeESsNS0_13intrusive_ptrINSA_8VrmlNodeEEENSA_7SFImageESt6vectorIiSaIiEESG_IdSaIdEESG_IS4_NS2_17aligned_allocatorIS4_EEESG_IS5_SaIS5_EESG_IS7_SaIS7_EESG_IS9_SaIS9_EESG_ISB_SaISB_EESG_ISsSaISsEESG_ISE_SaISE_EEEESt4lessISsESaISt4pairIKSsS10_EEEixERS14_@Base 1.1.0
 (optional=templinst)_ZNSt3mapISsN5cnoid6Sensor10SensorTypeESt4lessISsESaISt4pairIKSsS2_EEED1Ev@Base 1.1.0
 (optional=templinst)_ZNSt3mapISsN5cnoid6Sensor10SensorTypeESt4lessISsESaISt4pairIKSsS2_EEED2Ev@Base 1.1.0
 (optional=templinst)_ZNSt3mapISsN5cnoid6Sensor10SensorTypeESt4lessISsESaISt4pairIKSsS2_EEEixERS6_@Base 1.1.0
 (optional=templinst)_ZNSt3mapISsPN5cnoid23BodyCustomizerInterfaceESt4lessISsESaISt4pairIKSsS2_EEED1Ev@Base 1.1.0
 (optional=templinst)_ZNSt3mapISsPN5cnoid23BodyCustomizerInterfaceESt4lessISsESaISt4pairIKSsS2_EEED2Ev@Base 1.1.0
 (optional=templinst)_ZNSt3mapISsPN5cnoid4LinkESt4lessISsESaISt4pairIKSsS2_EEED1Ev@Base 1.1.0
 (optional=templinst)_ZNSt3mapISsPN5cnoid4LinkESt4lessISsESaISt4pairIKSsS2_EEED2Ev@Base 1.1.0
 (optional=templinst)_ZNSt3mapISsPN5cnoid6SensorESt4lessISsESaISt4pairIKSsS2_EEED1Ev@Base 1.1.0
 (optional=templinst)_ZNSt3mapISsPN5cnoid6SensorESt4lessISsESaISt4pairIKSsS2_EEED2Ev@Base 1.1.0
 (optional=templinst)_ZNSt3setISsSt4lessISsESaISsEED1Ev@Base 1.1.0
 (optional=templinst)_ZNSt3setISsSt4lessISsESaISsEED2Ev@Base 1.1.0
 (optional=templinst)_ZNSt4pairIKSsN5boost7variantIbidN5Eigen6MatrixIdLi2ELi1ELi0ELi2ELi1EEENS4_IdLi3ELi1ELi0ELi3ELi1EEENS3_9AngleAxisIdEENS3_5ArrayIfLi3ELi1ELi0ELi3ELi1EEEN5cnoid6SFTimeESsNS1_13intrusive_ptrINSB_8VrmlNodeEEENSB_7SFImageESt6vectorIiSaIiEESH_IdSaIdEESH_IS5_NS3_17aligned_allocatorIS5_EEESH_IS6_SaIS6_EESH_IS8_SaIS8_EESH_ISA_SaISA_EESH_ISC_SaISC_EESH_ISsSaISsEESH_ISF_SaISF_EEEEEC1ERKS12_@Base 1.1.0
 (optional=templinst)_ZNSt4pairIKSsN5boost7variantIbidN5Eigen6MatrixIdLi2ELi1ELi0ELi2ELi1EEENS4_IdLi3ELi1ELi0ELi3ELi1EEENS3_9AngleAxisIdEENS3_5ArrayIfLi3ELi1ELi0ELi3ELi1EEEN5cnoid6SFTimeESsNS1_13intrusive_ptrINSB_8VrmlNodeEEENSB_7SFImageESt6vectorIiSaIiEESH_IdSaIdEESH_IS5_NS3_17aligned_allocatorIS5_EEESH_IS6_SaIS6_EESH_IS8_SaIS8_EESH_ISA_SaISA_EESH_ISC_SaISC_EESH_ISsSaISsEESH_ISF_SaISF_EEEEEC1ERS0_RKS11_@Base 1.1.0
 (optional=templinst)_ZNSt4pairIKSsN5boost7variantIbidN5Eigen6MatrixIdLi2ELi1ELi0ELi2ELi1EEENS4_IdLi3ELi1ELi0ELi3ELi1EEENS3_9AngleAxisIdEENS3_5ArrayIfLi3ELi1ELi0ELi3ELi1EEEN5cnoid6SFTimeESsNS1_13intrusive_ptrINSB_8VrmlNodeEEENSB_7SFImageESt6vectorIiSaIiEESH_IdSaIdEESH_IS5_NS3_17aligned_allocatorIS5_EEESH_IS6_SaIS6_EESH_IS8_SaIS8_EESH_ISA_SaISA_EESH_ISC_SaISC_EESH_ISsSaISsEESH_ISF_SaISF_EEEEEC2ERKS12_@Base 1.1.0
 (optional=templinst)_ZNSt4pairIKSsN5boost7variantIbidN5Eigen6MatrixIdLi2ELi1ELi0ELi2ELi1EEENS4_IdLi3ELi1ELi0ELi3ELi1EEENS3_9AngleAxisIdEENS3_5ArrayIfLi3ELi1ELi0ELi3ELi1EEEN5cnoid6SFTimeESsNS1_13intrusive_ptrINSB_8VrmlNodeEEENSB_7SFImageESt6vectorIiSaIiEESH_IdSaIdEESH_IS5_NS3_17aligned_allocatorIS5_EEESH_IS6_SaIS6_EESH_IS8_SaIS8_EESH_ISA_SaISA_EESH_ISC_SaISC_EESH_ISsSaISsEESH_ISF_SaISF_EEEEEC2ERS0_RKS11_@Base 1.1.0
 (optional=templinst)_ZNSt4pairIKSsN5boost7variantIbidN5Eigen6MatrixIdLi2ELi1ELi0ELi2ELi1EEENS4_IdLi3ELi1ELi0ELi3ELi1EEENS3_9AngleAxisIdEENS3_5ArrayIfLi3ELi1ELi0ELi3ELi1EEEN5cnoid6SFTimeESsNS1_13intrusive_ptrINSB_8VrmlNodeEEENSB_7SFImageESt6vectorIiSaIiEESH_IdSaIdEESH_IS5_NS3_17aligned_allocatorIS5_EEESH_IS6_SaIS6_EESH_IS8_SaIS8_EESH_ISA_SaISA_EESH_ISC_SaISC_EESH_ISsSaISsEESH_ISF_SaISF_EEEEED1Ev@Base 1.1.0
 (optional=templinst)_ZNSt4pairIKSsN5boost7variantIbidN5Eigen6MatrixIdLi2ELi1ELi0ELi2ELi1EEENS4_IdLi3ELi1ELi0ELi3ELi1EEENS3_9AngleAxisIdEENS3_5ArrayIfLi3ELi1ELi0ELi3ELi1EEEN5cnoid6SFTimeESsNS1_13intrusive_ptrINSB_8VrmlNodeEEENSB_7SFImageESt6vectorIiSaIiEESH_IdSaIdEESH_IS5_NS3_17aligned_allocatorIS5_EEESH_IS6_SaIS6_EESH_IS8_SaIS8_EESH_ISA_SaISA_EESH_ISC_SaISC_EESH_ISsSaISsEESH_ISF_SaISF_EEEEED2Ev@Base 1.1.0
 (optional=templinst)_ZNSt4pairIKSsN5cnoid6Sensor10SensorTypeEED1Ev@Base 1.1.0
 (optional=templinst)_ZNSt4pairIKSsN5cnoid6Sensor10SensorTypeEED2Ev@Base 1.1.0
 (optional=templinst)_ZNSt6vectorIN5Eigen5ArrayIfLi3ELi1ELi0ELi3ELi1EEESaIS2_EEC1ERKS4_@Base 1.1.0
 (optional=templinst)_ZNSt6vectorIN5Eigen5ArrayIfLi3ELi1ELi0ELi3ELi1EEESaIS2_EEC2ERKS4_@Base 1.1.0
 (optional=templinst)_ZNSt6vectorIN5Eigen5ArrayIfLi3ELi1ELi0ELi3ELi1EEESaIS2_EED1Ev@Base 1.1.0
 (optional=templinst)_ZNSt6vectorIN5Eigen5ArrayIfLi3ELi1ELi0ELi3ELi1EEESaIS2_EED2Ev@Base 1.1.0
 (optional=templinst)_ZNSt6vectorIN5Eigen5ArrayIfLi3ELi1ELi0ELi3ELi1EEESaIS2_EEaSERKS4_@Base 1.1.0
 (optional=templinst)_ZNSt6vectorIN5Eigen6MatrixIdLi2ELi1ELi0ELi2ELi1EEENS0_17aligned_allocatorIS2_EEED1Ev@Base 1.1.0
 (optional=templinst)_ZNSt6vectorIN5Eigen6MatrixIdLi2ELi1ELi0ELi2ELi1EEENS0_17aligned_allocatorIS2_EEED2Ev@Base 1.1.0
 (optional=templinst)_ZNSt6vectorIN5Eigen6MatrixIdLi2ELi1ELi0ELi2ELi1EEENS0_29aligned_allocator_indirectionIS2_EEEC1ERKS5_@Base 1.1.0
 (optional=templinst)_ZNSt6vectorIN5Eigen6MatrixIdLi2ELi1ELi0ELi2ELi1EEENS0_29aligned_allocator_indirectionIS2_EEEC2ERKS5_@Base 1.1.0
 (optional=templinst)_ZNSt6vectorIN5Eigen6MatrixIdLi2ELi1ELi0ELi2ELi1EEENS0_29aligned_allocator_indirectionIS2_EEEaSERKS5_@Base 1.1.0
 (optional=templinst)_ZNSt6vectorIN5Eigen6MatrixIdLi3ELi1ELi0ELi3ELi1EEESaIS2_EE13_M_insert_auxEN9__gnu_cxx17__normal_iteratorIPS2_S4_EERKS2_@Base 1.1.0
 (optional=templinst)_ZNSt6vectorIN5Eigen6MatrixIdLi3ELi1ELi0ELi3ELi1EEESaIS2_EEC1ERKS4_@Base 1.1.0
 (optional=templinst)_ZNSt6vectorIN5Eigen6MatrixIdLi3ELi1ELi0ELi3ELi1EEESaIS2_EEC1EmRKS2_RKS3_@Base 1.1.0
 (optional=templinst)_ZNSt6vectorIN5Eigen6MatrixIdLi3ELi1ELi0ELi3ELi1EEESaIS2_EEC2ERKS4_@Base 1.1.0
 (optional=templinst)_ZNSt6vectorIN5Eigen6MatrixIdLi3ELi1ELi0ELi3ELi1EEESaIS2_EEC2EmRKS2_RKS3_@Base 1.1.0
 (optional=templinst)_ZNSt6vectorIN5Eigen6MatrixIdLi3ELi1ELi0ELi3ELi1EEESaIS2_EED1Ev@Base 1.1.0
 (optional=templinst)_ZNSt6vectorIN5Eigen6MatrixIdLi3ELi1ELi0ELi3ELi1EEESaIS2_EED2Ev@Base 1.1.0
 (optional=templinst)_ZNSt6vectorIN5Eigen6MatrixIdLi3ELi1ELi0ELi3ELi1EEESaIS2_EEaSERKS4_@Base 1.1.0
 (optional=templinst)_ZNSt6vectorIN5Eigen9AngleAxisIdEESaIS2_EEC1ERKS4_@Base 1.1.0
 (optional=templinst)_ZNSt6vectorIN5Eigen9AngleAxisIdEESaIS2_EEC2ERKS4_@Base 1.1.0
 (optional=templinst)_ZNSt6vectorIN5Eigen9AngleAxisIdEESaIS2_EED1Ev@Base 1.1.0
 (optional=templinst)_ZNSt6vectorIN5Eigen9AngleAxisIdEESaIS2_EED2Ev@Base 1.1.0
 (optional=templinst)_ZNSt6vectorIN5Eigen9AngleAxisIdEESaIS2_EEaSERKS4_@Base 1.1.0
 (optional=templinst)_ZNSt6vectorIN5Eigen9TransformIdLi3ELi2ELi0EEENS0_29aligned_allocator_indirectionIS2_EEE13_M_insert_auxEN9__gnu_cxx17__normal_iteratorIPS2_S5_EERKS2_@Base 1.1.0
 (optional=templinst)_ZNSt6vectorIN5boost10shared_ptrIN5cnoid12JointNodeSetEEESaIS4_EE13_M_insert_auxEN9__gnu_cxx17__normal_iteratorIPS4_S6_EERKS4_@Base 1.1.0
 (optional=templinst)_ZNSt6vectorIN5boost10shared_ptrIN5cnoid12JointNodeSetEEESaIS4_EED1Ev@Base 1.1.0
 (optional=templinst)_ZNSt6vectorIN5boost10shared_ptrIN5cnoid12JointNodeSetEEESaIS4_EED2Ev@Base 1.1.0
 (optional=templinst)_ZNSt6vectorIN5boost10shared_ptrIN5cnoid9JointPathEEESaIS4_EE13_M_insert_auxEN9__gnu_cxx17__normal_iteratorIPS4_S6_EERKS4_@Base 1.1.0
 (optional=templinst)_ZNSt6vectorIN5boost10shared_ptrIN5cnoid9JointPathEEESaIS4_EED1Ev@Base 1.1.0
 (optional=templinst)_ZNSt6vectorIN5boost10shared_ptrIN5cnoid9JointPathEEESaIS4_EED2Ev@Base 1.1.0
 (optional=templinst)_ZNSt6vectorIN5boost13intrusive_ptrIN5cnoid15ColdetModelPairEEESaIS4_EE13_M_insert_auxEN9__gnu_cxx17__normal_iteratorIPS4_S6_EERKS4_@Base 1.1.0
 (optional=templinst)_ZNSt6vectorIN5boost13intrusive_ptrIN5cnoid15ColdetModelPairEEESaIS4_EED1Ev@Base 1.1.0
 (optional=templinst)_ZNSt6vectorIN5boost13intrusive_ptrIN5cnoid15ColdetModelPairEEESaIS4_EED2Ev@Base 1.1.0
 (optional=templinst)_ZNSt6vectorIN5boost13intrusive_ptrIN5cnoid17VrmlProtoInstanceEEESaIS4_EE13_M_insert_auxEN9__gnu_cxx17__normal_iteratorIPS4_S6_EERKS4_@Base 1.1.0
 (optional=templinst)_ZNSt6vectorIN5boost13intrusive_ptrIN5cnoid17VrmlProtoInstanceEEESaIS4_EEC1ERKS6_@Base 1.1.0
 (optional=templinst)_ZNSt6vectorIN5boost13intrusive_ptrIN5cnoid17VrmlProtoInstanceEEESaIS4_EEC2ERKS6_@Base 1.1.0
 (optional=templinst)_ZNSt6vectorIN5boost13intrusive_ptrIN5cnoid17VrmlProtoInstanceEEESaIS4_EED1Ev@Base 1.1.0
 (optional=templinst)_ZNSt6vectorIN5boost13intrusive_ptrIN5cnoid17VrmlProtoInstanceEEESaIS4_EED2Ev@Base 1.1.0
 (optional=templinst)_ZNSt6vectorIN5boost13intrusive_ptrIN5cnoid7CFSImpl8LinkPairEEESaIS5_EE13_M_insert_auxEN9__gnu_cxx17__normal_iteratorIPS5_S7_EERKS5_@Base 1.1.0
 (optional=templinst)_ZNSt6vectorIN5boost13intrusive_ptrIN5cnoid7CFSImpl8LinkPairEEESaIS5_EE14_M_fill_insertEN9__gnu_cxx17__normal_iteratorIPS5_S7_EEmRKS5_@Base 1.1.0
 (optional=templinst)_ZNSt6vectorIN5boost13intrusive_ptrIN5cnoid7CFSImpl8LinkPairEEESaIS5_EED1Ev@Base 1.1.0
 (optional=templinst)_ZNSt6vectorIN5boost13intrusive_ptrIN5cnoid7CFSImpl8LinkPairEEESaIS5_EED2Ev@Base 1.1.0
 (optional=templinst)_ZNSt6vectorIN5boost13intrusive_ptrIN5cnoid8VrmlNodeEEESaIS4_EEC1ERKS6_@Base 1.1.0
 (optional=templinst)_ZNSt6vectorIN5boost13intrusive_ptrIN5cnoid8VrmlNodeEEESaIS4_EEC2ERKS6_@Base 1.1.0
 (optional=templinst)_ZNSt6vectorIN5boost13intrusive_ptrIN5cnoid8VrmlNodeEEESaIS4_EED1Ev@Base 1.1.0
 (optional=templinst)_ZNSt6vectorIN5boost13intrusive_ptrIN5cnoid8VrmlNodeEEESaIS4_EED2Ev@Base 1.1.0
 (optional=templinst)_ZNSt6vectorIN5boost13intrusive_ptrIN5cnoid8VrmlNodeEEESaIS4_EEaSERKS6_@Base 1.1.0
 (optional=templinst)_ZNSt6vectorIN5boost2io6detail11format_itemIcSt11char_traitsIcESaIcEEESaIS7_EE14_M_fill_assignEmRKS7_@Base 1.1.0
 (optional=templinst)_ZNSt6vectorIN5boost2io6detail11format_itemIcSt11char_traitsIcESaIcEEESaIS7_EE14_M_fill_insertEN9__gnu_cxx17__normal_iteratorIPS7_S9_EEmRKS7_@Base 1.1.0
 (optional=templinst)_ZNSt6vectorIN5boost2io6detail11format_itemIcSt11char_traitsIcESaIcEEESaIS7_EE6resizeEmS7_@Base 1.1.0
 (optional=templinst)_ZNSt6vectorIN5boost2io6detail11format_itemIcSt11char_traitsIcESaIcEEESaIS7_EEC1EmRKS7_RKS8_@Base 1.1.0
 (optional=templinst)_ZNSt6vectorIN5boost2io6detail11format_itemIcSt11char_traitsIcESaIcEEESaIS7_EEC2EmRKS7_RKS8_@Base 1.1.0
 (optional=templinst)_ZNSt6vectorIN5boost2io6detail11format_itemIcSt11char_traitsIcESaIcEEESaIS7_EED1Ev@Base 1.1.0
 (optional=templinst)_ZNSt6vectorIN5boost2io6detail11format_itemIcSt11char_traitsIcESaIcEEESaIS7_EED2Ev@Base 1.1.0
 (optional=templinst)_ZNSt6vectorIN5boost7variantINS0_13intrusive_ptrIN5cnoid9LinkGroupEEEiNS0_6detail7variant5void_ES8_S8_S8_S8_S8_S8_S8_S8_S8_S8_S8_S8_S8_S8_S8_S8_S8_EESaIS9_EE13_M_insert_auxEN9__gnu_cxx17__normal_iteratorIPS9_SB_EERKS9_@Base 1.1.0
 (optional=templinst)_ZNSt6vectorIN5boost8optionalIdEESaIS2_EE14_M_fill_insertEN9__gnu_cxx17__normal_iteratorIPS2_S4_EEmRKS2_@Base 1.1.0
 (optional=templinst)_ZNSt6vectorIN5cnoid10LeggedBody8FootInfoESaIS2_EE13_M_insert_auxEN9__gnu_cxx17__normal_iteratorIPS2_S4_EERKS2_@Base 1.1.0
 (optional=templinst)_ZNSt6vectorIN5cnoid11CompositeIK8PathInfoESaIS2_EE13_M_insert_auxEN9__gnu_cxx17__normal_iteratorIPS2_S4_EERKS2_@Base 1.1.0
 (optional=templinst)_ZNSt6vectorIN5cnoid11CompositeIK8PathInfoESaIS2_EED1Ev@Base 1.1.0
 (optional=templinst)_ZNSt6vectorIN5cnoid11CompositeIK8PathInfoESaIS2_EED2Ev@Base 1.1.0
 (optional=templinst)_ZNSt6vectorIN5cnoid12RangeLimiter8TSegmentESaIS2_EE13_M_insert_auxEN9__gnu_cxx17__normal_iteratorIPS2_S4_EERKS2_@Base 1.1.0
 (optional=templinst)_ZNSt6vectorIN5cnoid12RangeLimiter8TSegmentESaIS2_EE9push_backERKS2_@Base 1.1.0
 (optional=templinst)_ZNSt6vectorIN5cnoid13PinDragIKImpl14JointConstrainESaIS2_EE13_M_insert_auxEN9__gnu_cxx17__normal_iteratorIPS2_S4_EERKS2_@Base 1.1.0
 (optional=templinst)_ZNSt6vectorIN5cnoid14BodyLoaderImpl8MeshInfoEN5Eigen17aligned_allocatorIS2_EEED1Ev@Base 1.1.0
 (optional=templinst)_ZNSt6vectorIN5cnoid14BodyLoaderImpl8MeshInfoEN5Eigen17aligned_allocatorIS2_EEED2Ev@Base 1.1.0
